; Listing generated by Microsoft (R) Optimizing Compiler Version 15.00.30729.01 

include listing.inc

INCLUDELIB OLDNAMES

PUBLIC	lzma_crc32_table
lzma_crc32_table DD 00H
	DD	077073096H
	DD	0ee0e612cH
	DD	0990951baH
	DD	076dc419H
	DD	0706af48fH
	DD	0e963a535H
	DD	09e6495a3H
	DD	0edb8832H
	DD	079dcb8a4H
	DD	0e0d5e91eH
	DD	097d2d988H
	DD	09b64c2bH
	DD	07eb17cbdH
	DD	0e7b82d07H
	DD	090bf1d91H
	DD	01db71064H
	DD	06ab020f2H
	DD	0f3b97148H
	DD	084be41deH
	DD	01adad47dH
	DD	06ddde4ebH
	DD	0f4d4b551H
	DD	083d385c7H
	DD	0136c9856H
	DD	0646ba8c0H
	DD	0fd62f97aH
	DD	08a65c9ecH
	DD	014015c4fH
	DD	063066cd9H
	DD	0fa0f3d63H
	DD	08d080df5H
	DD	03b6e20c8H
	DD	04c69105eH
	DD	0d56041e4H
	DD	0a2677172H
	DD	03c03e4d1H
	DD	04b04d447H
	DD	0d20d85fdH
	DD	0a50ab56bH
	DD	035b5a8faH
	DD	042b2986cH
	DD	0dbbbc9d6H
	DD	0acbcf940H
	DD	032d86ce3H
	DD	045df5c75H
	DD	0dcd60dcfH
	DD	0abd13d59H
	DD	026d930acH
	DD	051de003aH
	DD	0c8d75180H
	DD	0bfd06116H
	DD	021b4f4b5H
	DD	056b3c423H
	DD	0cfba9599H
	DD	0b8bda50fH
	DD	02802b89eH
	DD	05f058808H
	DD	0c60cd9b2H
	DD	0b10be924H
	DD	02f6f7c87H
	DD	058684c11H
	DD	0c1611dabH
	DD	0b6662d3dH
	DD	076dc4190H
	DD	01db7106H
	DD	098d220bcH
	DD	0efd5102aH
	DD	071b18589H
	DD	06b6b51fH
	DD	09fbfe4a5H
	DD	0e8b8d433H
	DD	07807c9a2H
	DD	0f00f934H
	DD	09609a88eH
	DD	0e10e9818H
	DD	07f6a0dbbH
	DD	086d3d2dH
	DD	091646c97H
	DD	0e6635c01H
	DD	06b6b51f4H
	DD	01c6c6162H
	DD	0856530d8H
	DD	0f262004eH
	DD	06c0695edH
	DD	01b01a57bH
	DD	08208f4c1H
	DD	0f50fc457H
	DD	065b0d9c6H
	DD	012b7e950H
	DD	08bbeb8eaH
	DD	0fcb9887cH
	DD	062dd1ddfH
	DD	015da2d49H
	DD	08cd37cf3H
	DD	0fbd44c65H
	DD	04db26158H
	DD	03ab551ceH
	DD	0a3bc0074H
	DD	0d4bb30e2H
	DD	04adfa541H
	DD	03dd895d7H
	DD	0a4d1c46dH
	DD	0d3d6f4fbH
	DD	04369e96aH
	DD	0346ed9fcH
	DD	0ad678846H
	DD	0da60b8d0H
	DD	044042d73H
	DD	033031de5H
	DD	0aa0a4c5fH
	DD	0dd0d7cc9H
	DD	05005713cH
	DD	0270241aaH
	DD	0be0b1010H
	DD	0c90c2086H
	DD	05768b525H
	DD	0206f85b3H
	DD	0b966d409H
	DD	0ce61e49fH
	DD	05edef90eH
	DD	029d9c998H
	DD	0b0d09822H
	DD	0c7d7a8b4H
	DD	059b33d17H
	DD	02eb40d81H
	DD	0b7bd5c3bH
	DD	0c0ba6cadH
	DD	0edb88320H
	DD	09abfb3b6H
	DD	03b6e20cH
	DD	074b1d29aH
	DD	0ead54739H
	DD	09dd277afH
	DD	04db2615H
	DD	073dc1683H
	DD	0e3630b12H
	DD	094643b84H
	DD	0d6d6a3eH
	DD	07a6a5aa8H
	DD	0e40ecf0bH
	DD	09309ff9dH
	DD	0a00ae27H
	DD	07d079eb1H
	DD	0f00f9344H
	DD	08708a3d2H
	DD	01e01f268H
	DD	06906c2feH
	DD	0f762575dH
	DD	0806567cbH
	DD	0196c3671H
	DD	06e6b06e7H
	DD	0fed41b76H
	DD	089d32be0H
	DD	010da7a5aH
	DD	067dd4accH
	DD	0f9b9df6fH
	DD	08ebeeff9H
	DD	017b7be43H
	DD	060b08ed5H
	DD	0d6d6a3e8H
	DD	0a1d1937eH
	DD	038d8c2c4H
	DD	04fdff252H
	DD	0d1bb67f1H
	DD	0a6bc5767H
	DD	03fb506ddH
	DD	048b2364bH
	DD	0d80d2bdaH
	DD	0af0a1b4cH
	DD	036034af6H
	DD	041047a60H
	DD	0df60efc3H
	DD	0a867df55H
	DD	0316e8eefH
	DD	04669be79H
	DD	0cb61b38cH
	DD	0bc66831aH
	DD	0256fd2a0H
	DD	05268e236H
	DD	0cc0c7795H
	DD	0bb0b4703H
	DD	0220216b9H
	DD	05505262fH
	DD	0c5ba3bbeH
	DD	0b2bd0b28H
	DD	02bb45a92H
	DD	05cb36a04H
	DD	0c2d7ffa7H
	DD	0b5d0cf31H
	DD	02cd99e8bH
	DD	05bdeae1dH
	DD	09b64c2b0H
	DD	0ec63f226H
	DD	0756aa39cH
	DD	026d930aH
	DD	09c0906a9H
	DD	0eb0e363fH
	DD	072076785H
	DD	05005713H
	DD	095bf4a82H
	DD	0e2b87a14H
	DD	07bb12baeH
	DD	0cb61b38H
	DD	092d28e9bH
	DD	0e5d5be0dH
	DD	07cdcefb7H
	DD	0bdbdf21H
	DD	086d3d2d4H
	DD	0f1d4e242H
	DD	068ddb3f8H
	DD	01fda836eH
	DD	081be16cdH
	DD	0f6b9265bH
	DD	06fb077e1H
	DD	018b74777H
	DD	088085ae6H
	DD	0ff0f6a70H
	DD	066063bcaH
	DD	011010b5cH
	DD	08f659effH
	DD	0f862ae69H
	DD	0616bffd3H
	DD	0166ccf45H
	DD	0a00ae278H
	DD	0d70dd2eeH
	DD	04e048354H
	DD	03903b3c2H
	DD	0a7672661H
	DD	0d06016f7H
	DD	04969474dH
	DD	03e6e77dbH
	DD	0aed16a4aH
	DD	0d9d65adcH
	DD	040df0b66H
	DD	037d83bf0H
	DD	0a9bcae53H
	DD	0debb9ec5H
	DD	047b2cf7fH
	DD	030b5ffe9H
	DD	0bdbdf21cH
	DD	0cabac28aH
	DD	053b39330H
	DD	024b4a3a6H
	DD	0bad03605H
	DD	0cdd70693H
	DD	054de5729H
	DD	023d967bfH
	DD	0b3667a2eH
	DD	0c4614ab8H
	DD	05d681b02H
	DD	02a6f2b94H
	DD	0b40bbe37H
	DD	0c30c8ea1H
	DD	05a05df1bH
	DD	02d02ef8dH
	DD	00H
	DD	0191b3141H
	DD	032366282H
	DD	02b2d53c3H
	DD	0646cc504H
	DD	07d77f445H
	DD	0565aa786H
	DD	04f4196c7H
	DD	0c8d98a08H
	DD	0d1c2bb49H
	DD	0faefe88aH
	DD	0e3f4d9cbH
	DD	0acb54f0cH
	DD	0b5ae7e4dH
	DD	09e832d8eH
	DD	087981ccfH
	DD	04ac21251H
	DD	053d92310H
	DD	078f470d3H
	DD	061ef4192H
	DD	02eaed755H
	DD	037b5e614H
	DD	01c98b5d7H
	DD	05838496H
	DD	0821b9859H
	DD	09b00a918H
	DD	0b02dfadbH
	DD	0a936cb9aH
	DD	0e6775d5dH
	DD	0ff6c6c1cH
	DD	0d4413fdfH
	DD	0cd5a0e9eH
	DD	0958424a2H
	DD	08c9f15e3H
	DD	0a7b24620H
	DD	0bea97761H
	DD	0f1e8e1a6H
	DD	0e8f3d0e7H
	DD	0c3de8324H
	DD	0dac5b265H
	DD	05d5daeaaH
	DD	044469febH
	DD	06f6bcc28H
	DD	07670fd69H
	DD	039316baeH
	DD	0202a5aefH
	DD	0b07092cH
	DD	0121c386dH
	DD	0df4636f3H
	DD	0c65d07b2H
	DD	0ed705471H
	DD	0f46b6530H
	DD	0bb2af3f7H
	DD	0a231c2b6H
	DD	0891c9175H
	DD	09007a034H
	DD	0179fbcfbH
	DD	0e848dbaH
	DD	025a9de79H
	DD	03cb2ef38H
	DD	073f379ffH
	DD	06ae848beH
	DD	041c51b7dH
	DD	058de2a3cH
	DD	0f0794f05H
	DD	0e9627e44H
	DD	0c24f2d87H
	DD	0db541cc6H
	DD	094158a01H
	DD	08d0ebb40H
	DD	0a623e883H
	DD	0bf38d9c2H
	DD	038a0c50dH
	DD	021bbf44cH
	DD	0a96a78fH
	DD	0138d96ceH
	DD	05ccc0009H
	DD	045d73148H
	DD	06efa628bH
	DD	077e153caH
	DD	0babb5d54H
	DD	0a3a06c15H
	DD	0888d3fd6H
	DD	091960e97H
	DD	0ded79850H
	DD	0c7cca911H
	DD	0ece1fad2H
	DD	0f5facb93H
	DD	07262d75cH
	DD	06b79e61dH
	DD	04054b5deH
	DD	0594f849fH
	DD	0160e1258H
	DD	0f152319H
	DD	0243870daH
	DD	03d23419bH
	DD	065fd6ba7H
	DD	07ce65ae6H
	DD	057cb0925H
	DD	04ed03864H
	DD	0191aea3H
	DD	0188a9fe2H
	DD	033a7cc21H
	DD	02abcfd60H
	DD	0ad24e1afH
	DD	0b43fd0eeH
	DD	09f12832dH
	DD	08609b26cH
	DD	0c94824abH
	DD	0d05315eaH
	DD	0fb7e4629H
	DD	0e2657768H
	DD	02f3f79f6H
	DD	0362448b7H
	DD	01d091b74H
	DD	04122a35H
	DD	04b53bcf2H
	DD	052488db3H
	DD	07965de70H
	DD	0607eef31H
	DD	0e7e6f3feH
	DD	0fefdc2bfH
	DD	0d5d0917cH
	DD	0cccba03dH
	DD	0838a36faH
	DD	09a9107bbH
	DD	0b1bc5478H
	DD	0a8a76539H
	DD	03b83984bH
	DD	02298a90aH
	DD	09b5fac9H
	DD	010aecb88H
	DD	05fef5d4fH
	DD	046f46c0eH
	DD	06dd93fcdH
	DD	074c20e8cH
	DD	0f35a1243H
	DD	0ea412302H
	DD	0c16c70c1H
	DD	0d8774180H
	DD	09736d747H
	DD	08e2de606H
	DD	0a500b5c5H
	DD	0bc1b8484H
	DD	071418a1aH
	DD	0685abb5bH
	DD	04377e898H
	DD	05a6cd9d9H
	DD	0152d4f1eH
	DD	0c367e5fH
	DD	0271b2d9cH
	DD	03e001cddH
	DD	0b9980012H
	DD	0a0833153H
	DD	08bae6290H
	DD	092b553d1H
	DD	0ddf4c516H
	DD	0c4eff457H
	DD	0efc2a794H
	DD	0f6d996d5H
	DD	0ae07bce9H
	DD	0b71c8da8H
	DD	09c31de6bH
	DD	0852aef2aH
	DD	0ca6b79edH
	DD	0d37048acH
	DD	0f85d1b6fH
	DD	0e1462a2eH
	DD	066de36e1H
	DD	07fc507a0H
	DD	054e85463H
	DD	04df36522H
	DD	02b2f3e5H
	DD	01ba9c2a4H
	DD	030849167H
	DD	0299fa026H
	DD	0e4c5aeb8H
	DD	0fdde9ff9H
	DD	0d6f3cc3aH
	DD	0cfe8fd7bH
	DD	080a96bbcH
	DD	099b25afdH
	DD	0b29f093eH
	DD	0ab84387fH
	DD	02c1c24b0H
	DD	0350715f1H
	DD	01e2a4632H
	DD	07317773H
	DD	04870e1b4H
	DD	0516bd0f5H
	DD	07a468336H
	DD	0635db277H
	DD	0cbfad74eH
	DD	0d2e1e60fH
	DD	0f9ccb5ccH
	DD	0e0d7848dH
	DD	0af96124aH
	DD	0b68d230bH
	DD	09da070c8H
	DD	084bb4189H
	DD	03235d46H
	DD	01a386c07H
	DD	031153fc4H
	DD	0280e0e85H
	DD	0674f9842H
	DD	07e54a903H
	DD	05579fac0H
	DD	04c62cb81H
	DD	08138c51fH
	DD	09823f45eH
	DD	0b30ea79dH
	DD	0aa1596dcH
	DD	0e554001bH
	DD	0fc4f315aH
	DD	0d7626299H
	DD	0ce7953d8H
	DD	049e14f17H
	DD	050fa7e56H
	DD	07bd72d95H
	DD	062cc1cd4H
	DD	02d8d8a13H
	DD	03496bb52H
	DD	01fbbe891H
	DD	06a0d9d0H
	DD	05e7ef3ecH
	DD	04765c2adH
	DD	06c48916eH
	DD	07553a02fH
	DD	03a1236e8H
	DD	0230907a9H
	DD	0824546aH
	DD	0113f652bH
	DD	096a779e4H
	DD	08fbc48a5H
	DD	0a4911b66H
	DD	0bd8a2a27H
	DD	0f2cbbce0H
	DD	0ebd08da1H
	DD	0c0fdde62H
	DD	0d9e6ef23H
	DD	014bce1bdH
	DD	0da7d0fcH
	DD	0268a833fH
	DD	03f91b27eH
	DD	070d024b9H
	DD	069cb15f8H
	DD	042e6463bH
	DD	05bfd777aH
	DD	0dc656bb5H
	DD	0c57e5af4H
	DD	0ee530937H
	DD	0f7483876H
	DD	0b809aeb1H
	DD	0a1129ff0H
	DD	08a3fcc33H
	DD	09324fd72H
	DD	00H
	DD	01c26a37H
	DD	0384d46eH
	DD	0246be59H
	DD	0709a8dcH
	DD	06cbc2ebH
	DD	048d7cb2H
	DD	054f1685H
	DD	0e1351b8H
	DD	0fd13b8fH
	DD	0d9785d6H
	DD	0c55efe1H
	DD	091af964H
	DD	08d89353H
	DD	0a9e2d0aH
	DD	0b5c473dH
	DD	01c26a370H
	DD	01de4c947H
	DD	01fa2771eH
	DD	01e601d29H
	DD	01b2f0bacH
	DD	01aed619bH
	DD	018abdfc2H
	DD	01969b5f5H
	DD	01235f2c8H
	DD	013f798ffH
	DD	011b126a6H
	DD	010734c91H
	DD	0153c5a14H
	DD	014fe3023H
	DD	016b88e7aH
	DD	0177ae44dH
	DD	0384d46e0H
	DD	0398f2cd7H
	DD	03bc9928eH
	DD	03a0bf8b9H
	DD	03f44ee3cH
	DD	03e86840bH
	DD	03cc03a52H
	DD	03d025065H
	DD	0365e1758H
	DD	0379c7d6fH
	DD	035dac336H
	DD	03418a901H
	DD	03157bf84H
	DD	03095d5b3H
	DD	032d36beaH
	DD	0331101ddH
	DD	0246be590H
	DD	025a98fa7H
	DD	027ef31feH
	DD	0262d5bc9H
	DD	023624d4cH
	DD	022a0277bH
	DD	020e69922H
	DD	02124f315H
	DD	02a78b428H
	DD	02bbade1fH
	DD	029fc6046H
	DD	0283e0a71H
	DD	02d711cf4H
	DD	02cb376c3H
	DD	02ef5c89aH
	DD	02f37a2adH
	DD	0709a8dc0H
	DD	07158e7f7H
	DD	0731e59aeH
	DD	072dc3399H
	DD	07793251cH
	DD	076514f2bH
	DD	07417f172H
	DD	075d59b45H
	DD	07e89dc78H
	DD	07f4bb64fH
	DD	07d0d0816H
	DD	07ccf6221H
	DD	0798074a4H
	DD	078421e93H
	DD	07a04a0caH
	DD	07bc6cafdH
	DD	06cbc2eb0H
	DD	06d7e4487H
	DD	06f38fadeH
	DD	06efa90e9H
	DD	06bb5866cH
	DD	06a77ec5bH
	DD	068315202H
	DD	069f33835H
	DD	062af7f08H
	DD	0636d153fH
	DD	0612bab66H
	DD	060e9c151H
	DD	065a6d7d4H
	DD	06464bde3H
	DD	0662203baH
	DD	067e0698dH
	DD	048d7cb20H
	DD	04915a117H
	DD	04b531f4eH
	DD	04a917579H
	DD	04fde63fcH
	DD	04e1c09cbH
	DD	04c5ab792H
	DD	04d98dda5H
	DD	046c49a98H
	DD	04706f0afH
	DD	045404ef6H
	DD	0448224c1H
	DD	041cd3244H
	DD	0400f5873H
	DD	04249e62aH
	DD	0438b8c1dH
	DD	054f16850H
	DD	055330267H
	DD	05775bc3eH
	DD	056b7d609H
	DD	053f8c08cH
	DD	0523aaabbH
	DD	0507c14e2H
	DD	051be7ed5H
	DD	05ae239e8H
	DD	05b2053dfH
	DD	05966ed86H
	DD	058a487b1H
	DD	05deb9134H
	DD	05c29fb03H
	DD	05e6f455aH
	DD	05fad2f6dH
	DD	0e1351b80H
	DD	0e0f771b7H
	DD	0e2b1cfeeH
	DD	0e373a5d9H
	DD	0e63cb35cH
	DD	0e7fed96bH
	DD	0e5b86732H
	DD	0e47a0d05H
	DD	0ef264a38H
	DD	0eee4200fH
	DD	0eca29e56H
	DD	0ed60f461H
	DD	0e82fe2e4H
	DD	0e9ed88d3H
	DD	0ebab368aH
	DD	0ea695cbdH
	DD	0fd13b8f0H
	DD	0fcd1d2c7H
	DD	0fe976c9eH
	DD	0ff5506a9H
	DD	0fa1a102cH
	DD	0fbd87a1bH
	DD	0f99ec442H
	DD	0f85cae75H
	DD	0f300e948H
	DD	0f2c2837fH
	DD	0f0843d26H
	DD	0f1465711H
	DD	0f4094194H
	DD	0f5cb2ba3H
	DD	0f78d95faH
	DD	0f64fffcdH
	DD	0d9785d60H
	DD	0d8ba3757H
	DD	0dafc890eH
	DD	0db3ee339H
	DD	0de71f5bcH
	DD	0dfb39f8bH
	DD	0ddf521d2H
	DD	0dc374be5H
	DD	0d76b0cd8H
	DD	0d6a966efH
	DD	0d4efd8b6H
	DD	0d52db281H
	DD	0d062a404H
	DD	0d1a0ce33H
	DD	0d3e6706aH
	DD	0d2241a5dH
	DD	0c55efe10H
	DD	0c49c9427H
	DD	0c6da2a7eH
	DD	0c7184049H
	DD	0c25756ccH
	DD	0c3953cfbH
	DD	0c1d382a2H
	DD	0c011e895H
	DD	0cb4dafa8H
	DD	0ca8fc59fH
	DD	0c8c97bc6H
	DD	0c90b11f1H
	DD	0cc440774H
	DD	0cd866d43H
	DD	0cfc0d31aH
	DD	0ce02b92dH
	DD	091af9640H
	DD	0906dfc77H
	DD	0922b422eH
	DD	093e92819H
	DD	096a63e9cH
	DD	0976454abH
	DD	09522eaf2H
	DD	094e080c5H
	DD	09fbcc7f8H
	DD	09e7eadcfH
	DD	09c381396H
	DD	09dfa79a1H
	DD	098b56f24H
	DD	099770513H
	DD	09b31bb4aH
	DD	09af3d17dH
	DD	08d893530H
	DD	08c4b5f07H
	DD	08e0de15eH
	DD	08fcf8b69H
	DD	08a809decH
	DD	08b42f7dbH
	DD	089044982H
	DD	088c623b5H
	DD	0839a6488H
	DD	082580ebfH
	DD	0801eb0e6H
	DD	081dcdad1H
	DD	08493cc54H
	DD	08551a663H
	DD	08717183aH
	DD	086d5720dH
	DD	0a9e2d0a0H
	DD	0a820ba97H
	DD	0aa6604ceH
	DD	0aba46ef9H
	DD	0aeeb787cH
	DD	0af29124bH
	DD	0ad6fac12H
	DD	0acadc625H
	DD	0a7f18118H
	DD	0a633eb2fH
	DD	0a4755576H
	DD	0a5b73f41H
	DD	0a0f829c4H
	DD	0a13a43f3H
	DD	0a37cfdaaH
	DD	0a2be979dH
	DD	0b5c473d0H
	DD	0b40619e7H
	DD	0b640a7beH
	DD	0b782cd89H
	DD	0b2cddb0cH
	DD	0b30fb13bH
	DD	0b1490f62H
	DD	0b08b6555H
	DD	0bbd72268H
	DD	0ba15485fH
	DD	0b853f606H
	DD	0b9919c31H
	DD	0bcde8ab4H
	DD	0bd1ce083H
	DD	0bf5a5edaH
	DD	0be9834edH
	DD	00H
	DD	0b8bc6765H
	DD	0aa09c88bH
	DD	012b5afeeH
	DD	08f629757H
	DD	037def032H
	DD	0256b5fdcH
	DD	09dd738b9H
	DD	0c5b428efH
	DD	07d084f8aH
	DD	06fbde064H
	DD	0d7018701H
	DD	04ad6bfb8H
	DD	0f26ad8ddH
	DD	0e0df7733H
	DD	058631056H
	DD	05019579fH
	DD	0e8a530faH
	DD	0fa109f14H
	DD	042acf871H
	DD	0df7bc0c8H
	DD	067c7a7adH
	DD	075720843H
	DD	0cdce6f26H
	DD	095ad7f70H
	DD	02d111815H
	DD	03fa4b7fbH
	DD	08718d09eH
	DD	01acfe827H
	DD	0a2738f42H
	DD	0b0c620acH
	DD	087a47c9H
	DD	0a032af3eH
	DD	0188ec85bH
	DD	0a3b67b5H
	DD	0b28700d0H
	DD	02f503869H
	DD	097ec5f0cH
	DD	08559f0e2H
	DD	03de59787H
	DD	0658687d1H
	DD	0dd3ae0b4H
	DD	0cf8f4f5aH
	DD	07733283fH
	DD	0eae41086H
	DD	0525877e3H
	DD	040edd80dH
	DD	0f851bf68H
	DD	0f02bf8a1H
	DD	048979fc4H
	DD	05a22302aH
	DD	0e29e574fH
	DD	07f496ff6H
	DD	0c7f50893H
	DD	0d540a77dH
	DD	06dfcc018H
	DD	0359fd04eH
	DD	08d23b72bH
	DD	09f9618c5H
	DD	0272a7fa0H
	DD	0bafd4719H
	DD	0241207cH
	DD	010f48f92H
	DD	0a848e8f7H
	DD	09b14583dH
	DD	023a83f58H
	DD	0311d90b6H
	DD	089a1f7d3H
	DD	01476cf6aH
	DD	0accaa80fH
	DD	0be7f07e1H
	DD	06c36084H
	DD	05ea070d2H
	DD	0e61c17b7H
	DD	0f4a9b859H
	DD	04c15df3cH
	DD	0d1c2e785H
	DD	0697e80e0H
	DD	07bcb2f0eH
	DD	0c377486bH
	DD	0cb0d0fa2H
	DD	073b168c7H
	DD	06104c729H
	DD	0d9b8a04cH
	DD	0446f98f5H
	DD	0fcd3ff90H
	DD	0ee66507eH
	DD	056da371bH
	DD	0eb9274dH
	DD	0b6054028H
	DD	0a4b0efc6H
	DD	01c0c88a3H
	DD	081dbb01aH
	DD	03967d77fH
	DD	02bd27891H
	DD	0936e1ff4H
	DD	03b26f703H
	DD	0839a9066H
	DD	0912f3f88H
	DD	0299358edH
	DD	0b4446054H
	DD	0cf80731H
	DD	01e4da8dfH
	DD	0a6f1cfbaH
	DD	0fe92dfecH
	DD	0462eb889H
	DD	0549b1767H
	DD	0ec277002H
	DD	071f048bbH
	DD	0c94c2fdeH
	DD	0dbf98030H
	DD	06345e755H
	DD	06b3fa09cH
	DD	0d383c7f9H
	DD	0c1366817H
	DD	0798a0f72H
	DD	0e45d37cbH
	DD	05ce150aeH
	DD	04e54ff40H
	DD	0f6e89825H
	DD	0ae8b8873H
	DD	01637ef16H
	DD	048240f8H
	DD	0bc3e279dH
	DD	021e91f24H
	DD	099557841H
	DD	08be0d7afH
	DD	0335cb0caH
	DD	0ed59b63bH
	DD	055e5d15eH
	DD	047507eb0H
	DD	0ffec19d5H
	DD	0623b216cH
	DD	0da874609H
	DD	0c832e9e7H
	DD	0708e8e82H
	DD	028ed9ed4H
	DD	09051f9b1H
	DD	082e4565fH
	DD	03a58313aH
	DD	0a78f0983H
	DD	01f336ee6H
	DD	0d86c108H
	DD	0b53aa66dH
	DD	0bd40e1a4H
	DD	05fc86c1H
	DD	01749292fH
	DD	0aff54e4aH
	DD	0322276f3H
	DD	08a9e1196H
	DD	0982bbe78H
	DD	02097d91dH
	DD	078f4c94bH
	DD	0c048ae2eH
	DD	0d2fd01c0H
	DD	06a4166a5H
	DD	0f7965e1cH
	DD	04f2a3979H
	DD	05d9f9697H
	DD	0e523f1f2H
	DD	04d6b1905H
	DD	0f5d77e60H
	DD	0e762d18eH
	DD	05fdeb6ebH
	DD	0c2098e52H
	DD	07ab5e937H
	DD	0680046d9H
	DD	0d0bc21bcH
	DD	088df31eaH
	DD	03063568fH
	DD	022d6f961H
	DD	09a6a9e04H
	DD	07bda6bdH
	DD	0bf01c1d8H
	DD	0adb46e36H
	DD	015080953H
	DD	01d724e9aH
	DD	0a5ce29ffH
	DD	0b77b8611H
	DD	0fc7e174H
	DD	09210d9cdH
	DD	02aacbea8H
	DD	038191146H
	DD	080a57623H
	DD	0d8c66675H
	DD	0607a0110H
	DD	072cfaefeH
	DD	0ca73c99bH
	DD	057a4f122H
	DD	0ef189647H
	DD	0fdad39a9H
	DD	045115eccH
	DD	0764dee06H
	DD	0cef18963H
	DD	0dc44268dH
	DD	064f841e8H
	DD	0f92f7951H
	DD	041931e34H
	DD	05326b1daH
	DD	0eb9ad6bfH
	DD	0b3f9c6e9H
	DD	0b45a18cH
	DD	019f00e62H
	DD	0a14c6907H
	DD	03c9b51beH
	DD	0842736dbH
	DD	096929935H
	DD	02e2efe50H
	DD	02654b999H
	DD	09ee8defcH
	DD	08c5d7112H
	DD	034e11677H
	DD	0a9362eceH
	DD	0118a49abH
	DD	033fe645H
	DD	0bb838120H
	DD	0e3e09176H
	DD	05b5cf613H
	DD	049e959fdH
	DD	0f1553e98H
	DD	06c820621H
	DD	0d43e6144H
	DD	0c68bceaaH
	DD	07e37a9cfH
	DD	0d67f4138H
	DD	06ec3265dH
	DD	07c7689b3H
	DD	0c4caeed6H
	DD	0591dd66fH
	DD	0e1a1b10aH
	DD	0f3141ee4H
	DD	04ba87981H
	DD	013cb69d7H
	DD	0ab770eb2H
	DD	0b9c2a15cH
	DD	017ec639H
	DD	09ca9fe80H
	DD	0241599e5H
	DD	036a0360bH
	DD	08e1c516eH
	DD	0866616a7H
	DD	03eda71c2H
	DD	02c6fde2cH
	DD	094d3b949H
	DD	090481f0H
	DD	0b1b8e695H
	DD	0a30d497bH
	DD	01bb12e1eH
	DD	043d23e48H
	DD	0fb6e592dH
	DD	0e9dbf6c3H
	DD	0516791a6H
	DD	0ccb0a91fH
	DD	0740cce7aH
	DD	066b96194H
	DD	0de0506f1H
	DD	00H
	DD	03d6029b0H
	DD	07ac05360H
	DD	047a07ad0H
	DD	0f580a6c0H
	DD	0c8e08f70H
	DD	08f40f5a0H
	DD	0b220dc10H
	DD	030704bc1H
	DD	0d106271H
	DD	04ab018a1H
	DD	077d03111H
	DD	0c5f0ed01H
	DD	0f890c4b1H
	DD	0bf30be61H
	DD	0825097d1H
	DD	060e09782H
	DD	05d80be32H
	DD	01a20c4e2H
	DD	02740ed52H
	DD	095603142H
	DD	0a80018f2H
	DD	0efa06222H
	DD	0d2c04b92H
	DD	05090dc43H
	DD	06df0f5f3H
	DD	02a508f23H
	DD	01730a693H
	DD	0a5107a83H
	DD	098705333H
	DD	0dfd029e3H
	DD	0e2b00053H
	DD	0c1c12f04H
	DD	0fca106b4H
	DD	0bb017c64H
	DD	0866155d4H
	DD	0344189c4H
	DD	0921a074H
	DD	04e81daa4H
	DD	073e1f314H
	DD	0f1b164c5H
	DD	0ccd14d75H
	DD	08b7137a5H
	DD	0b6111e15H
	DD	0431c205H
	DD	03951ebb5H
	DD	07ef19165H
	DD	04391b8d5H
	DD	0a121b886H
	DD	09c419136H
	DD	0dbe1ebe6H
	DD	0e681c256H
	DD	054a11e46H
	DD	069c137f6H
	DD	02e614d26H
	DD	013016496H
	DD	09151f347H
	DD	0ac31daf7H
	DD	0eb91a027H
	DD	0d6f18997H
	DD	064d15587H
	DD	059b17c37H
	DD	01e1106e7H
	DD	023712f57H
	DD	058f35849H
	DD	0659371f9H
	DD	022330b29H
	DD	01f532299H
	DD	0ad73fe89H
	DD	09013d739H
	DD	0d7b3ade9H
	DD	0ead38459H
	DD	068831388H
	DD	055e33a38H
	DD	0124340e8H
	DD	02f236958H
	DD	09d03b548H
	DD	0a0639cf8H
	DD	0e7c3e628H
	DD	0daa3cf98H
	DD	03813cfcbH
	DD	0573e67bH
	DD	042d39cabH
	DD	07fb3b51bH
	DD	0cd93690bH
	DD	0f0f340bbH
	DD	0b7533a6bH
	DD	08a3313dbH
	DD	0863840aH
	DD	03503adbaH
	DD	072a3d76aH
	DD	04fc3fedaH
	DD	0fde322caH
	DD	0c0830b7aH
	DD	0872371aaH
	DD	0ba43581aH
	DD	09932774dH
	DD	0a4525efdH
	DD	0e3f2242dH
	DD	0de920d9dH
	DD	06cb2d18dH
	DD	051d2f83dH
	DD	0167282edH
	DD	02b12ab5dH
	DD	0a9423c8cH
	DD	09422153cH
	DD	0d3826fecH
	DD	0eee2465cH
	DD	05cc29a4cH
	DD	061a2b3fcH
	DD	02602c92cH
	DD	01b62e09cH
	DD	0f9d2e0cfH
	DD	0c4b2c97fH
	DD	08312b3afH
	DD	0be729a1fH
	DD	0c52460fH
	DD	031326fbfH
	DD	07692156fH
	DD	04bf23cdfH
	DD	0c9a2ab0eH
	DD	0f4c282beH
	DD	0b362f86eH
	DD	08e02d1deH
	DD	03c220dceH
	DD	0142247eH
	DD	046e25eaeH
	DD	07b82771eH
	DD	0b1e6b092H
	DD	08c869922H
	DD	0cb26e3f2H
	DD	0f646ca42H
	DD	044661652H
	DD	079063fe2H
	DD	03ea64532H
	DD	03c66c82H
	DD	08196fb53H
	DD	0bcf6d2e3H
	DD	0fb56a833H
	DD	0c6368183H
	DD	074165d93H
	DD	049767423H
	DD	0ed60ef3H
	DD	033b62743H
	DD	0d1062710H
	DD	0ec660ea0H
	DD	0abc67470H
	DD	096a65dc0H
	DD	0248681d0H
	DD	019e6a860H
	DD	05e46d2b0H
	DD	06326fb00H
	DD	0e1766cd1H
	DD	0dc164561H
	DD	09bb63fb1H
	DD	0a6d61601H
	DD	014f6ca11H
	DD	02996e3a1H
	DD	06e369971H
	DD	05356b0c1H
	DD	070279f96H
	DD	04d47b626H
	DD	0ae7ccf6H
	DD	03787e546H
	DD	085a73956H
	DD	0b8c710e6H
	DD	0ff676a36H
	DD	0c2074386H
	DD	04057d457H
	DD	07d37fde7H
	DD	03a978737H
	DD	07f7ae87H
	DD	0b5d77297H
	DD	088b75b27H
	DD	0cf1721f7H
	DD	0f2770847H
	DD	010c70814H
	DD	02da721a4H
	DD	06a075b74H
	DD	0576772c4H
	DD	0e547aed4H
	DD	0d8278764H
	DD	09f87fdb4H
	DD	0a2e7d404H
	DD	020b743d5H
	DD	01dd76a65H
	DD	05a7710b5H
	DD	067173905H
	DD	0d537e515H
	DD	0e857cca5H
	DD	0aff7b675H
	DD	092979fc5H
	DD	0e915e8dbH
	DD	0d475c16bH
	DD	093d5bbbbH
	DD	0aeb5920bH
	DD	01c954e1bH
	DD	021f567abH
	DD	066551d7bH
	DD	05b3534cbH
	DD	0d965a31aH
	DD	0e4058aaaH
	DD	0a3a5f07aH
	DD	09ec5d9caH
	DD	02ce505daH
	DD	011852c6aH
	DD	0562556baH
	DD	06b457f0aH
	DD	089f57f59H
	DD	0b49556e9H
	DD	0f3352c39H
	DD	0ce550589H
	DD	07c75d999H
	DD	04115f029H
	DD	06b58af9H
	DD	03bd5a349H
	DD	0b9853498H
	DD	084e51d28H
	DD	0c34567f8H
	DD	0fe254e48H
	DD	04c059258H
	DD	07165bbe8H
	DD	036c5c138H
	DD	0ba5e888H
	DD	028d4c7dfH
	DD	015b4ee6fH
	DD	0521494bfH
	DD	06f74bd0fH
	DD	0dd54611fH
	DD	0e03448afH
	DD	0a794327fH
	DD	09af41bcfH
	DD	018a48c1eH
	DD	025c4a5aeH
	DD	06264df7eH
	DD	05f04f6ceH
	DD	0ed242adeH
	DD	0d044036eH
	DD	097e479beH
	DD	0aa84500eH
	DD	04834505dH
	DD	0755479edH
	DD	032f4033dH
	DD	0f942a8dH
	DD	0bdb4f69dH
	DD	080d4df2dH
	DD	0c774a5fdH
	DD	0fa148c4dH
	DD	078441b9cH
	DD	04524322cH
	DD	028448fcH
	DD	03fe4614cH
	DD	08dc4bd5cH
	DD	0b0a494ecH
	DD	0f704ee3cH
	DD	0ca64c78cH
	DD	00H
	DD	0cb5cd3a5H
	DD	04dc8a10bH
	DD	0869472aeH
	DD	09b914216H
	DD	050cd91b3H
	DD	0d659e31dH
	DD	01d0530b8H
	DD	0ec53826dH
	DD	0270f51c8H
	DD	0a19b2366H
	DD	06ac7f0c3H
	DD	077c2c07bH
	DD	0bc9e13deH
	DD	03a0a6170H
	DD	0f156b2d5H
	DD	03d6029bH
	DD	0c88ad13eH
	DD	04e1ea390H
	DD	085427035H
	DD	09847408dH
	DD	0531b9328H
	DD	0d58fe186H
	DD	01ed33223H
	DD	0ef8580f6H
	DD	024d95353H
	DD	0a24d21fdH
	DD	06911f258H
	DD	07414c2e0H
	DD	0bf481145H
	DD	039dc63ebH
	DD	0f280b04eH
	DD	07ac0536H
	DD	0ccf0d693H
	DD	04a64a43dH
	DD	081387798H
	DD	09c3d4720H
	DD	057619485H
	DD	0d1f5e62bH
	DD	01aa9358eH
	DD	0ebff875bH
	DD	020a354feH
	DD	0a6372650H
	DD	06d6bf5f5H
	DD	0706ec54dH
	DD	0bb3216e8H
	DD	03da66446H
	DD	0f6fab7e3H
	DD	047a07adH
	DD	0cf26d408H
	DD	049b2a6a6H
	DD	082ee7503H
	DD	09feb45bbH
	DD	054b7961eH
	DD	0d223e4b0H
	DD	0197f3715H
	DD	0e82985c0H
	DD	023755665H
	DD	0a5e124cbH
	DD	06ebdf76eH
	DD	073b8c7d6H
	DD	0b8e41473H
	DD	03e7066ddH
	DD	0f52cb578H
	DD	0f580a6cH
	DD	0c404d9c9H
	DD	04290ab67H
	DD	089cc78c2H
	DD	094c9487aH
	DD	05f959bdfH
	DD	0d901e971H
	DD	0125d3ad4H
	DD	0e30b8801H
	DD	028575ba4H
	DD	0aec3290aH
	DD	0659ffaafH
	DD	0789aca17H
	DD	0b3c619b2H
	DD	035526b1cH
	DD	0fe0eb8b9H
	DD	0c8e08f7H
	DD	0c7d2db52H
	DD	04146a9fcH
	DD	08a1a7a59H
	DD	0971f4ae1H
	DD	05c439944H
	DD	0dad7ebeaH
	DD	0118b384fH
	DD	0e0dd8a9aH
	DD	02b81593fH
	DD	0ad152b91H
	DD	06649f834H
	DD	07b4cc88cH
	DD	0b0101b29H
	DD	036846987H
	DD	0fdd8ba22H
	DD	08f40f5aH
	DD	0c3a8dcffH
	DD	0453cae51H
	DD	08e607df4H
	DD	093654d4cH
	DD	058399ee9H
	DD	0deadec47H
	DD	015f13fe2H
	DD	0e4a78d37H
	DD	02ffb5e92H
	DD	0a96f2c3cH
	DD	06233ff99H
	DD	07f36cf21H
	DD	0b46a1c84H
	DD	032fe6e2aH
	DD	0f9a2bd8fH
	DD	0b220dc1H
	DD	0c07ede64H
	DD	046eaaccaH
	DD	08db67f6fH
	DD	090b34fd7H
	DD	05bef9c72H
	DD	0dd7beedcH
	DD	016273d79H
	DD	0e7718facH
	DD	02c2d5c09H
	DD	0aab92ea7H
	DD	061e5fd02H
	DD	07ce0cdbaH
	DD	0b7bc1e1fH
	DD	031286cb1H
	DD	0fa74bf14H
	DD	01eb014d8H
	DD	0d5ecc77dH
	DD	05378b5d3H
	DD	098246676H
	DD	0852156ceH
	DD	04e7d856bH
	DD	0c8e9f7c5H
	DD	03b52460H
	DD	0f2e396b5H
	DD	039bf4510H
	DD	0bf2b37beH
	DD	07477e41bH
	DD	06972d4a3H
	DD	0a22e0706H
	DD	024ba75a8H
	DD	0efe6a60dH
	DD	01d661643H
	DD	0d63ac5e6H
	DD	050aeb748H
	DD	09bf264edH
	DD	086f75455H
	DD	04dab87f0H
	DD	0cb3ff55eH
	DD	06326fbH
	DD	0f135942eH
	DD	03a69478bH
	DD	0bcfd3525H
	DD	077a1e680H
	DD	06aa4d638H
	DD	0a1f8059dH
	DD	0276c7733H
	DD	0ec30a496H
	DD	0191c11eeH
	DD	0d240c24bH
	DD	054d4b0e5H
	DD	09f886340H
	DD	0828d53f8H
	DD	049d1805dH
	DD	0cf45f2f3H
	DD	04192156H
	DD	0f54f9383H
	DD	03e134026H
	DD	0b8873288H
	DD	073dbe12dH
	DD	06eded195H
	DD	0a5820230H
	DD	02316709eH
	DD	0e84aa33bH
	DD	01aca1375H
	DD	0d196c0d0H
	DD	05702b27eH
	DD	09c5e61dbH
	DD	0815b5163H
	DD	04a0782c6H
	DD	0cc93f068H
	DD	07cf23cdH
	DD	0f6999118H
	DD	03dc542bdH
	DD	0bb513013H
	DD	0700de3b6H
	DD	06d08d30eH
	DD	0a65400abH
	DD	020c07205H
	DD	0eb9ca1a0H
	DD	011e81eb4H
	DD	0dab4cd11H
	DD	05c20bfbfH
	DD	0977c6c1aH
	DD	08a795ca2H
	DD	041258f07H
	DD	0c7b1fda9H
	DD	0ced2e0cH
	DD	0fdbb9cd9H
	DD	036e74f7cH
	DD	0b0733dd2H
	DD	07b2fee77H
	DD	0662adecfH
	DD	0ad760d6aH
	DD	02be27fc4H
	DD	0e0beac61H
	DD	0123e1c2fH
	DD	0d962cf8aH
	DD	05ff6bd24H
	DD	094aa6e81H
	DD	089af5e39H
	DD	042f38d9cH
	DD	0c467ff32H
	DD	0f3b2c97H
	DD	0fe6d9e42H
	DD	035314de7H
	DD	0b3a53f49H
	DD	078f9ececH
	DD	065fcdc54H
	DD	0aea00ff1H
	DD	028347d5fH
	DD	0e368aefaH
	DD	016441b82H
	DD	0dd18c827H
	DD	05b8cba89H
	DD	090d0692cH
	DD	08dd55994H
	DD	046898a31H
	DD	0c01df89fH
	DD	0b412b3aH
	DD	0fa1799efH
	DD	0314b4a4aH
	DD	0b7df38e4H
	DD	07c83eb41H
	DD	06186dbf9H
	DD	0aada085cH
	DD	02c4e7af2H
	DD	0e712a957H
	DD	015921919H
	DD	0dececabcH
	DD	0585ab812H
	DD	093066bb7H
	DD	08e035b0fH
	DD	0455f88aaH
	DD	0c3cbfa04H
	DD	089729a1H
	DD	0f9c19b74H
	DD	0329d48d1H
	DD	0b4093a7fH
	DD	07f55e9daH
	DD	06250d962H
	DD	0a90c0ac7H
	DD	02f987869H
	DD	0e4c4abccH
	DD	00H
	DD	0a6770bb4H
	DD	0979f1129H
	DD	031e81a9dH
	DD	0f44f2413H
	DD	052382fa7H
	DD	063d0353aH
	DD	0c5a73e8eH
	DD	033ef4e67H
	DD	0959845d3H
	DD	0a4705f4eH
	DD	020754faH
	DD	0c7a06a74H
	DD	061d761c0H
	DD	0503f7b5dH
	DD	0f64870e9H
	DD	067de9cceH
	DD	0c1a9977aH
	DD	0f0418de7H
	DD	056368653H
	DD	09391b8ddH
	DD	035e6b369H
	DD	040ea9f4H
	DD	0a279a240H
	DD	05431d2a9H
	DD	0f246d91dH
	DD	0c3aec380H
	DD	065d9c834H
	DD	0a07ef6baH
	DD	0609fd0eH
	DD	037e1e793H
	DD	09196ec27H
	DD	0cfbd399cH
	DD	069ca3228H
	DD	0582228b5H
	DD	0fe552301H
	DD	03bf21d8fH
	DD	09d85163bH
	DD	0ac6d0ca6H
	DD	0a1a0712H
	DD	0fc5277fbH
	DD	05a257c4fH
	DD	06bcd66d2H
	DD	0cdba6d66H
	DD	081d53e8H
	DD	0ae6a585cH
	DD	09f8242c1H
	DD	039f54975H
	DD	0a863a552H
	DD	0e14aee6H
	DD	03ffcb47bH
	DD	0998bbfcfH
	DD	05c2c8141H
	DD	0fa5b8af5H
	DD	0cbb39068H
	DD	06dc49bdcH
	DD	09b8ceb35H
	DD	03dfbe081H
	DD	0c13fa1cH
	DD	0aa64f1a8H
	DD	06fc3cf26H
	DD	0c9b4c492H
	DD	0f85cde0fH
	DD	05e2bd5bbH
	DD	0440b7579H
	DD	0e27c7ecdH
	DD	0d3946450H
	DD	075e36fe4H
	DD	0b044516aH
	DD	016335adeH
	DD	027db4043H
	DD	081ac4bf7H
	DD	077e43b1eH
	DD	0d19330aaH
	DD	0e07b2a37H
	DD	0460c2183H
	DD	083ab1f0dH
	DD	025dc14b9H
	DD	014340e24H
	DD	0b2430590H
	DD	023d5e9b7H
	DD	085a2e203H
	DD	0b44af89eH
	DD	0123df32aH
	DD	0d79acda4H
	DD	071edc610H
	DD	04005dc8dH
	DD	0e672d739H
	DD	0103aa7d0H
	DD	0b64dac64H
	DD	087a5b6f9H
	DD	021d2bd4dH
	DD	0e47583c3H
	DD	042028877H
	DD	073ea92eaH
	DD	0d59d995eH
	DD	08bb64ce5H
	DD	02dc14751H
	DD	01c295dccH
	DD	0ba5e5678H
	DD	07ff968f6H
	DD	0d98e6342H
	DD	0e86679dfH
	DD	04e11726bH
	DD	0b8590282H
	DD	01e2e0936H
	DD	02fc613abH
	DD	089b1181fH
	DD	04c162691H
	DD	0ea612d25H
	DD	0db8937b8H
	DD	07dfe3c0cH
	DD	0ec68d02bH
	DD	04a1fdb9fH
	DD	07bf7c102H
	DD	0dd80cab6H
	DD	01827f438H
	DD	0be50ff8cH
	DD	08fb8e511H
	DD	029cfeea5H
	DD	0df879e4cH
	DD	079f095f8H
	DD	048188f65H
	DD	0ee6f84d1H
	DD	02bc8ba5fH
	DD	08dbfb1ebH
	DD	0bc57ab76H
	DD	01a20a0c2H
	DD	08816eaf2H
	DD	02e61e146H
	DD	01f89fbdbH
	DD	0b9fef06fH
	DD	07c59cee1H
	DD	0da2ec555H
	DD	0ebc6dfc8H
	DD	04db1d47cH
	DD	0bbf9a495H
	DD	01d8eaf21H
	DD	02c66b5bcH
	DD	08a11be08H
	DD	04fb68086H
	DD	0e9c18b32H
	DD	0d82991afH
	DD	07e5e9a1bH
	DD	0efc8763cH
	DD	049bf7d88H
	DD	078576715H
	DD	0de206ca1H
	DD	01b87522fH
	DD	0bdf0599bH
	DD	08c184306H
	DD	02a6f48b2H
	DD	0dc27385bH
	DD	07a5033efH
	DD	04bb82972H
	DD	0edcf22c6H
	DD	028681c48H
	DD	08e1f17fcH
	DD	0bff70d61H
	DD	0198006d5H
	DD	047abd36eH
	DD	0e1dcd8daH
	DD	0d034c247H
	DD	07643c9f3H
	DD	0b3e4f77dH
	DD	01593fcc9H
	DD	0247be654H
	DD	0820cede0H
	DD	074449d09H
	DD	0d23396bdH
	DD	0e3db8c20H
	DD	045ac8794H
	DD	0800bb91aH
	DD	0267cb2aeH
	DD	01794a833H
	DD	0b1e3a387H
	DD	020754fa0H
	DD	086024414H
	DD	0b7ea5e89H
	DD	0119d553dH
	DD	0d43a6bb3H
	DD	0724d6007H
	DD	043a57a9aH
	DD	0e5d2712eH
	DD	0139a01c7H
	DD	0b5ed0a73H
	DD	0840510eeH
	DD	022721b5aH
	DD	0e7d525d4H
	DD	041a22e60H
	DD	0704a34fdH
	DD	0d63d3f49H
	DD	0cc1d9f8bH
	DD	06a6a943fH
	DD	05b828ea2H
	DD	0fdf58516H
	DD	03852bb98H
	DD	09e25b02cH
	DD	0afcdaab1H
	DD	09baa105H
	DD	0fff2d1ecH
	DD	05985da58H
	DD	0686dc0c5H
	DD	0ce1acb71H
	DD	0bbdf5ffH
	DD	0adcafe4bH
	DD	09c22e4d6H
	DD	03a55ef62H
	DD	0abc30345H
	DD	0db408f1H
	DD	03c5c126cH
	DD	09a2b19d8H
	DD	05f8c2756H
	DD	0f9fb2ce2H
	DD	0c813367fH
	DD	06e643dcbH
	DD	0982c4d22H
	DD	03e5b4696H
	DD	0fb35c0bH
	DD	0a9c457bfH
	DD	06c636931H
	DD	0ca146285H
	DD	0fbfc7818H
	DD	05d8b73acH
	DD	03a0a617H
	DD	0a5d7ada3H
	DD	0943fb73eH
	DD	03248bc8aH
	DD	0f7ef8204H
	DD	0519889b0H
	DD	06070932dH
	DD	0c6079899H
	DD	0304fe870H
	DD	09638e3c4H
	DD	0a7d0f959H
	DD	01a7f2edH
	DD	0c400cc63H
	DD	06277c7d7H
	DD	0539fdd4aH
	DD	0f5e8d6feH
	DD	0647e3ad9H
	DD	0c209316dH
	DD	0f3e12bf0H
	DD	055962044H
	DD	090311ecaH
	DD	03646157eH
	DD	07ae0fe3H
	DD	0a1d90457H
	DD	0579174beH
	DD	0f1e67f0aH
	DD	0c00e6597H
	DD	066796e23H
	DD	0a3de50adH
	DD	05a95b19H
	DD	034414184H
	DD	092364a30H
	DD	00H
	DD	0ccaa009eH
	DD	04225077dH
	DD	08e8f07e3H
	DD	0844a0efaH
	DD	048e00e64H
	DD	0c66f0987H
	DD	0ac50919H
	DD	0d3e51bb5H
	DD	01f4f1b2bH
	DD	091c01cc8H
	DD	05d6a1c56H
	DD	057af154fH
	DD	09b0515d1H
	DD	0158a1232H
	DD	0d92012acH
	DD	07cbb312bH
	DD	0b01131b5H
	DD	03e9e3656H
	DD	0f23436c8H
	DD	0f8f13fd1H
	DD	0345b3f4fH
	DD	0bad438acH
	DD	0767e3832H
	DD	0af5e2a9eH
	DD	063f42a00H
	DD	0ed7b2de3H
	DD	021d12d7dH
	DD	02b142464H
	DD	0e7be24faH
	DD	069312319H
	DD	0a59b2387H
	DD	0f9766256H
	DD	035dc62c8H
	DD	0bb53652bH
	DD	077f965b5H
	DD	07d3c6cacH
	DD	0b1966c32H
	DD	03f196bd1H
	DD	0f3b36b4fH
	DD	02a9379e3H
	DD	0e639797dH
	DD	068b67e9eH
	DD	0a41c7e00H
	DD	0aed97719H
	DD	062737787H
	DD	0ecfc7064H
	DD	0205670faH
	DD	085cd537dH
	DD	0496753e3H
	DD	0c7e85400H
	DD	0b42549eH
	DD	01875d87H
	DD	0cd2d5d19H
	DD	043a25afaH
	DD	08f085a64H
	DD	0562848c8H
	DD	09a824856H
	DD	0140d4fb5H
	DD	0d8a74f2bH
	DD	0d2624632H
	DD	01ec846acH
	DD	09047414fH
	DD	05ced41d1H
	DD	0299dc2edH
	DD	0e537c273H
	DD	06bb8c590H
	DD	0a712c50eH
	DD	0add7cc17H
	DD	0617dcc89H
	DD	0eff2cb6aH
	DD	02358cbf4H
	DD	0fa78d958H
	DD	036d2d9c6H
	DD	0b85dde25H
	DD	074f7debbH
	DD	07e32d7a2H
	DD	0b298d73cH
	DD	03c17d0dfH
	DD	0f0bdd041H
	DD	05526f3c6H
	DD	0998cf358H
	DD	01703f4bbH
	DD	0dba9f425H
	DD	0d16cfd3cH
	DD	01dc6fda2H
	DD	09349fa41H
	DD	05fe3fadfH
	DD	086c3e873H
	DD	04a69e8edH
	DD	0c4e6ef0eH
	DD	084cef90H
	DD	0289e689H
	DD	0ce23e617H
	DD	040ace1f4H
	DD	08c06e16aH
	DD	0d0eba0bbH
	DD	01c41a025H
	DD	092cea7c6H
	DD	05e64a758H
	DD	054a1ae41H
	DD	0980baedfH
	DD	01684a93cH
	DD	0da2ea9a2H
	DD	030ebb0eH
	DD	0cfa4bb90H
	DD	0412bbc73H
	DD	08d81bcedH
	DD	08744b5f4H
	DD	04beeb56aH
	DD	0c561b289H
	DD	09cbb217H
	DD	0ac509190H
	DD	060fa910eH
	DD	0ee7596edH
	DD	022df9673H
	DD	0281a9f6aH
	DD	0e4b09ff4H
	DD	06a3f9817H
	DD	0a6959889H
	DD	07fb58a25H
	DD	0b31f8abbH
	DD	03d908d58H
	DD	0f13a8dc6H
	DD	0fbff84dfH
	DD	037558441H
	DD	0b9da83a2H
	DD	07570833cH
	DD	0533b85daH
	DD	09f918544H
	DD	0111e82a7H
	DD	0ddb48239H
	DD	0d7718b20H
	DD	01bdb8bbeH
	DD	095548c5dH
	DD	059fe8cc3H
	DD	080de9e6fH
	DD	04c749ef1H
	DD	0c2fb9912H
	DD	0e51998cH
	DD	04949095H
	DD	0c83e900bH
	DD	046b197e8H
	DD	08a1b9776H
	DD	02f80b4f1H
	DD	0e32ab46fH
	DD	06da5b38cH
	DD	0a10fb312H
	DD	0abcaba0bH
	DD	06760ba95H
	DD	0e9efbd76H
	DD	02545bde8H
	DD	0fc65af44H
	DD	030cfafdaH
	DD	0be40a839H
	DD	072eaa8a7H
	DD	0782fa1beH
	DD	0b485a120H
	DD	03a0aa6c3H
	DD	0f6a0a65dH
	DD	0aa4de78cH
	DD	066e7e712H
	DD	0e868e0f1H
	DD	024c2e06fH
	DD	02e07e976H
	DD	0e2ade9e8H
	DD	06c22ee0bH
	DD	0a088ee95H
	DD	079a8fc39H
	DD	0b502fca7H
	DD	03b8dfb44H
	DD	0f727fbdaH
	DD	0fde2f2c3H
	DD	03148f25dH
	DD	0bfc7f5beH
	DD	0736df520H
	DD	0d6f6d6a7H
	DD	01a5cd639H
	DD	094d3d1daH
	DD	05879d144H
	DD	052bcd85dH
	DD	09e16d8c3H
	DD	01099df20H
	DD	0dc33dfbeH
	DD	0513cd12H
	DD	0c9b9cd8cH
	DD	04736ca6fH
	DD	08b9ccaf1H
	DD	08159c3e8H
	DD	04df3c376H
	DD	0c37cc495H
	DD	0fd6c40bH
	DD	07aa64737H
	DD	0b60c47a9H
	DD	03883404aH
	DD	0f42940d4H
	DD	0feec49cdH
	DD	032464953H
	DD	0bcc94eb0H
	DD	070634e2eH
	DD	0a9435c82H
	DD	065e95c1cH
	DD	0eb665bffH
	DD	027cc5b61H
	DD	02d095278H
	DD	0e1a352e6H
	DD	06f2c5505H
	DD	0a386559bH
	DD	061d761cH
	DD	0cab77682H
	DD	044387161H
	DD	0889271ffH
	DD	0825778e6H
	DD	04efd7878H
	DD	0c0727f9bH
	DD	0cd87f05H
	DD	0d5f86da9H
	DD	019526d37H
	DD	097dd6ad4H
	DD	05b776a4aH
	DD	051b26353H
	DD	09d1863cdH
	DD	01397642eH
	DD	0df3d64b0H
	DD	083d02561H
	DD	04f7a25ffH
	DD	0c1f5221cH
	DD	0d5f2282H
	DD	079a2b9bH
	DD	0cb302b05H
	DD	045bf2ce6H
	DD	089152c78H
	DD	050353ed4H
	DD	09c9f3e4aH
	DD	0121039a9H
	DD	0deba3937H
	DD	0d47f302eH
	DD	018d530b0H
	DD	0965a3753H
	DD	05af037cdH
	DD	0ff6b144aH
	DD	033c114d4H
	DD	0bd4e1337H
	DD	071e413a9H
	DD	07b211ab0H
	DD	0b78b1a2eH
	DD	039041dcdH
	DD	0f5ae1d53H
	DD	02c8e0fffH
	DD	0e0240f61H
	DD	06eab0882H
	DD	0a201081cH
	DD	0a8c40105H
	DD	0646e019bH
	DD	0eae10678H
	DD	0264b06e6H
END
