; Listing generated by Microsoft (R) Optimizing Compiler Version 15.00.30729.01 

include listing.inc

INCLUDELIB OLDNAMES

PUBLIC	lzma_easy_preset
;	COMDAT pdata
; File d:\sdk\c\library\algorithms\information theory and signal processing\coding theory\lossless compression algorithms\dictionary coders\lempel–ziv\lempel–ziv–markov chain (lzma)\xz\src\c89\liblzma\common\easy_preset.c
pdata	SEGMENT
$pdata$lzma_easy_preset DD imagerel $LN4
	DD	imagerel $LN4+92
	DD	imagerel $unwind$lzma_easy_preset
pdata	ENDS
;	COMDAT xdata
xdata	SEGMENT
$unwind$lzma_easy_preset DD 010d01H
	DD	0420dH
; Function compile flags: /Odtp
xdata	ENDS
;	COMDAT lzma_easy_preset
_TEXT	SEGMENT
opt_easy$ = 48
preset$ = 56
lzma_easy_preset PROC					; COMDAT

; 18   : {

$LN4:
  00000	89 54 24 10	 mov	 DWORD PTR [rsp+16], edx
  00004	48 89 4c 24 08	 mov	 QWORD PTR [rsp+8], rcx
  00009	48 83 ec 28	 sub	 rsp, 40			; 00000028H

; 19   : 	if (lzma_lzma_preset(&opt_easy->opt_lzma, preset))

  0000d	48 8b 4c 24 30	 mov	 rcx, QWORD PTR opt_easy$[rsp]
  00012	48 83 c1 50	 add	 rcx, 80			; 00000050H
  00016	8b 54 24 38	 mov	 edx, DWORD PTR preset$[rsp]
  0001a	e8 00 00 00 00	 call	 lzma_lzma_preset
  0001f	0f b6 c0	 movzx	 eax, al
  00022	85 c0		 test	 eax, eax
  00024	74 04		 je	 SHORT $LN1@lzma_easy_

; 20   : 		return true;

  00026	b0 01		 mov	 al, 1
  00028	eb 2d		 jmp	 SHORT $LN2@lzma_easy_
$LN1@lzma_easy_:

; 21   : 
; 22   : 	opt_easy->filters[0].id = LZMA_FILTER_LZMA2;

  0002a	48 8b 44 24 30	 mov	 rax, QWORD PTR opt_easy$[rsp]
  0002f	48 c7 00 21 00
	00 00		 mov	 QWORD PTR [rax], 33	; 00000021H

; 23   : 	opt_easy->filters[0].options = &opt_easy->opt_lzma;

  00036	48 8b 4c 24 30	 mov	 rcx, QWORD PTR opt_easy$[rsp]
  0003b	48 83 c1 50	 add	 rcx, 80			; 00000050H
  0003f	48 8b 44 24 30	 mov	 rax, QWORD PTR opt_easy$[rsp]
  00044	48 89 48 08	 mov	 QWORD PTR [rax+8], rcx

; 24   : 	opt_easy->filters[1].id = LZMA_VLI_UNKNOWN;

  00048	48 8b 44 24 30	 mov	 rax, QWORD PTR opt_easy$[rsp]
  0004d	48 c7 40 10 ff
	ff ff ff	 mov	 QWORD PTR [rax+16], -1

; 25   : 
; 26   : 	return false;

  00055	32 c0		 xor	 al, al
$LN2@lzma_easy_:

; 27   : }

  00057	48 83 c4 28	 add	 rsp, 40			; 00000028H
  0005b	c3		 ret	 0
lzma_easy_preset ENDP
END
