; Listing generated by Microsoft (R) Optimizing Compiler Version 15.00.30729.01 

include listing.inc

INCLUDELIB OLDNAMES

PUBLIC	lzma_easy_encoder
;	COMDAT pdata
; File d:\projects\mpython\cpython89\externals\xz-5.2.3\src\c89\liblzma\common\easy_encoder.c
pdata	SEGMENT
$pdata$lzma_easy_encoder DD imagerel $LN4
	DD	imagerel $LN4+86
	DD	imagerel $unwind$lzma_easy_encoder
pdata	ENDS
;	COMDAT xdata
xdata	SEGMENT
$unwind$lzma_easy_encoder DD 021501H
	DD	01d0115H
; Function compile flags: /Odtp
xdata	ENDS
;	COMDAT lzma_easy_encoder
_TEXT	SEGMENT
opt_easy$ = 32
strm$ = 240
preset$ = 248
check$ = 256
lzma_easy_encoder PROC					; COMDAT

; 18   : {

$LN4:
  00000	44 89 44 24 18	 mov	 DWORD PTR [rsp+24], r8d
  00005	89 54 24 10	 mov	 DWORD PTR [rsp+16], edx
  00009	48 89 4c 24 08	 mov	 QWORD PTR [rsp+8], rcx
  0000e	48 81 ec e8 00
	00 00		 sub	 rsp, 232		; 000000e8H

; 19   : 	lzma_options_easy opt_easy;
; 20   : 	if (lzma_easy_preset(&opt_easy, preset))

  00015	8b 94 24 f8 00
	00 00		 mov	 edx, DWORD PTR preset$[rsp]
  0001c	48 8d 4c 24 20	 lea	 rcx, QWORD PTR opt_easy$[rsp]
  00021	e8 00 00 00 00	 call	 lzma_easy_preset
  00026	0f b6 c0	 movzx	 eax, al
  00029	85 c0		 test	 eax, eax
  0002b	74 07		 je	 SHORT $LN1@lzma_easy_@2

; 21   : 		return LZMA_OPTIONS_ERROR;

  0002d	b8 08 00 00 00	 mov	 eax, 8
  00032	eb 1a		 jmp	 SHORT $LN2@lzma_easy_@2
$LN1@lzma_easy_@2:

; 22   : 
; 23   : 	return lzma_stream_encoder(strm, opt_easy.filters, check);

  00034	44 8b 84 24 00
	01 00 00	 mov	 r8d, DWORD PTR check$[rsp]
  0003c	48 8d 54 24 20	 lea	 rdx, QWORD PTR opt_easy$[rsp]
  00041	48 8b 8c 24 f0
	00 00 00	 mov	 rcx, QWORD PTR strm$[rsp]
  00049	e8 00 00 00 00	 call	 lzma_stream_encoder
$LN2@lzma_easy_@2:

; 24   : }

  0004e	48 81 c4 e8 00
	00 00		 add	 rsp, 232		; 000000e8H
  00055	c3		 ret	 0
lzma_easy_encoder ENDP
END
