; Listing generated by Microsoft (R) Optimizing Compiler Version 15.00.30729.01 

include listing.inc

INCLUDELIB OLDNAMES

SHA256_K DD	0428a2f98H
	DD	071374491H
	DD	0b5c0fbcfH
	DD	0e9b5dba5H
	DD	03956c25bH
	DD	059f111f1H
	DD	0923f82a4H
	DD	0ab1c5ed5H
	DD	0d807aa98H
	DD	012835b01H
	DD	0243185beH
	DD	0550c7dc3H
	DD	072be5d74H
	DD	080deb1feH
	DD	09bdc06a7H
	DD	0c19bf174H
	DD	0e49b69c1H
	DD	0efbe4786H
	DD	0fc19dc6H
	DD	0240ca1ccH
	DD	02de92c6fH
	DD	04a7484aaH
	DD	05cb0a9dcH
	DD	076f988daH
	DD	0983e5152H
	DD	0a831c66dH
	DD	0b00327c8H
	DD	0bf597fc7H
	DD	0c6e00bf3H
	DD	0d5a79147H
	DD	06ca6351H
	DD	014292967H
	DD	027b70a85H
	DD	02e1b2138H
	DD	04d2c6dfcH
	DD	053380d13H
	DD	0650a7354H
	DD	0766a0abbH
	DD	081c2c92eH
	DD	092722c85H
	DD	0a2bfe8a1H
	DD	0a81a664bH
	DD	0c24b8b70H
	DD	0c76c51a3H
	DD	0d192e819H
	DD	0d6990624H
	DD	0f40e3585H
	DD	0106aa070H
	DD	019a4c116H
	DD	01e376c08H
	DD	02748774cH
	DD	034b0bcb5H
	DD	0391c0cb3H
	DD	04ed8aa4aH
	DD	05b9cca4fH
	DD	0682e6ff3H
	DD	0748f82eeH
	DD	078a5636fH
	DD	084c87814H
	DD	08cc70208H
	DD	090befffaH
	DD	0a4506cebH
	DD	0bef9a3f7H
	DD	0c67178f2H
?s@?1??lzma_sha256_init@@9@9 DD 06a09e667H		; `lzma_sha256_init'::`2'::s
	DD	0bb67ae85H
	DD	03c6ef372H
	DD	0a54ff53aH
	DD	0510e527fH
	DD	09b05688cH
	DD	01f83d9abH
	DD	05be0cd19H
PUBLIC	lzma_sha256_init
;	COMDAT pdata
; File d:\sdk\c\library\algorithms\information theory and signal processing\coding theory\lossless compression algorithms\dictionary coders\lempel–ziv\lempel–ziv–markov chain (lzma)\xz\src\c89\liblzma\check\sha256.c
pdata	SEGMENT
$pdata$lzma_sha256_init DD imagerel $LN3
	DD	imagerel $LN3+54
	DD	imagerel $unwind$lzma_sha256_init
pdata	ENDS
;	COMDAT xdata
xdata	SEGMENT
$unwind$lzma_sha256_init DD 010901H
	DD	04209H
; Function compile flags: /Odtp
xdata	ENDS
;	COMDAT lzma_sha256_init
_TEXT	SEGMENT
check$ = 48
lzma_sha256_init PROC					; COMDAT

; 131  : {

$LN3:
  00000	48 89 4c 24 08	 mov	 QWORD PTR [rsp+8], rcx
  00005	48 83 ec 28	 sub	 rsp, 40			; 00000028H

; 132  : 	static const uint32_t s[8] = {
; 133  : 		0x6A09E667, 0xBB67AE85, 0x3C6EF372, 0xA54FF53A,
; 134  : 		0x510E527F, 0x9B05688C, 0x1F83D9AB, 0x5BE0CD19,
; 135  : 	};
; 136  : 
; 137  : 	memcpy(check->state.sha256.state, s, sizeof(s));

  00009	48 8b 4c 24 30	 mov	 rcx, QWORD PTR check$[rsp]
  0000e	48 83 c1 40	 add	 rcx, 64			; 00000040H
  00012	41 b8 20 00 00
	00		 mov	 r8d, 32			; 00000020H
  00018	48 8d 15 00 00
	00 00		 lea	 rdx, OFFSET FLAT:?s@?1??lzma_sha256_init@@9@9
  0001f	e8 00 00 00 00	 call	 memcpy

; 138  : 	check->state.sha256.size = 0;

  00024	4c 8b 5c 24 30	 mov	 r11, QWORD PTR check$[rsp]
  00029	49 c7 43 60 00
	00 00 00	 mov	 QWORD PTR [r11+96], 0

; 139  : 
; 140  : 	return;
; 141  : }

  00031	48 83 c4 28	 add	 rsp, 40			; 00000028H
  00035	c3		 ret	 0
lzma_sha256_init ENDP
; Function compile flags: /Odtp
_TEXT	ENDS
;	COMDAT rotr_32
_TEXT	SEGMENT
num$ = 8
amount$ = 16
rotr_32	PROC						; COMDAT

; 30   : {

  00000	89 54 24 10	 mov	 DWORD PTR [rsp+16], edx
  00004	89 4c 24 08	 mov	 DWORD PTR [rsp+8], ecx

; 31   :         return (num >> amount) | (num << (32 - amount));

  00008	8b 44 24 10	 mov	 eax, DWORD PTR amount$[rsp]
  0000c	0f b6 c8	 movzx	 ecx, al
  0000f	8b 54 24 08	 mov	 edx, DWORD PTR num$[rsp]
  00013	d3 ea		 shr	 edx, cl
  00015	b8 20 00 00 00	 mov	 eax, 32			; 00000020H
  0001a	2b 44 24 10	 sub	 eax, DWORD PTR amount$[rsp]
  0001e	0f b6 c8	 movzx	 ecx, al
  00021	8b 44 24 08	 mov	 eax, DWORD PTR num$[rsp]
  00025	d3 e0		 shl	 eax, cl
  00027	8b c8		 mov	 ecx, eax
  00029	8b c2		 mov	 eax, edx
  0002b	0b c1		 or	 eax, ecx

; 32   : }

  0002d	c3		 ret	 0
rotr_32	ENDP
;	COMDAT pdata
pdata	SEGMENT
$pdata$transform DD imagerel transform
	DD	imagerel transform+16520
	DD	imagerel $unwind$transform
pdata	ENDS
;	COMDAT xdata
xdata	SEGMENT
$unwind$transform DD 021101H
	DD	0830111H
; Function compile flags: /Odtp
xdata	ENDS
;	COMDAT transform
_TEXT	SEGMENT
T$ = 32
W$ = 64
j$32935 = 128
$T36151 = 132
$T36155 = 136
$T36159 = 140
$T36163 = 144
$T36167 = 148
$T36171 = 152
$T36175 = 156
$T36179 = 160
$T36183 = 164
$T36187 = 168
$T36191 = 172
$T36195 = 176
$T36199 = 180
$T36203 = 184
$T36207 = 188
$T36211 = 192
$T36215 = 196
$T36219 = 200
$T36223 = 204
$T36227 = 208
$T36231 = 212
$T36235 = 216
$T36239 = 220
$T36243 = 224
$T36247 = 228
$T36251 = 232
$T36255 = 236
$T36259 = 240
$T36263 = 244
$T36267 = 248
$T36271 = 252
$T36275 = 256
$T36279 = 260
$T36283 = 264
$T36287 = 268
$T36291 = 272
$T36295 = 276
$T36299 = 280
$T36303 = 284
$T36307 = 288
$T36311 = 292
$T36315 = 296
$T36319 = 300
$T36323 = 304
$T36327 = 308
$T36331 = 312
$T36335 = 316
$T36339 = 320
$T36343 = 324
$T36347 = 328
$T36351 = 332
$T36355 = 336
$T36359 = 340
$T36363 = 344
$T36367 = 348
$T36371 = 352
$T36375 = 356
$T36379 = 360
$T36383 = 364
$T36387 = 368
$T36391 = 372
$T36395 = 376
$T36399 = 380
$T36403 = 384
$T36407 = 388
$T36411 = 392
$T36415 = 396
$T36419 = 400
$T36423 = 404
$T36427 = 408
$T36431 = 412
$T36435 = 416
$T36439 = 420
$T36443 = 424
$T36447 = 428
$T36451 = 432
$T36455 = 436
$T36459 = 440
$T36463 = 444
$T36467 = 448
$T36471 = 452
$T36475 = 456
$T36479 = 460
$T36483 = 464
$T36487 = 468
$T36491 = 472
$T36495 = 476
$T36499 = 480
$T36503 = 484
$T36507 = 488
$T36511 = 492
$T36515 = 496
$T36519 = 500
$T36523 = 504
$T36527 = 508
$T36531 = 512
$T36538 = 516
$T36545 = 520
$T36549 = 524
$T36553 = 528
$T36557 = 532
$T36561 = 536
$T36565 = 540
$T36569 = 544
$T36576 = 548
$T36583 = 552
$T36587 = 556
$T36591 = 560
$T36595 = 564
$T36599 = 568
$T36603 = 572
$T36607 = 576
$T36614 = 580
$T36621 = 584
$T36625 = 588
$T36629 = 592
$T36633 = 596
$T36637 = 600
$T36641 = 604
$T36645 = 608
$T36652 = 612
$T36659 = 616
$T36663 = 620
$T36667 = 624
$T36671 = 628
$T36675 = 632
$T36679 = 636
$T36683 = 640
$T36690 = 644
$T36697 = 648
$T36701 = 652
$T36705 = 656
$T36709 = 660
$T36713 = 664
$T36717 = 668
$T36721 = 672
$T36728 = 676
$T36735 = 680
$T36739 = 684
$T36743 = 688
$T36747 = 692
$T36751 = 696
$T36755 = 700
$T36759 = 704
$T36766 = 708
$T36773 = 712
$T36777 = 716
$T36781 = 720
$T36785 = 724
$T36789 = 728
$T36793 = 732
$T36797 = 736
$T36804 = 740
$T36811 = 744
$T36815 = 748
$T36819 = 752
$T36823 = 756
$T36827 = 760
$T36831 = 764
$T36835 = 768
$T36842 = 772
$T36849 = 776
$T36853 = 780
$T36857 = 784
$T36861 = 788
$T36865 = 792
$T36869 = 796
$T36873 = 800
$T36880 = 804
$T36887 = 808
$T36891 = 812
$T36895 = 816
$T36899 = 820
$T36903 = 824
$T36907 = 828
$T36911 = 832
$T36918 = 836
$T36925 = 840
$T36929 = 844
$T36933 = 848
$T36937 = 852
$T36941 = 856
$T36945 = 860
$T36949 = 864
$T36956 = 868
$T36963 = 872
$T36967 = 876
$T36971 = 880
$T36975 = 884
$T36979 = 888
$T36983 = 892
$T36987 = 896
$T36994 = 900
$T37001 = 904
$T37005 = 908
$T37009 = 912
$T37013 = 916
$T37017 = 920
$T37021 = 924
$T37025 = 928
$T37032 = 932
$T37039 = 936
$T37043 = 940
$T37047 = 944
$T37051 = 948
$T37055 = 952
$T37059 = 956
$T37063 = 960
$T37070 = 964
$T37077 = 968
$T37081 = 972
$T37085 = 976
$T37089 = 980
$T37093 = 984
$T37097 = 988
$T37101 = 992
$T37108 = 996
$T37115 = 1000
$T37119 = 1004
$T37123 = 1008
$T37127 = 1012
$T37131 = 1016
$T37135 = 1020
$T37139 = 1024
state$ = 1056
data$ = 1064
transform PROC						; COMDAT

; 85   : {

  00000	48 89 54 24 10	 mov	 QWORD PTR [rsp+16], rdx
  00005	48 89 4c 24 08	 mov	 QWORD PTR [rsp+8], rcx
  0000a	48 81 ec 18 04
	00 00		 sub	 rsp, 1048		; 00000418H

; 86   : 	uint32_t W[16];
; 87   : 	uint32_t T[8];
; 88   : 
; 89   : 	// Copy state[] to working vars.
; 90   : 	memcpy(T, state, sizeof(T));

  00011	41 b8 20 00 00
	00		 mov	 r8d, 32			; 00000020H
  00017	48 8b 94 24 20
	04 00 00	 mov	 rdx, QWORD PTR state$[rsp]
  0001f	48 8d 4c 24 20	 lea	 rcx, QWORD PTR T$[rsp]
  00024	e8 00 00 00 00	 call	 memcpy

; 91   : 
; 92   : 	// The first 16 operations unrolled
; 93   : 	R0( 0); R0( 1); R0( 2); R0( 3);

  00029	4c 8b 9c 24 28
	04 00 00	 mov	 r11, QWORD PTR data$[rsp]
  00031	41 8b 13	 mov	 edx, DWORD PTR [r11]
  00034	c1 e2 18	 shl	 edx, 24
  00037	48 8b 84 24 28
	04 00 00	 mov	 rax, QWORD PTR data$[rsp]
  0003f	8b 00		 mov	 eax, DWORD PTR [rax]
  00041	c1 e0 08	 shl	 eax, 8
  00044	25 00 00 ff 00	 and	 eax, 16711680		; 00ff0000H
  00049	0b d0		 or	 edx, eax
  0004b	48 8b 84 24 28
	04 00 00	 mov	 rax, QWORD PTR data$[rsp]
  00053	8b 00		 mov	 eax, DWORD PTR [rax]
  00055	c1 e8 08	 shr	 eax, 8
  00058	25 00 ff 00 00	 and	 eax, 65280		; 0000ff00H
  0005d	0b d0		 or	 edx, eax
  0005f	48 8b 84 24 28
	04 00 00	 mov	 rax, QWORD PTR data$[rsp]
  00067	8b 08		 mov	 ecx, DWORD PTR [rax]
  00069	c1 e9 18	 shr	 ecx, 24
  0006c	8b c2		 mov	 eax, edx
  0006e	0b c1		 or	 eax, ecx
  00070	89 44 24 40	 mov	 DWORD PTR W$[rsp], eax
  00074	8b 54 24 30	 mov	 edx, DWORD PTR T$[rsp+16]
  00078	c1 ea 0e	 shr	 edx, 14
  0007b	b8 20 00 00 00	 mov	 eax, 32			; 00000020H
  00080	83 e8 0e	 sub	 eax, 14
  00083	0f b6 c8	 movzx	 ecx, al
  00086	8b 44 24 30	 mov	 eax, DWORD PTR T$[rsp+16]
  0008a	d3 e0		 shl	 eax, cl
  0008c	8b c8		 mov	 ecx, eax
  0008e	8b c2		 mov	 eax, edx
  00090	0b c1		 or	 eax, ecx
  00092	89 84 24 84 00
	00 00		 mov	 DWORD PTR $T36151[rsp], eax
  00099	8b 8c 24 84 00
	00 00		 mov	 ecx, DWORD PTR $T36151[rsp]
  000a0	8b 44 24 30	 mov	 eax, DWORD PTR T$[rsp+16]
  000a4	33 c1		 xor	 eax, ecx
  000a6	89 84 24 88 00
	00 00		 mov	 DWORD PTR $T36155[rsp], eax
  000ad	b8 20 00 00 00	 mov	 eax, 32			; 00000020H
  000b2	83 e8 05	 sub	 eax, 5
  000b5	0f b6 c8	 movzx	 ecx, al
  000b8	8b 84 24 88 00
	00 00		 mov	 eax, DWORD PTR $T36155[rsp]
  000bf	d3 e0		 shl	 eax, cl
  000c1	8b 8c 24 88 00
	00 00		 mov	 ecx, DWORD PTR $T36155[rsp]
  000c8	c1 e9 05	 shr	 ecx, 5
  000cb	0b c8		 or	 ecx, eax
  000cd	8b 44 24 30	 mov	 eax, DWORD PTR T$[rsp+16]
  000d1	33 c1		 xor	 eax, ecx
  000d3	89 84 24 8c 00
	00 00		 mov	 DWORD PTR $T36159[rsp], eax
  000da	8b 44 24 38	 mov	 eax, DWORD PTR T$[rsp+24]
  000de	8b 4c 24 34	 mov	 ecx, DWORD PTR T$[rsp+20]
  000e2	33 c8		 xor	 ecx, eax
  000e4	8b 44 24 30	 mov	 eax, DWORD PTR T$[rsp+16]
  000e8	23 c1		 and	 eax, ecx
  000ea	8b 54 24 38	 mov	 edx, DWORD PTR T$[rsp+24]
  000ee	33 d0		 xor	 edx, eax
  000f0	b8 20 00 00 00	 mov	 eax, 32			; 00000020H
  000f5	83 e8 06	 sub	 eax, 6
  000f8	0f b6 c8	 movzx	 ecx, al
  000fb	8b 84 24 8c 00
	00 00		 mov	 eax, DWORD PTR $T36159[rsp]
  00102	d3 e0		 shl	 eax, cl
  00104	8b 8c 24 8c 00
	00 00		 mov	 ecx, DWORD PTR $T36159[rsp]
  0010b	c1 e9 06	 shr	 ecx, 6
  0010e	0b c8		 or	 ecx, eax
  00110	8b 05 00 00 00
	00		 mov	 eax, DWORD PTR SHA256_K
  00116	03 c1		 add	 eax, ecx
  00118	8b ca		 mov	 ecx, edx
  0011a	03 c8		 add	 ecx, eax
  0011c	03 4c 24 40	 add	 ecx, DWORD PTR W$[rsp]
  00120	8b 44 24 3c	 mov	 eax, DWORD PTR T$[rsp+28]
  00124	03 c1		 add	 eax, ecx
  00126	89 44 24 3c	 mov	 DWORD PTR T$[rsp+28], eax
  0012a	8b 4c 24 3c	 mov	 ecx, DWORD PTR T$[rsp+28]
  0012e	8b 44 24 2c	 mov	 eax, DWORD PTR T$[rsp+12]
  00132	03 c1		 add	 eax, ecx
  00134	89 44 24 2c	 mov	 DWORD PTR T$[rsp+12], eax
  00138	8b 54 24 20	 mov	 edx, DWORD PTR T$[rsp]
  0013c	c1 ea 09	 shr	 edx, 9
  0013f	b8 20 00 00 00	 mov	 eax, 32			; 00000020H
  00144	83 e8 09	 sub	 eax, 9
  00147	0f b6 c8	 movzx	 ecx, al
  0014a	8b 44 24 20	 mov	 eax, DWORD PTR T$[rsp]
  0014e	d3 e0		 shl	 eax, cl
  00150	8b c8		 mov	 ecx, eax
  00152	8b c2		 mov	 eax, edx
  00154	0b c1		 or	 eax, ecx
  00156	89 84 24 90 00
	00 00		 mov	 DWORD PTR $T36163[rsp], eax
  0015d	8b 8c 24 90 00
	00 00		 mov	 ecx, DWORD PTR $T36163[rsp]
  00164	8b 44 24 20	 mov	 eax, DWORD PTR T$[rsp]
  00168	33 c1		 xor	 eax, ecx
  0016a	89 84 24 94 00
	00 00		 mov	 DWORD PTR $T36167[rsp], eax
  00171	b8 20 00 00 00	 mov	 eax, 32			; 00000020H
  00176	83 e8 0b	 sub	 eax, 11
  00179	0f b6 c8	 movzx	 ecx, al
  0017c	8b 84 24 94 00
	00 00		 mov	 eax, DWORD PTR $T36167[rsp]
  00183	d3 e0		 shl	 eax, cl
  00185	8b 8c 24 94 00
	00 00		 mov	 ecx, DWORD PTR $T36167[rsp]
  0018c	c1 e9 0b	 shr	 ecx, 11
  0018f	0b c8		 or	 ecx, eax
  00191	8b 44 24 20	 mov	 eax, DWORD PTR T$[rsp]
  00195	33 c1		 xor	 eax, ecx
  00197	89 84 24 98 00
	00 00		 mov	 DWORD PTR $T36171[rsp], eax
  0019e	8b 4c 24 28	 mov	 ecx, DWORD PTR T$[rsp+8]
  001a2	8b 44 24 24	 mov	 eax, DWORD PTR T$[rsp+4]
  001a6	33 c1		 xor	 eax, ecx
  001a8	8b 54 24 20	 mov	 edx, DWORD PTR T$[rsp]
  001ac	23 d0		 and	 edx, eax
  001ae	8b 4c 24 28	 mov	 ecx, DWORD PTR T$[rsp+8]
  001b2	8b 44 24 24	 mov	 eax, DWORD PTR T$[rsp+4]
  001b6	23 c1		 and	 eax, ecx
  001b8	03 d0		 add	 edx, eax
  001ba	b8 20 00 00 00	 mov	 eax, 32			; 00000020H
  001bf	83 e8 02	 sub	 eax, 2
  001c2	0f b6 c8	 movzx	 ecx, al
  001c5	8b 84 24 98 00
	00 00		 mov	 eax, DWORD PTR $T36171[rsp]
  001cc	d3 e0		 shl	 eax, cl
  001ce	8b 8c 24 98 00
	00 00		 mov	 ecx, DWORD PTR $T36171[rsp]
  001d5	c1 e9 02	 shr	 ecx, 2
  001d8	0b c8		 or	 ecx, eax
  001da	8b c2		 mov	 eax, edx
  001dc	03 44 24 3c	 add	 eax, DWORD PTR T$[rsp+28]
  001e0	03 c1		 add	 eax, ecx
  001e2	89 44 24 3c	 mov	 DWORD PTR T$[rsp+28], eax
  001e6	48 8b 84 24 28
	04 00 00	 mov	 rax, QWORD PTR data$[rsp]
  001ee	8b 50 04	 mov	 edx, DWORD PTR [rax+4]
  001f1	c1 e2 18	 shl	 edx, 24
  001f4	48 8b 84 24 28
	04 00 00	 mov	 rax, QWORD PTR data$[rsp]
  001fc	8b 40 04	 mov	 eax, DWORD PTR [rax+4]
  001ff	c1 e0 08	 shl	 eax, 8
  00202	25 00 00 ff 00	 and	 eax, 16711680		; 00ff0000H
  00207	0b d0		 or	 edx, eax
  00209	48 8b 84 24 28
	04 00 00	 mov	 rax, QWORD PTR data$[rsp]
  00211	8b 40 04	 mov	 eax, DWORD PTR [rax+4]
  00214	c1 e8 08	 shr	 eax, 8
  00217	25 00 ff 00 00	 and	 eax, 65280		; 0000ff00H
  0021c	0b d0		 or	 edx, eax
  0021e	48 8b 84 24 28
	04 00 00	 mov	 rax, QWORD PTR data$[rsp]
  00226	8b 48 04	 mov	 ecx, DWORD PTR [rax+4]
  00229	c1 e9 18	 shr	 ecx, 24
  0022c	8b c2		 mov	 eax, edx
  0022e	0b c1		 or	 eax, ecx
  00230	89 44 24 44	 mov	 DWORD PTR W$[rsp+4], eax
  00234	8b 54 24 2c	 mov	 edx, DWORD PTR T$[rsp+12]
  00238	c1 ea 0e	 shr	 edx, 14
  0023b	b8 20 00 00 00	 mov	 eax, 32			; 00000020H
  00240	83 e8 0e	 sub	 eax, 14
  00243	0f b6 c8	 movzx	 ecx, al
  00246	8b 44 24 2c	 mov	 eax, DWORD PTR T$[rsp+12]
  0024a	d3 e0		 shl	 eax, cl
  0024c	8b c8		 mov	 ecx, eax
  0024e	8b c2		 mov	 eax, edx
  00250	0b c1		 or	 eax, ecx
  00252	89 84 24 9c 00
	00 00		 mov	 DWORD PTR $T36175[rsp], eax
  00259	8b 8c 24 9c 00
	00 00		 mov	 ecx, DWORD PTR $T36175[rsp]
  00260	8b 44 24 2c	 mov	 eax, DWORD PTR T$[rsp+12]
  00264	33 c1		 xor	 eax, ecx
  00266	89 84 24 a0 00
	00 00		 mov	 DWORD PTR $T36179[rsp], eax
  0026d	b8 20 00 00 00	 mov	 eax, 32			; 00000020H
  00272	83 e8 05	 sub	 eax, 5
  00275	0f b6 c8	 movzx	 ecx, al
  00278	8b 84 24 a0 00
	00 00		 mov	 eax, DWORD PTR $T36179[rsp]
  0027f	d3 e0		 shl	 eax, cl
  00281	8b 8c 24 a0 00
	00 00		 mov	 ecx, DWORD PTR $T36179[rsp]
  00288	c1 e9 05	 shr	 ecx, 5
  0028b	0b c8		 or	 ecx, eax
  0028d	8b 44 24 2c	 mov	 eax, DWORD PTR T$[rsp+12]
  00291	33 c1		 xor	 eax, ecx
  00293	89 84 24 a4 00
	00 00		 mov	 DWORD PTR $T36183[rsp], eax
  0029a	8b 44 24 34	 mov	 eax, DWORD PTR T$[rsp+20]
  0029e	8b 4c 24 30	 mov	 ecx, DWORD PTR T$[rsp+16]
  002a2	33 c8		 xor	 ecx, eax
  002a4	8b 44 24 2c	 mov	 eax, DWORD PTR T$[rsp+12]
  002a8	23 c1		 and	 eax, ecx
  002aa	8b 54 24 34	 mov	 edx, DWORD PTR T$[rsp+20]
  002ae	33 d0		 xor	 edx, eax
  002b0	b8 20 00 00 00	 mov	 eax, 32			; 00000020H
  002b5	83 e8 06	 sub	 eax, 6
  002b8	0f b6 c8	 movzx	 ecx, al
  002bb	8b 84 24 a4 00
	00 00		 mov	 eax, DWORD PTR $T36183[rsp]
  002c2	d3 e0		 shl	 eax, cl
  002c4	8b 8c 24 a4 00
	00 00		 mov	 ecx, DWORD PTR $T36183[rsp]
  002cb	c1 e9 06	 shr	 ecx, 6
  002ce	0b c8		 or	 ecx, eax
  002d0	8b 05 04 00 00
	00		 mov	 eax, DWORD PTR SHA256_K+4
  002d6	03 c1		 add	 eax, ecx
  002d8	8b ca		 mov	 ecx, edx
  002da	03 c8		 add	 ecx, eax
  002dc	03 4c 24 44	 add	 ecx, DWORD PTR W$[rsp+4]
  002e0	8b 44 24 38	 mov	 eax, DWORD PTR T$[rsp+24]
  002e4	03 c1		 add	 eax, ecx
  002e6	89 44 24 38	 mov	 DWORD PTR T$[rsp+24], eax
  002ea	8b 4c 24 38	 mov	 ecx, DWORD PTR T$[rsp+24]
  002ee	8b 44 24 28	 mov	 eax, DWORD PTR T$[rsp+8]
  002f2	03 c1		 add	 eax, ecx
  002f4	89 44 24 28	 mov	 DWORD PTR T$[rsp+8], eax
  002f8	8b 54 24 3c	 mov	 edx, DWORD PTR T$[rsp+28]
  002fc	c1 ea 09	 shr	 edx, 9
  002ff	b8 20 00 00 00	 mov	 eax, 32			; 00000020H
  00304	83 e8 09	 sub	 eax, 9
  00307	0f b6 c8	 movzx	 ecx, al
  0030a	8b 44 24 3c	 mov	 eax, DWORD PTR T$[rsp+28]
  0030e	d3 e0		 shl	 eax, cl
  00310	8b c8		 mov	 ecx, eax
  00312	8b c2		 mov	 eax, edx
  00314	0b c1		 or	 eax, ecx
  00316	89 84 24 a8 00
	00 00		 mov	 DWORD PTR $T36187[rsp], eax
  0031d	8b 8c 24 a8 00
	00 00		 mov	 ecx, DWORD PTR $T36187[rsp]
  00324	8b 44 24 3c	 mov	 eax, DWORD PTR T$[rsp+28]
  00328	33 c1		 xor	 eax, ecx
  0032a	89 84 24 ac 00
	00 00		 mov	 DWORD PTR $T36191[rsp], eax
  00331	b8 20 00 00 00	 mov	 eax, 32			; 00000020H
  00336	83 e8 0b	 sub	 eax, 11
  00339	0f b6 c8	 movzx	 ecx, al
  0033c	8b 84 24 ac 00
	00 00		 mov	 eax, DWORD PTR $T36191[rsp]
  00343	d3 e0		 shl	 eax, cl
  00345	8b 8c 24 ac 00
	00 00		 mov	 ecx, DWORD PTR $T36191[rsp]
  0034c	c1 e9 0b	 shr	 ecx, 11
  0034f	0b c8		 or	 ecx, eax
  00351	8b 44 24 3c	 mov	 eax, DWORD PTR T$[rsp+28]
  00355	33 c1		 xor	 eax, ecx
  00357	89 84 24 b0 00
	00 00		 mov	 DWORD PTR $T36195[rsp], eax
  0035e	8b 4c 24 24	 mov	 ecx, DWORD PTR T$[rsp+4]
  00362	8b 44 24 20	 mov	 eax, DWORD PTR T$[rsp]
  00366	33 c1		 xor	 eax, ecx
  00368	8b 54 24 3c	 mov	 edx, DWORD PTR T$[rsp+28]
  0036c	23 d0		 and	 edx, eax
  0036e	8b 4c 24 24	 mov	 ecx, DWORD PTR T$[rsp+4]
  00372	8b 44 24 20	 mov	 eax, DWORD PTR T$[rsp]
  00376	23 c1		 and	 eax, ecx
  00378	03 d0		 add	 edx, eax
  0037a	b8 20 00 00 00	 mov	 eax, 32			; 00000020H
  0037f	83 e8 02	 sub	 eax, 2
  00382	0f b6 c8	 movzx	 ecx, al
  00385	8b 84 24 b0 00
	00 00		 mov	 eax, DWORD PTR $T36195[rsp]
  0038c	d3 e0		 shl	 eax, cl
  0038e	8b 8c 24 b0 00
	00 00		 mov	 ecx, DWORD PTR $T36195[rsp]
  00395	c1 e9 02	 shr	 ecx, 2
  00398	0b c8		 or	 ecx, eax
  0039a	8b c2		 mov	 eax, edx
  0039c	03 44 24 38	 add	 eax, DWORD PTR T$[rsp+24]
  003a0	03 c1		 add	 eax, ecx
  003a2	89 44 24 38	 mov	 DWORD PTR T$[rsp+24], eax
  003a6	48 8b 84 24 28
	04 00 00	 mov	 rax, QWORD PTR data$[rsp]
  003ae	8b 50 08	 mov	 edx, DWORD PTR [rax+8]
  003b1	c1 e2 18	 shl	 edx, 24
  003b4	48 8b 84 24 28
	04 00 00	 mov	 rax, QWORD PTR data$[rsp]
  003bc	8b 40 08	 mov	 eax, DWORD PTR [rax+8]
  003bf	c1 e0 08	 shl	 eax, 8
  003c2	25 00 00 ff 00	 and	 eax, 16711680		; 00ff0000H
  003c7	0b d0		 or	 edx, eax
  003c9	48 8b 84 24 28
	04 00 00	 mov	 rax, QWORD PTR data$[rsp]
  003d1	8b 40 08	 mov	 eax, DWORD PTR [rax+8]
  003d4	c1 e8 08	 shr	 eax, 8
  003d7	25 00 ff 00 00	 and	 eax, 65280		; 0000ff00H
  003dc	0b d0		 or	 edx, eax
  003de	48 8b 84 24 28
	04 00 00	 mov	 rax, QWORD PTR data$[rsp]
  003e6	8b 48 08	 mov	 ecx, DWORD PTR [rax+8]
  003e9	c1 e9 18	 shr	 ecx, 24
  003ec	8b c2		 mov	 eax, edx
  003ee	0b c1		 or	 eax, ecx
  003f0	89 44 24 48	 mov	 DWORD PTR W$[rsp+8], eax
  003f4	8b 54 24 28	 mov	 edx, DWORD PTR T$[rsp+8]
  003f8	c1 ea 0e	 shr	 edx, 14
  003fb	b8 20 00 00 00	 mov	 eax, 32			; 00000020H
  00400	83 e8 0e	 sub	 eax, 14
  00403	0f b6 c8	 movzx	 ecx, al
  00406	8b 44 24 28	 mov	 eax, DWORD PTR T$[rsp+8]
  0040a	d3 e0		 shl	 eax, cl
  0040c	8b c8		 mov	 ecx, eax
  0040e	8b c2		 mov	 eax, edx
  00410	0b c1		 or	 eax, ecx
  00412	89 84 24 b4 00
	00 00		 mov	 DWORD PTR $T36199[rsp], eax
  00419	8b 8c 24 b4 00
	00 00		 mov	 ecx, DWORD PTR $T36199[rsp]
  00420	8b 44 24 28	 mov	 eax, DWORD PTR T$[rsp+8]
  00424	33 c1		 xor	 eax, ecx
  00426	89 84 24 b8 00
	00 00		 mov	 DWORD PTR $T36203[rsp], eax
  0042d	b8 20 00 00 00	 mov	 eax, 32			; 00000020H
  00432	83 e8 05	 sub	 eax, 5
  00435	0f b6 c8	 movzx	 ecx, al
  00438	8b 84 24 b8 00
	00 00		 mov	 eax, DWORD PTR $T36203[rsp]
  0043f	d3 e0		 shl	 eax, cl
  00441	8b 8c 24 b8 00
	00 00		 mov	 ecx, DWORD PTR $T36203[rsp]
  00448	c1 e9 05	 shr	 ecx, 5
  0044b	0b c8		 or	 ecx, eax
  0044d	8b 44 24 28	 mov	 eax, DWORD PTR T$[rsp+8]
  00451	33 c1		 xor	 eax, ecx
  00453	89 84 24 bc 00
	00 00		 mov	 DWORD PTR $T36207[rsp], eax
  0045a	8b 44 24 30	 mov	 eax, DWORD PTR T$[rsp+16]
  0045e	8b 4c 24 2c	 mov	 ecx, DWORD PTR T$[rsp+12]
  00462	33 c8		 xor	 ecx, eax
  00464	8b 44 24 28	 mov	 eax, DWORD PTR T$[rsp+8]
  00468	23 c1		 and	 eax, ecx
  0046a	8b 54 24 30	 mov	 edx, DWORD PTR T$[rsp+16]
  0046e	33 d0		 xor	 edx, eax
  00470	b8 20 00 00 00	 mov	 eax, 32			; 00000020H
  00475	83 e8 06	 sub	 eax, 6
  00478	0f b6 c8	 movzx	 ecx, al
  0047b	8b 84 24 bc 00
	00 00		 mov	 eax, DWORD PTR $T36207[rsp]
  00482	d3 e0		 shl	 eax, cl
  00484	8b 8c 24 bc 00
	00 00		 mov	 ecx, DWORD PTR $T36207[rsp]
  0048b	c1 e9 06	 shr	 ecx, 6
  0048e	0b c8		 or	 ecx, eax
  00490	8b 05 08 00 00
	00		 mov	 eax, DWORD PTR SHA256_K+8
  00496	03 c1		 add	 eax, ecx
  00498	8b ca		 mov	 ecx, edx
  0049a	03 c8		 add	 ecx, eax
  0049c	03 4c 24 48	 add	 ecx, DWORD PTR W$[rsp+8]
  004a0	8b 44 24 34	 mov	 eax, DWORD PTR T$[rsp+20]
  004a4	03 c1		 add	 eax, ecx
  004a6	89 44 24 34	 mov	 DWORD PTR T$[rsp+20], eax
  004aa	8b 4c 24 34	 mov	 ecx, DWORD PTR T$[rsp+20]
  004ae	8b 44 24 24	 mov	 eax, DWORD PTR T$[rsp+4]
  004b2	03 c1		 add	 eax, ecx
  004b4	89 44 24 24	 mov	 DWORD PTR T$[rsp+4], eax
  004b8	8b 54 24 38	 mov	 edx, DWORD PTR T$[rsp+24]
  004bc	c1 ea 09	 shr	 edx, 9
  004bf	b8 20 00 00 00	 mov	 eax, 32			; 00000020H
  004c4	83 e8 09	 sub	 eax, 9
  004c7	0f b6 c8	 movzx	 ecx, al
  004ca	8b 44 24 38	 mov	 eax, DWORD PTR T$[rsp+24]
  004ce	d3 e0		 shl	 eax, cl
  004d0	8b c8		 mov	 ecx, eax
  004d2	8b c2		 mov	 eax, edx
  004d4	0b c1		 or	 eax, ecx
  004d6	89 84 24 c0 00
	00 00		 mov	 DWORD PTR $T36211[rsp], eax
  004dd	8b 8c 24 c0 00
	00 00		 mov	 ecx, DWORD PTR $T36211[rsp]
  004e4	8b 44 24 38	 mov	 eax, DWORD PTR T$[rsp+24]
  004e8	33 c1		 xor	 eax, ecx
  004ea	89 84 24 c4 00
	00 00		 mov	 DWORD PTR $T36215[rsp], eax
  004f1	b8 20 00 00 00	 mov	 eax, 32			; 00000020H
  004f6	83 e8 0b	 sub	 eax, 11
  004f9	0f b6 c8	 movzx	 ecx, al
  004fc	8b 84 24 c4 00
	00 00		 mov	 eax, DWORD PTR $T36215[rsp]
  00503	d3 e0		 shl	 eax, cl
  00505	8b 8c 24 c4 00
	00 00		 mov	 ecx, DWORD PTR $T36215[rsp]
  0050c	c1 e9 0b	 shr	 ecx, 11
  0050f	0b c8		 or	 ecx, eax
  00511	8b 44 24 38	 mov	 eax, DWORD PTR T$[rsp+24]
  00515	33 c1		 xor	 eax, ecx
  00517	89 84 24 c8 00
	00 00		 mov	 DWORD PTR $T36219[rsp], eax
  0051e	8b 4c 24 20	 mov	 ecx, DWORD PTR T$[rsp]
  00522	8b 44 24 3c	 mov	 eax, DWORD PTR T$[rsp+28]
  00526	33 c1		 xor	 eax, ecx
  00528	8b 54 24 38	 mov	 edx, DWORD PTR T$[rsp+24]
  0052c	23 d0		 and	 edx, eax
  0052e	8b 4c 24 20	 mov	 ecx, DWORD PTR T$[rsp]
  00532	8b 44 24 3c	 mov	 eax, DWORD PTR T$[rsp+28]
  00536	23 c1		 and	 eax, ecx
  00538	03 d0		 add	 edx, eax
  0053a	b8 20 00 00 00	 mov	 eax, 32			; 00000020H
  0053f	83 e8 02	 sub	 eax, 2
  00542	0f b6 c8	 movzx	 ecx, al
  00545	8b 84 24 c8 00
	00 00		 mov	 eax, DWORD PTR $T36219[rsp]
  0054c	d3 e0		 shl	 eax, cl
  0054e	8b 8c 24 c8 00
	00 00		 mov	 ecx, DWORD PTR $T36219[rsp]
  00555	c1 e9 02	 shr	 ecx, 2
  00558	0b c8		 or	 ecx, eax
  0055a	8b c2		 mov	 eax, edx
  0055c	03 44 24 34	 add	 eax, DWORD PTR T$[rsp+20]
  00560	03 c1		 add	 eax, ecx
  00562	89 44 24 34	 mov	 DWORD PTR T$[rsp+20], eax
  00566	48 8b 84 24 28
	04 00 00	 mov	 rax, QWORD PTR data$[rsp]
  0056e	8b 50 0c	 mov	 edx, DWORD PTR [rax+12]
  00571	c1 e2 18	 shl	 edx, 24
  00574	48 8b 84 24 28
	04 00 00	 mov	 rax, QWORD PTR data$[rsp]
  0057c	8b 40 0c	 mov	 eax, DWORD PTR [rax+12]
  0057f	c1 e0 08	 shl	 eax, 8
  00582	25 00 00 ff 00	 and	 eax, 16711680		; 00ff0000H
  00587	0b d0		 or	 edx, eax
  00589	48 8b 84 24 28
	04 00 00	 mov	 rax, QWORD PTR data$[rsp]
  00591	8b 40 0c	 mov	 eax, DWORD PTR [rax+12]
  00594	c1 e8 08	 shr	 eax, 8
  00597	25 00 ff 00 00	 and	 eax, 65280		; 0000ff00H
  0059c	0b d0		 or	 edx, eax
  0059e	48 8b 84 24 28
	04 00 00	 mov	 rax, QWORD PTR data$[rsp]
  005a6	8b 48 0c	 mov	 ecx, DWORD PTR [rax+12]
  005a9	c1 e9 18	 shr	 ecx, 24
  005ac	8b c2		 mov	 eax, edx
  005ae	0b c1		 or	 eax, ecx
  005b0	89 44 24 4c	 mov	 DWORD PTR W$[rsp+12], eax
  005b4	8b 54 24 24	 mov	 edx, DWORD PTR T$[rsp+4]
  005b8	c1 ea 0e	 shr	 edx, 14
  005bb	b8 20 00 00 00	 mov	 eax, 32			; 00000020H
  005c0	83 e8 0e	 sub	 eax, 14
  005c3	0f b6 c8	 movzx	 ecx, al
  005c6	8b 44 24 24	 mov	 eax, DWORD PTR T$[rsp+4]
  005ca	d3 e0		 shl	 eax, cl
  005cc	8b c8		 mov	 ecx, eax
  005ce	8b c2		 mov	 eax, edx
  005d0	0b c1		 or	 eax, ecx
  005d2	89 84 24 cc 00
	00 00		 mov	 DWORD PTR $T36223[rsp], eax
  005d9	8b 8c 24 cc 00
	00 00		 mov	 ecx, DWORD PTR $T36223[rsp]
  005e0	8b 44 24 24	 mov	 eax, DWORD PTR T$[rsp+4]
  005e4	33 c1		 xor	 eax, ecx
  005e6	89 84 24 d0 00
	00 00		 mov	 DWORD PTR $T36227[rsp], eax
  005ed	b8 20 00 00 00	 mov	 eax, 32			; 00000020H
  005f2	83 e8 05	 sub	 eax, 5
  005f5	0f b6 c8	 movzx	 ecx, al
  005f8	8b 84 24 d0 00
	00 00		 mov	 eax, DWORD PTR $T36227[rsp]
  005ff	d3 e0		 shl	 eax, cl
  00601	8b 8c 24 d0 00
	00 00		 mov	 ecx, DWORD PTR $T36227[rsp]
  00608	c1 e9 05	 shr	 ecx, 5
  0060b	0b c8		 or	 ecx, eax
  0060d	8b 44 24 24	 mov	 eax, DWORD PTR T$[rsp+4]
  00611	33 c1		 xor	 eax, ecx
  00613	89 84 24 d4 00
	00 00		 mov	 DWORD PTR $T36231[rsp], eax
  0061a	8b 44 24 2c	 mov	 eax, DWORD PTR T$[rsp+12]
  0061e	8b 4c 24 28	 mov	 ecx, DWORD PTR T$[rsp+8]
  00622	33 c8		 xor	 ecx, eax
  00624	8b 44 24 24	 mov	 eax, DWORD PTR T$[rsp+4]
  00628	23 c1		 and	 eax, ecx
  0062a	8b 54 24 2c	 mov	 edx, DWORD PTR T$[rsp+12]
  0062e	33 d0		 xor	 edx, eax
  00630	b8 20 00 00 00	 mov	 eax, 32			; 00000020H
  00635	83 e8 06	 sub	 eax, 6
  00638	0f b6 c8	 movzx	 ecx, al
  0063b	8b 84 24 d4 00
	00 00		 mov	 eax, DWORD PTR $T36231[rsp]
  00642	d3 e0		 shl	 eax, cl
  00644	8b 8c 24 d4 00
	00 00		 mov	 ecx, DWORD PTR $T36231[rsp]
  0064b	c1 e9 06	 shr	 ecx, 6
  0064e	0b c8		 or	 ecx, eax
  00650	8b 05 0c 00 00
	00		 mov	 eax, DWORD PTR SHA256_K+12
  00656	03 c1		 add	 eax, ecx
  00658	8b ca		 mov	 ecx, edx
  0065a	03 c8		 add	 ecx, eax
  0065c	03 4c 24 4c	 add	 ecx, DWORD PTR W$[rsp+12]
  00660	8b 44 24 30	 mov	 eax, DWORD PTR T$[rsp+16]
  00664	03 c1		 add	 eax, ecx
  00666	89 44 24 30	 mov	 DWORD PTR T$[rsp+16], eax
  0066a	8b 4c 24 30	 mov	 ecx, DWORD PTR T$[rsp+16]
  0066e	8b 44 24 20	 mov	 eax, DWORD PTR T$[rsp]
  00672	03 c1		 add	 eax, ecx
  00674	89 44 24 20	 mov	 DWORD PTR T$[rsp], eax
  00678	8b 54 24 34	 mov	 edx, DWORD PTR T$[rsp+20]
  0067c	c1 ea 09	 shr	 edx, 9
  0067f	b8 20 00 00 00	 mov	 eax, 32			; 00000020H
  00684	83 e8 09	 sub	 eax, 9
  00687	0f b6 c8	 movzx	 ecx, al
  0068a	8b 44 24 34	 mov	 eax, DWORD PTR T$[rsp+20]
  0068e	d3 e0		 shl	 eax, cl
  00690	8b c8		 mov	 ecx, eax
  00692	8b c2		 mov	 eax, edx
  00694	0b c1		 or	 eax, ecx
  00696	89 84 24 d8 00
	00 00		 mov	 DWORD PTR $T36235[rsp], eax
  0069d	8b 8c 24 d8 00
	00 00		 mov	 ecx, DWORD PTR $T36235[rsp]
  006a4	8b 44 24 34	 mov	 eax, DWORD PTR T$[rsp+20]
  006a8	33 c1		 xor	 eax, ecx
  006aa	89 84 24 dc 00
	00 00		 mov	 DWORD PTR $T36239[rsp], eax
  006b1	b8 20 00 00 00	 mov	 eax, 32			; 00000020H
  006b6	83 e8 0b	 sub	 eax, 11
  006b9	0f b6 c8	 movzx	 ecx, al
  006bc	8b 84 24 dc 00
	00 00		 mov	 eax, DWORD PTR $T36239[rsp]
  006c3	d3 e0		 shl	 eax, cl
  006c5	8b 8c 24 dc 00
	00 00		 mov	 ecx, DWORD PTR $T36239[rsp]
  006cc	c1 e9 0b	 shr	 ecx, 11
  006cf	0b c8		 or	 ecx, eax
  006d1	8b 44 24 34	 mov	 eax, DWORD PTR T$[rsp+20]
  006d5	33 c1		 xor	 eax, ecx
  006d7	89 84 24 e0 00
	00 00		 mov	 DWORD PTR $T36243[rsp], eax
  006de	8b 4c 24 3c	 mov	 ecx, DWORD PTR T$[rsp+28]
  006e2	8b 44 24 38	 mov	 eax, DWORD PTR T$[rsp+24]
  006e6	33 c1		 xor	 eax, ecx
  006e8	8b 54 24 34	 mov	 edx, DWORD PTR T$[rsp+20]
  006ec	23 d0		 and	 edx, eax
  006ee	8b 4c 24 3c	 mov	 ecx, DWORD PTR T$[rsp+28]
  006f2	8b 44 24 38	 mov	 eax, DWORD PTR T$[rsp+24]
  006f6	23 c1		 and	 eax, ecx
  006f8	03 d0		 add	 edx, eax
  006fa	b8 20 00 00 00	 mov	 eax, 32			; 00000020H
  006ff	83 e8 02	 sub	 eax, 2
  00702	0f b6 c8	 movzx	 ecx, al
  00705	8b 84 24 e0 00
	00 00		 mov	 eax, DWORD PTR $T36243[rsp]
  0070c	d3 e0		 shl	 eax, cl
  0070e	8b 8c 24 e0 00
	00 00		 mov	 ecx, DWORD PTR $T36243[rsp]
  00715	c1 e9 02	 shr	 ecx, 2
  00718	0b c8		 or	 ecx, eax
  0071a	8b c2		 mov	 eax, edx
  0071c	03 44 24 30	 add	 eax, DWORD PTR T$[rsp+16]
  00720	03 c1		 add	 eax, ecx
  00722	89 44 24 30	 mov	 DWORD PTR T$[rsp+16], eax

; 94   : 	R0( 4); R0( 5); R0( 6); R0( 7);

  00726	48 8b 84 24 28
	04 00 00	 mov	 rax, QWORD PTR data$[rsp]
  0072e	8b 50 10	 mov	 edx, DWORD PTR [rax+16]
  00731	c1 e2 18	 shl	 edx, 24
  00734	48 8b 84 24 28
	04 00 00	 mov	 rax, QWORD PTR data$[rsp]
  0073c	8b 40 10	 mov	 eax, DWORD PTR [rax+16]
  0073f	c1 e0 08	 shl	 eax, 8
  00742	25 00 00 ff 00	 and	 eax, 16711680		; 00ff0000H
  00747	0b d0		 or	 edx, eax
  00749	48 8b 84 24 28
	04 00 00	 mov	 rax, QWORD PTR data$[rsp]
  00751	8b 40 10	 mov	 eax, DWORD PTR [rax+16]
  00754	c1 e8 08	 shr	 eax, 8
  00757	25 00 ff 00 00	 and	 eax, 65280		; 0000ff00H
  0075c	0b d0		 or	 edx, eax
  0075e	48 8b 84 24 28
	04 00 00	 mov	 rax, QWORD PTR data$[rsp]
  00766	8b 48 10	 mov	 ecx, DWORD PTR [rax+16]
  00769	c1 e9 18	 shr	 ecx, 24
  0076c	8b c2		 mov	 eax, edx
  0076e	0b c1		 or	 eax, ecx
  00770	89 44 24 50	 mov	 DWORD PTR W$[rsp+16], eax
  00774	8b 54 24 20	 mov	 edx, DWORD PTR T$[rsp]
  00778	c1 ea 0e	 shr	 edx, 14
  0077b	b8 20 00 00 00	 mov	 eax, 32			; 00000020H
  00780	83 e8 0e	 sub	 eax, 14
  00783	0f b6 c8	 movzx	 ecx, al
  00786	8b 44 24 20	 mov	 eax, DWORD PTR T$[rsp]
  0078a	d3 e0		 shl	 eax, cl
  0078c	8b c8		 mov	 ecx, eax
  0078e	8b c2		 mov	 eax, edx
  00790	0b c1		 or	 eax, ecx
  00792	89 84 24 e4 00
	00 00		 mov	 DWORD PTR $T36247[rsp], eax
  00799	8b 8c 24 e4 00
	00 00		 mov	 ecx, DWORD PTR $T36247[rsp]
  007a0	8b 44 24 20	 mov	 eax, DWORD PTR T$[rsp]
  007a4	33 c1		 xor	 eax, ecx
  007a6	89 84 24 e8 00
	00 00		 mov	 DWORD PTR $T36251[rsp], eax
  007ad	b8 20 00 00 00	 mov	 eax, 32			; 00000020H
  007b2	83 e8 05	 sub	 eax, 5
  007b5	0f b6 c8	 movzx	 ecx, al
  007b8	8b 84 24 e8 00
	00 00		 mov	 eax, DWORD PTR $T36251[rsp]
  007bf	d3 e0		 shl	 eax, cl
  007c1	8b 8c 24 e8 00
	00 00		 mov	 ecx, DWORD PTR $T36251[rsp]
  007c8	c1 e9 05	 shr	 ecx, 5
  007cb	0b c8		 or	 ecx, eax
  007cd	8b 44 24 20	 mov	 eax, DWORD PTR T$[rsp]
  007d1	33 c1		 xor	 eax, ecx
  007d3	89 84 24 ec 00
	00 00		 mov	 DWORD PTR $T36255[rsp], eax
  007da	8b 44 24 28	 mov	 eax, DWORD PTR T$[rsp+8]
  007de	8b 4c 24 24	 mov	 ecx, DWORD PTR T$[rsp+4]
  007e2	33 c8		 xor	 ecx, eax
  007e4	8b 44 24 20	 mov	 eax, DWORD PTR T$[rsp]
  007e8	23 c1		 and	 eax, ecx
  007ea	8b 54 24 28	 mov	 edx, DWORD PTR T$[rsp+8]
  007ee	33 d0		 xor	 edx, eax
  007f0	b8 20 00 00 00	 mov	 eax, 32			; 00000020H
  007f5	83 e8 06	 sub	 eax, 6
  007f8	0f b6 c8	 movzx	 ecx, al
  007fb	8b 84 24 ec 00
	00 00		 mov	 eax, DWORD PTR $T36255[rsp]
  00802	d3 e0		 shl	 eax, cl
  00804	8b 8c 24 ec 00
	00 00		 mov	 ecx, DWORD PTR $T36255[rsp]
  0080b	c1 e9 06	 shr	 ecx, 6
  0080e	0b c8		 or	 ecx, eax
  00810	8b 05 10 00 00
	00		 mov	 eax, DWORD PTR SHA256_K+16
  00816	03 c1		 add	 eax, ecx
  00818	8b ca		 mov	 ecx, edx
  0081a	03 c8		 add	 ecx, eax
  0081c	03 4c 24 50	 add	 ecx, DWORD PTR W$[rsp+16]
  00820	8b 44 24 2c	 mov	 eax, DWORD PTR T$[rsp+12]
  00824	03 c1		 add	 eax, ecx
  00826	89 44 24 2c	 mov	 DWORD PTR T$[rsp+12], eax
  0082a	8b 4c 24 2c	 mov	 ecx, DWORD PTR T$[rsp+12]
  0082e	8b 44 24 3c	 mov	 eax, DWORD PTR T$[rsp+28]
  00832	03 c1		 add	 eax, ecx
  00834	89 44 24 3c	 mov	 DWORD PTR T$[rsp+28], eax
  00838	8b 54 24 30	 mov	 edx, DWORD PTR T$[rsp+16]
  0083c	c1 ea 09	 shr	 edx, 9
  0083f	b8 20 00 00 00	 mov	 eax, 32			; 00000020H
  00844	83 e8 09	 sub	 eax, 9
  00847	0f b6 c8	 movzx	 ecx, al
  0084a	8b 44 24 30	 mov	 eax, DWORD PTR T$[rsp+16]
  0084e	d3 e0		 shl	 eax, cl
  00850	8b c8		 mov	 ecx, eax
  00852	8b c2		 mov	 eax, edx
  00854	0b c1		 or	 eax, ecx
  00856	89 84 24 f0 00
	00 00		 mov	 DWORD PTR $T36259[rsp], eax
  0085d	8b 8c 24 f0 00
	00 00		 mov	 ecx, DWORD PTR $T36259[rsp]
  00864	8b 44 24 30	 mov	 eax, DWORD PTR T$[rsp+16]
  00868	33 c1		 xor	 eax, ecx
  0086a	89 84 24 f4 00
	00 00		 mov	 DWORD PTR $T36263[rsp], eax
  00871	b8 20 00 00 00	 mov	 eax, 32			; 00000020H
  00876	83 e8 0b	 sub	 eax, 11
  00879	0f b6 c8	 movzx	 ecx, al
  0087c	8b 84 24 f4 00
	00 00		 mov	 eax, DWORD PTR $T36263[rsp]
  00883	d3 e0		 shl	 eax, cl
  00885	8b 8c 24 f4 00
	00 00		 mov	 ecx, DWORD PTR $T36263[rsp]
  0088c	c1 e9 0b	 shr	 ecx, 11
  0088f	0b c8		 or	 ecx, eax
  00891	8b 44 24 30	 mov	 eax, DWORD PTR T$[rsp+16]
  00895	33 c1		 xor	 eax, ecx
  00897	89 84 24 f8 00
	00 00		 mov	 DWORD PTR $T36267[rsp], eax
  0089e	8b 4c 24 38	 mov	 ecx, DWORD PTR T$[rsp+24]
  008a2	8b 44 24 34	 mov	 eax, DWORD PTR T$[rsp+20]
  008a6	33 c1		 xor	 eax, ecx
  008a8	8b 54 24 30	 mov	 edx, DWORD PTR T$[rsp+16]
  008ac	23 d0		 and	 edx, eax
  008ae	8b 4c 24 38	 mov	 ecx, DWORD PTR T$[rsp+24]
  008b2	8b 44 24 34	 mov	 eax, DWORD PTR T$[rsp+20]
  008b6	23 c1		 and	 eax, ecx
  008b8	03 d0		 add	 edx, eax
  008ba	b8 20 00 00 00	 mov	 eax, 32			; 00000020H
  008bf	83 e8 02	 sub	 eax, 2
  008c2	0f b6 c8	 movzx	 ecx, al
  008c5	8b 84 24 f8 00
	00 00		 mov	 eax, DWORD PTR $T36267[rsp]
  008cc	d3 e0		 shl	 eax, cl
  008ce	8b 8c 24 f8 00
	00 00		 mov	 ecx, DWORD PTR $T36267[rsp]
  008d5	c1 e9 02	 shr	 ecx, 2
  008d8	0b c8		 or	 ecx, eax
  008da	8b c2		 mov	 eax, edx
  008dc	03 44 24 2c	 add	 eax, DWORD PTR T$[rsp+12]
  008e0	03 c1		 add	 eax, ecx
  008e2	89 44 24 2c	 mov	 DWORD PTR T$[rsp+12], eax
  008e6	48 8b 84 24 28
	04 00 00	 mov	 rax, QWORD PTR data$[rsp]
  008ee	8b 50 14	 mov	 edx, DWORD PTR [rax+20]
  008f1	c1 e2 18	 shl	 edx, 24
  008f4	48 8b 84 24 28
	04 00 00	 mov	 rax, QWORD PTR data$[rsp]
  008fc	8b 40 14	 mov	 eax, DWORD PTR [rax+20]
  008ff	c1 e0 08	 shl	 eax, 8
  00902	25 00 00 ff 00	 and	 eax, 16711680		; 00ff0000H
  00907	0b d0		 or	 edx, eax
  00909	48 8b 84 24 28
	04 00 00	 mov	 rax, QWORD PTR data$[rsp]
  00911	8b 40 14	 mov	 eax, DWORD PTR [rax+20]
  00914	c1 e8 08	 shr	 eax, 8
  00917	25 00 ff 00 00	 and	 eax, 65280		; 0000ff00H
  0091c	0b d0		 or	 edx, eax
  0091e	48 8b 84 24 28
	04 00 00	 mov	 rax, QWORD PTR data$[rsp]
  00926	8b 48 14	 mov	 ecx, DWORD PTR [rax+20]
  00929	c1 e9 18	 shr	 ecx, 24
  0092c	8b c2		 mov	 eax, edx
  0092e	0b c1		 or	 eax, ecx
  00930	89 44 24 54	 mov	 DWORD PTR W$[rsp+20], eax
  00934	8b 54 24 3c	 mov	 edx, DWORD PTR T$[rsp+28]
  00938	c1 ea 0e	 shr	 edx, 14
  0093b	b8 20 00 00 00	 mov	 eax, 32			; 00000020H
  00940	83 e8 0e	 sub	 eax, 14
  00943	0f b6 c8	 movzx	 ecx, al
  00946	8b 44 24 3c	 mov	 eax, DWORD PTR T$[rsp+28]
  0094a	d3 e0		 shl	 eax, cl
  0094c	8b c8		 mov	 ecx, eax
  0094e	8b c2		 mov	 eax, edx
  00950	0b c1		 or	 eax, ecx
  00952	89 84 24 fc 00
	00 00		 mov	 DWORD PTR $T36271[rsp], eax
  00959	8b 8c 24 fc 00
	00 00		 mov	 ecx, DWORD PTR $T36271[rsp]
  00960	8b 44 24 3c	 mov	 eax, DWORD PTR T$[rsp+28]
  00964	33 c1		 xor	 eax, ecx
  00966	89 84 24 00 01
	00 00		 mov	 DWORD PTR $T36275[rsp], eax
  0096d	b8 20 00 00 00	 mov	 eax, 32			; 00000020H
  00972	83 e8 05	 sub	 eax, 5
  00975	0f b6 c8	 movzx	 ecx, al
  00978	8b 84 24 00 01
	00 00		 mov	 eax, DWORD PTR $T36275[rsp]
  0097f	d3 e0		 shl	 eax, cl
  00981	8b 8c 24 00 01
	00 00		 mov	 ecx, DWORD PTR $T36275[rsp]
  00988	c1 e9 05	 shr	 ecx, 5
  0098b	0b c8		 or	 ecx, eax
  0098d	8b 44 24 3c	 mov	 eax, DWORD PTR T$[rsp+28]
  00991	33 c1		 xor	 eax, ecx
  00993	89 84 24 04 01
	00 00		 mov	 DWORD PTR $T36279[rsp], eax
  0099a	8b 44 24 24	 mov	 eax, DWORD PTR T$[rsp+4]
  0099e	8b 4c 24 20	 mov	 ecx, DWORD PTR T$[rsp]
  009a2	33 c8		 xor	 ecx, eax
  009a4	8b 44 24 3c	 mov	 eax, DWORD PTR T$[rsp+28]
  009a8	23 c1		 and	 eax, ecx
  009aa	8b 54 24 24	 mov	 edx, DWORD PTR T$[rsp+4]
  009ae	33 d0		 xor	 edx, eax
  009b0	b8 20 00 00 00	 mov	 eax, 32			; 00000020H
  009b5	83 e8 06	 sub	 eax, 6
  009b8	0f b6 c8	 movzx	 ecx, al
  009bb	8b 84 24 04 01
	00 00		 mov	 eax, DWORD PTR $T36279[rsp]
  009c2	d3 e0		 shl	 eax, cl
  009c4	8b 8c 24 04 01
	00 00		 mov	 ecx, DWORD PTR $T36279[rsp]
  009cb	c1 e9 06	 shr	 ecx, 6
  009ce	0b c8		 or	 ecx, eax
  009d0	8b 05 14 00 00
	00		 mov	 eax, DWORD PTR SHA256_K+20
  009d6	03 c1		 add	 eax, ecx
  009d8	8b ca		 mov	 ecx, edx
  009da	03 c8		 add	 ecx, eax
  009dc	03 4c 24 54	 add	 ecx, DWORD PTR W$[rsp+20]
  009e0	8b 44 24 28	 mov	 eax, DWORD PTR T$[rsp+8]
  009e4	03 c1		 add	 eax, ecx
  009e6	89 44 24 28	 mov	 DWORD PTR T$[rsp+8], eax
  009ea	8b 4c 24 28	 mov	 ecx, DWORD PTR T$[rsp+8]
  009ee	8b 44 24 38	 mov	 eax, DWORD PTR T$[rsp+24]
  009f2	03 c1		 add	 eax, ecx
  009f4	89 44 24 38	 mov	 DWORD PTR T$[rsp+24], eax
  009f8	8b 54 24 2c	 mov	 edx, DWORD PTR T$[rsp+12]
  009fc	c1 ea 09	 shr	 edx, 9
  009ff	b8 20 00 00 00	 mov	 eax, 32			; 00000020H
  00a04	83 e8 09	 sub	 eax, 9
  00a07	0f b6 c8	 movzx	 ecx, al
  00a0a	8b 44 24 2c	 mov	 eax, DWORD PTR T$[rsp+12]
  00a0e	d3 e0		 shl	 eax, cl
  00a10	8b c8		 mov	 ecx, eax
  00a12	8b c2		 mov	 eax, edx
  00a14	0b c1		 or	 eax, ecx
  00a16	89 84 24 08 01
	00 00		 mov	 DWORD PTR $T36283[rsp], eax
  00a1d	8b 8c 24 08 01
	00 00		 mov	 ecx, DWORD PTR $T36283[rsp]
  00a24	8b 44 24 2c	 mov	 eax, DWORD PTR T$[rsp+12]
  00a28	33 c1		 xor	 eax, ecx
  00a2a	89 84 24 0c 01
	00 00		 mov	 DWORD PTR $T36287[rsp], eax
  00a31	b8 20 00 00 00	 mov	 eax, 32			; 00000020H
  00a36	83 e8 0b	 sub	 eax, 11
  00a39	0f b6 c8	 movzx	 ecx, al
  00a3c	8b 84 24 0c 01
	00 00		 mov	 eax, DWORD PTR $T36287[rsp]
  00a43	d3 e0		 shl	 eax, cl
  00a45	8b 8c 24 0c 01
	00 00		 mov	 ecx, DWORD PTR $T36287[rsp]
  00a4c	c1 e9 0b	 shr	 ecx, 11
  00a4f	0b c8		 or	 ecx, eax
  00a51	8b 44 24 2c	 mov	 eax, DWORD PTR T$[rsp+12]
  00a55	33 c1		 xor	 eax, ecx
  00a57	89 84 24 10 01
	00 00		 mov	 DWORD PTR $T36291[rsp], eax
  00a5e	8b 4c 24 34	 mov	 ecx, DWORD PTR T$[rsp+20]
  00a62	8b 44 24 30	 mov	 eax, DWORD PTR T$[rsp+16]
  00a66	33 c1		 xor	 eax, ecx
  00a68	8b 54 24 2c	 mov	 edx, DWORD PTR T$[rsp+12]
  00a6c	23 d0		 and	 edx, eax
  00a6e	8b 4c 24 34	 mov	 ecx, DWORD PTR T$[rsp+20]
  00a72	8b 44 24 30	 mov	 eax, DWORD PTR T$[rsp+16]
  00a76	23 c1		 and	 eax, ecx
  00a78	03 d0		 add	 edx, eax
  00a7a	b8 20 00 00 00	 mov	 eax, 32			; 00000020H
  00a7f	83 e8 02	 sub	 eax, 2
  00a82	0f b6 c8	 movzx	 ecx, al
  00a85	8b 84 24 10 01
	00 00		 mov	 eax, DWORD PTR $T36291[rsp]
  00a8c	d3 e0		 shl	 eax, cl
  00a8e	8b 8c 24 10 01
	00 00		 mov	 ecx, DWORD PTR $T36291[rsp]
  00a95	c1 e9 02	 shr	 ecx, 2
  00a98	0b c8		 or	 ecx, eax
  00a9a	8b c2		 mov	 eax, edx
  00a9c	03 44 24 28	 add	 eax, DWORD PTR T$[rsp+8]
  00aa0	03 c1		 add	 eax, ecx
  00aa2	89 44 24 28	 mov	 DWORD PTR T$[rsp+8], eax
  00aa6	48 8b 84 24 28
	04 00 00	 mov	 rax, QWORD PTR data$[rsp]
  00aae	8b 50 18	 mov	 edx, DWORD PTR [rax+24]
  00ab1	c1 e2 18	 shl	 edx, 24
  00ab4	48 8b 84 24 28
	04 00 00	 mov	 rax, QWORD PTR data$[rsp]
  00abc	8b 40 18	 mov	 eax, DWORD PTR [rax+24]
  00abf	c1 e0 08	 shl	 eax, 8
  00ac2	25 00 00 ff 00	 and	 eax, 16711680		; 00ff0000H
  00ac7	0b d0		 or	 edx, eax
  00ac9	48 8b 84 24 28
	04 00 00	 mov	 rax, QWORD PTR data$[rsp]
  00ad1	8b 40 18	 mov	 eax, DWORD PTR [rax+24]
  00ad4	c1 e8 08	 shr	 eax, 8
  00ad7	25 00 ff 00 00	 and	 eax, 65280		; 0000ff00H
  00adc	0b d0		 or	 edx, eax
  00ade	48 8b 84 24 28
	04 00 00	 mov	 rax, QWORD PTR data$[rsp]
  00ae6	8b 48 18	 mov	 ecx, DWORD PTR [rax+24]
  00ae9	c1 e9 18	 shr	 ecx, 24
  00aec	8b c2		 mov	 eax, edx
  00aee	0b c1		 or	 eax, ecx
  00af0	89 44 24 58	 mov	 DWORD PTR W$[rsp+24], eax
  00af4	8b 54 24 38	 mov	 edx, DWORD PTR T$[rsp+24]
  00af8	c1 ea 0e	 shr	 edx, 14
  00afb	b8 20 00 00 00	 mov	 eax, 32			; 00000020H
  00b00	83 e8 0e	 sub	 eax, 14
  00b03	0f b6 c8	 movzx	 ecx, al
  00b06	8b 44 24 38	 mov	 eax, DWORD PTR T$[rsp+24]
  00b0a	d3 e0		 shl	 eax, cl
  00b0c	8b c8		 mov	 ecx, eax
  00b0e	8b c2		 mov	 eax, edx
  00b10	0b c1		 or	 eax, ecx
  00b12	89 84 24 14 01
	00 00		 mov	 DWORD PTR $T36295[rsp], eax
  00b19	8b 8c 24 14 01
	00 00		 mov	 ecx, DWORD PTR $T36295[rsp]
  00b20	8b 44 24 38	 mov	 eax, DWORD PTR T$[rsp+24]
  00b24	33 c1		 xor	 eax, ecx
  00b26	89 84 24 18 01
	00 00		 mov	 DWORD PTR $T36299[rsp], eax
  00b2d	b8 20 00 00 00	 mov	 eax, 32			; 00000020H
  00b32	83 e8 05	 sub	 eax, 5
  00b35	0f b6 c8	 movzx	 ecx, al
  00b38	8b 84 24 18 01
	00 00		 mov	 eax, DWORD PTR $T36299[rsp]
  00b3f	d3 e0		 shl	 eax, cl
  00b41	8b 8c 24 18 01
	00 00		 mov	 ecx, DWORD PTR $T36299[rsp]
  00b48	c1 e9 05	 shr	 ecx, 5
  00b4b	0b c8		 or	 ecx, eax
  00b4d	8b 44 24 38	 mov	 eax, DWORD PTR T$[rsp+24]
  00b51	33 c1		 xor	 eax, ecx
  00b53	89 84 24 1c 01
	00 00		 mov	 DWORD PTR $T36303[rsp], eax
  00b5a	8b 44 24 20	 mov	 eax, DWORD PTR T$[rsp]
  00b5e	8b 4c 24 3c	 mov	 ecx, DWORD PTR T$[rsp+28]
  00b62	33 c8		 xor	 ecx, eax
  00b64	8b 44 24 38	 mov	 eax, DWORD PTR T$[rsp+24]
  00b68	23 c1		 and	 eax, ecx
  00b6a	8b 54 24 20	 mov	 edx, DWORD PTR T$[rsp]
  00b6e	33 d0		 xor	 edx, eax
  00b70	b8 20 00 00 00	 mov	 eax, 32			; 00000020H
  00b75	83 e8 06	 sub	 eax, 6
  00b78	0f b6 c8	 movzx	 ecx, al
  00b7b	8b 84 24 1c 01
	00 00		 mov	 eax, DWORD PTR $T36303[rsp]
  00b82	d3 e0		 shl	 eax, cl
  00b84	8b 8c 24 1c 01
	00 00		 mov	 ecx, DWORD PTR $T36303[rsp]
  00b8b	c1 e9 06	 shr	 ecx, 6
  00b8e	0b c8		 or	 ecx, eax
  00b90	8b 05 18 00 00
	00		 mov	 eax, DWORD PTR SHA256_K+24
  00b96	03 c1		 add	 eax, ecx
  00b98	8b ca		 mov	 ecx, edx
  00b9a	03 c8		 add	 ecx, eax
  00b9c	03 4c 24 58	 add	 ecx, DWORD PTR W$[rsp+24]
  00ba0	8b 44 24 24	 mov	 eax, DWORD PTR T$[rsp+4]
  00ba4	03 c1		 add	 eax, ecx
  00ba6	89 44 24 24	 mov	 DWORD PTR T$[rsp+4], eax
  00baa	8b 4c 24 24	 mov	 ecx, DWORD PTR T$[rsp+4]
  00bae	8b 44 24 34	 mov	 eax, DWORD PTR T$[rsp+20]
  00bb2	03 c1		 add	 eax, ecx
  00bb4	89 44 24 34	 mov	 DWORD PTR T$[rsp+20], eax
  00bb8	8b 54 24 28	 mov	 edx, DWORD PTR T$[rsp+8]
  00bbc	c1 ea 09	 shr	 edx, 9
  00bbf	b8 20 00 00 00	 mov	 eax, 32			; 00000020H
  00bc4	83 e8 09	 sub	 eax, 9
  00bc7	0f b6 c8	 movzx	 ecx, al
  00bca	8b 44 24 28	 mov	 eax, DWORD PTR T$[rsp+8]
  00bce	d3 e0		 shl	 eax, cl
  00bd0	8b c8		 mov	 ecx, eax
  00bd2	8b c2		 mov	 eax, edx
  00bd4	0b c1		 or	 eax, ecx
  00bd6	89 84 24 20 01
	00 00		 mov	 DWORD PTR $T36307[rsp], eax
  00bdd	8b 8c 24 20 01
	00 00		 mov	 ecx, DWORD PTR $T36307[rsp]
  00be4	8b 44 24 28	 mov	 eax, DWORD PTR T$[rsp+8]
  00be8	33 c1		 xor	 eax, ecx
  00bea	89 84 24 24 01
	00 00		 mov	 DWORD PTR $T36311[rsp], eax
  00bf1	b8 20 00 00 00	 mov	 eax, 32			; 00000020H
  00bf6	83 e8 0b	 sub	 eax, 11
  00bf9	0f b6 c8	 movzx	 ecx, al
  00bfc	8b 84 24 24 01
	00 00		 mov	 eax, DWORD PTR $T36311[rsp]
  00c03	d3 e0		 shl	 eax, cl
  00c05	8b 8c 24 24 01
	00 00		 mov	 ecx, DWORD PTR $T36311[rsp]
  00c0c	c1 e9 0b	 shr	 ecx, 11
  00c0f	0b c8		 or	 ecx, eax
  00c11	8b 44 24 28	 mov	 eax, DWORD PTR T$[rsp+8]
  00c15	33 c1		 xor	 eax, ecx
  00c17	89 84 24 28 01
	00 00		 mov	 DWORD PTR $T36315[rsp], eax
  00c1e	8b 4c 24 30	 mov	 ecx, DWORD PTR T$[rsp+16]
  00c22	8b 44 24 2c	 mov	 eax, DWORD PTR T$[rsp+12]
  00c26	33 c1		 xor	 eax, ecx
  00c28	8b 54 24 28	 mov	 edx, DWORD PTR T$[rsp+8]
  00c2c	23 d0		 and	 edx, eax
  00c2e	8b 4c 24 30	 mov	 ecx, DWORD PTR T$[rsp+16]
  00c32	8b 44 24 2c	 mov	 eax, DWORD PTR T$[rsp+12]
  00c36	23 c1		 and	 eax, ecx
  00c38	03 d0		 add	 edx, eax
  00c3a	b8 20 00 00 00	 mov	 eax, 32			; 00000020H
  00c3f	83 e8 02	 sub	 eax, 2
  00c42	0f b6 c8	 movzx	 ecx, al
  00c45	8b 84 24 28 01
	00 00		 mov	 eax, DWORD PTR $T36315[rsp]
  00c4c	d3 e0		 shl	 eax, cl
  00c4e	8b 8c 24 28 01
	00 00		 mov	 ecx, DWORD PTR $T36315[rsp]
  00c55	c1 e9 02	 shr	 ecx, 2
  00c58	0b c8		 or	 ecx, eax
  00c5a	8b c2		 mov	 eax, edx
  00c5c	03 44 24 24	 add	 eax, DWORD PTR T$[rsp+4]
  00c60	03 c1		 add	 eax, ecx
  00c62	89 44 24 24	 mov	 DWORD PTR T$[rsp+4], eax
  00c66	48 8b 84 24 28
	04 00 00	 mov	 rax, QWORD PTR data$[rsp]
  00c6e	8b 50 1c	 mov	 edx, DWORD PTR [rax+28]
  00c71	c1 e2 18	 shl	 edx, 24
  00c74	48 8b 84 24 28
	04 00 00	 mov	 rax, QWORD PTR data$[rsp]
  00c7c	8b 40 1c	 mov	 eax, DWORD PTR [rax+28]
  00c7f	c1 e0 08	 shl	 eax, 8
  00c82	25 00 00 ff 00	 and	 eax, 16711680		; 00ff0000H
  00c87	0b d0		 or	 edx, eax
  00c89	48 8b 84 24 28
	04 00 00	 mov	 rax, QWORD PTR data$[rsp]
  00c91	8b 40 1c	 mov	 eax, DWORD PTR [rax+28]
  00c94	c1 e8 08	 shr	 eax, 8
  00c97	25 00 ff 00 00	 and	 eax, 65280		; 0000ff00H
  00c9c	0b d0		 or	 edx, eax
  00c9e	48 8b 84 24 28
	04 00 00	 mov	 rax, QWORD PTR data$[rsp]
  00ca6	8b 48 1c	 mov	 ecx, DWORD PTR [rax+28]
  00ca9	c1 e9 18	 shr	 ecx, 24
  00cac	8b c2		 mov	 eax, edx
  00cae	0b c1		 or	 eax, ecx
  00cb0	89 44 24 5c	 mov	 DWORD PTR W$[rsp+28], eax
  00cb4	8b 54 24 34	 mov	 edx, DWORD PTR T$[rsp+20]
  00cb8	c1 ea 0e	 shr	 edx, 14
  00cbb	b8 20 00 00 00	 mov	 eax, 32			; 00000020H
  00cc0	83 e8 0e	 sub	 eax, 14
  00cc3	0f b6 c8	 movzx	 ecx, al
  00cc6	8b 44 24 34	 mov	 eax, DWORD PTR T$[rsp+20]
  00cca	d3 e0		 shl	 eax, cl
  00ccc	8b c8		 mov	 ecx, eax
  00cce	8b c2		 mov	 eax, edx
  00cd0	0b c1		 or	 eax, ecx
  00cd2	89 84 24 2c 01
	00 00		 mov	 DWORD PTR $T36319[rsp], eax
  00cd9	8b 8c 24 2c 01
	00 00		 mov	 ecx, DWORD PTR $T36319[rsp]
  00ce0	8b 44 24 34	 mov	 eax, DWORD PTR T$[rsp+20]
  00ce4	33 c1		 xor	 eax, ecx
  00ce6	89 84 24 30 01
	00 00		 mov	 DWORD PTR $T36323[rsp], eax
  00ced	b8 20 00 00 00	 mov	 eax, 32			; 00000020H
  00cf2	83 e8 05	 sub	 eax, 5
  00cf5	0f b6 c8	 movzx	 ecx, al
  00cf8	8b 84 24 30 01
	00 00		 mov	 eax, DWORD PTR $T36323[rsp]
  00cff	d3 e0		 shl	 eax, cl
  00d01	8b 8c 24 30 01
	00 00		 mov	 ecx, DWORD PTR $T36323[rsp]
  00d08	c1 e9 05	 shr	 ecx, 5
  00d0b	0b c8		 or	 ecx, eax
  00d0d	8b 44 24 34	 mov	 eax, DWORD PTR T$[rsp+20]
  00d11	33 c1		 xor	 eax, ecx
  00d13	89 84 24 34 01
	00 00		 mov	 DWORD PTR $T36327[rsp], eax
  00d1a	8b 44 24 3c	 mov	 eax, DWORD PTR T$[rsp+28]
  00d1e	8b 4c 24 38	 mov	 ecx, DWORD PTR T$[rsp+24]
  00d22	33 c8		 xor	 ecx, eax
  00d24	8b 44 24 34	 mov	 eax, DWORD PTR T$[rsp+20]
  00d28	23 c1		 and	 eax, ecx
  00d2a	8b 54 24 3c	 mov	 edx, DWORD PTR T$[rsp+28]
  00d2e	33 d0		 xor	 edx, eax
  00d30	b8 20 00 00 00	 mov	 eax, 32			; 00000020H
  00d35	83 e8 06	 sub	 eax, 6
  00d38	0f b6 c8	 movzx	 ecx, al
  00d3b	8b 84 24 34 01
	00 00		 mov	 eax, DWORD PTR $T36327[rsp]
  00d42	d3 e0		 shl	 eax, cl
  00d44	8b 8c 24 34 01
	00 00		 mov	 ecx, DWORD PTR $T36327[rsp]
  00d4b	c1 e9 06	 shr	 ecx, 6
  00d4e	0b c8		 or	 ecx, eax
  00d50	8b 05 1c 00 00
	00		 mov	 eax, DWORD PTR SHA256_K+28
  00d56	03 c1		 add	 eax, ecx
  00d58	8b ca		 mov	 ecx, edx
  00d5a	03 c8		 add	 ecx, eax
  00d5c	03 4c 24 5c	 add	 ecx, DWORD PTR W$[rsp+28]
  00d60	8b 44 24 20	 mov	 eax, DWORD PTR T$[rsp]
  00d64	03 c1		 add	 eax, ecx
  00d66	89 44 24 20	 mov	 DWORD PTR T$[rsp], eax
  00d6a	8b 4c 24 20	 mov	 ecx, DWORD PTR T$[rsp]
  00d6e	8b 44 24 30	 mov	 eax, DWORD PTR T$[rsp+16]
  00d72	03 c1		 add	 eax, ecx
  00d74	89 44 24 30	 mov	 DWORD PTR T$[rsp+16], eax
  00d78	8b 54 24 24	 mov	 edx, DWORD PTR T$[rsp+4]
  00d7c	c1 ea 09	 shr	 edx, 9
  00d7f	b8 20 00 00 00	 mov	 eax, 32			; 00000020H
  00d84	83 e8 09	 sub	 eax, 9
  00d87	0f b6 c8	 movzx	 ecx, al
  00d8a	8b 44 24 24	 mov	 eax, DWORD PTR T$[rsp+4]
  00d8e	d3 e0		 shl	 eax, cl
  00d90	8b c8		 mov	 ecx, eax
  00d92	8b c2		 mov	 eax, edx
  00d94	0b c1		 or	 eax, ecx
  00d96	89 84 24 38 01
	00 00		 mov	 DWORD PTR $T36331[rsp], eax
  00d9d	8b 8c 24 38 01
	00 00		 mov	 ecx, DWORD PTR $T36331[rsp]
  00da4	8b 44 24 24	 mov	 eax, DWORD PTR T$[rsp+4]
  00da8	33 c1		 xor	 eax, ecx
  00daa	89 84 24 3c 01
	00 00		 mov	 DWORD PTR $T36335[rsp], eax
  00db1	b8 20 00 00 00	 mov	 eax, 32			; 00000020H
  00db6	83 e8 0b	 sub	 eax, 11
  00db9	0f b6 c8	 movzx	 ecx, al
  00dbc	8b 84 24 3c 01
	00 00		 mov	 eax, DWORD PTR $T36335[rsp]
  00dc3	d3 e0		 shl	 eax, cl
  00dc5	8b 8c 24 3c 01
	00 00		 mov	 ecx, DWORD PTR $T36335[rsp]
  00dcc	c1 e9 0b	 shr	 ecx, 11
  00dcf	0b c8		 or	 ecx, eax
  00dd1	8b 44 24 24	 mov	 eax, DWORD PTR T$[rsp+4]
  00dd5	33 c1		 xor	 eax, ecx
  00dd7	89 84 24 40 01
	00 00		 mov	 DWORD PTR $T36339[rsp], eax
  00dde	8b 4c 24 2c	 mov	 ecx, DWORD PTR T$[rsp+12]
  00de2	8b 44 24 28	 mov	 eax, DWORD PTR T$[rsp+8]
  00de6	33 c1		 xor	 eax, ecx
  00de8	8b 54 24 24	 mov	 edx, DWORD PTR T$[rsp+4]
  00dec	23 d0		 and	 edx, eax
  00dee	8b 4c 24 2c	 mov	 ecx, DWORD PTR T$[rsp+12]
  00df2	8b 44 24 28	 mov	 eax, DWORD PTR T$[rsp+8]
  00df6	23 c1		 and	 eax, ecx
  00df8	03 d0		 add	 edx, eax
  00dfa	b8 20 00 00 00	 mov	 eax, 32			; 00000020H
  00dff	83 e8 02	 sub	 eax, 2
  00e02	0f b6 c8	 movzx	 ecx, al
  00e05	8b 84 24 40 01
	00 00		 mov	 eax, DWORD PTR $T36339[rsp]
  00e0c	d3 e0		 shl	 eax, cl
  00e0e	8b 8c 24 40 01
	00 00		 mov	 ecx, DWORD PTR $T36339[rsp]
  00e15	c1 e9 02	 shr	 ecx, 2
  00e18	0b c8		 or	 ecx, eax
  00e1a	8b c2		 mov	 eax, edx
  00e1c	03 44 24 20	 add	 eax, DWORD PTR T$[rsp]
  00e20	03 c1		 add	 eax, ecx
  00e22	89 44 24 20	 mov	 DWORD PTR T$[rsp], eax

; 95   : 	R0( 8); R0( 9); R0(10); R0(11);

  00e26	48 8b 84 24 28
	04 00 00	 mov	 rax, QWORD PTR data$[rsp]
  00e2e	8b 50 20	 mov	 edx, DWORD PTR [rax+32]
  00e31	c1 e2 18	 shl	 edx, 24
  00e34	48 8b 84 24 28
	04 00 00	 mov	 rax, QWORD PTR data$[rsp]
  00e3c	8b 40 20	 mov	 eax, DWORD PTR [rax+32]
  00e3f	c1 e0 08	 shl	 eax, 8
  00e42	25 00 00 ff 00	 and	 eax, 16711680		; 00ff0000H
  00e47	0b d0		 or	 edx, eax
  00e49	48 8b 84 24 28
	04 00 00	 mov	 rax, QWORD PTR data$[rsp]
  00e51	8b 40 20	 mov	 eax, DWORD PTR [rax+32]
  00e54	c1 e8 08	 shr	 eax, 8
  00e57	25 00 ff 00 00	 and	 eax, 65280		; 0000ff00H
  00e5c	0b d0		 or	 edx, eax
  00e5e	48 8b 84 24 28
	04 00 00	 mov	 rax, QWORD PTR data$[rsp]
  00e66	8b 48 20	 mov	 ecx, DWORD PTR [rax+32]
  00e69	c1 e9 18	 shr	 ecx, 24
  00e6c	8b c2		 mov	 eax, edx
  00e6e	0b c1		 or	 eax, ecx
  00e70	89 44 24 60	 mov	 DWORD PTR W$[rsp+32], eax
  00e74	8b 54 24 30	 mov	 edx, DWORD PTR T$[rsp+16]
  00e78	c1 ea 0e	 shr	 edx, 14
  00e7b	b8 20 00 00 00	 mov	 eax, 32			; 00000020H
  00e80	83 e8 0e	 sub	 eax, 14
  00e83	0f b6 c8	 movzx	 ecx, al
  00e86	8b 44 24 30	 mov	 eax, DWORD PTR T$[rsp+16]
  00e8a	d3 e0		 shl	 eax, cl
  00e8c	8b c8		 mov	 ecx, eax
  00e8e	8b c2		 mov	 eax, edx
  00e90	0b c1		 or	 eax, ecx
  00e92	89 84 24 44 01
	00 00		 mov	 DWORD PTR $T36343[rsp], eax
  00e99	8b 8c 24 44 01
	00 00		 mov	 ecx, DWORD PTR $T36343[rsp]
  00ea0	8b 44 24 30	 mov	 eax, DWORD PTR T$[rsp+16]
  00ea4	33 c1		 xor	 eax, ecx
  00ea6	89 84 24 48 01
	00 00		 mov	 DWORD PTR $T36347[rsp], eax
  00ead	b8 20 00 00 00	 mov	 eax, 32			; 00000020H
  00eb2	83 e8 05	 sub	 eax, 5
  00eb5	0f b6 c8	 movzx	 ecx, al
  00eb8	8b 84 24 48 01
	00 00		 mov	 eax, DWORD PTR $T36347[rsp]
  00ebf	d3 e0		 shl	 eax, cl
  00ec1	8b 8c 24 48 01
	00 00		 mov	 ecx, DWORD PTR $T36347[rsp]
  00ec8	c1 e9 05	 shr	 ecx, 5
  00ecb	0b c8		 or	 ecx, eax
  00ecd	8b 44 24 30	 mov	 eax, DWORD PTR T$[rsp+16]
  00ed1	33 c1		 xor	 eax, ecx
  00ed3	89 84 24 4c 01
	00 00		 mov	 DWORD PTR $T36351[rsp], eax
  00eda	8b 44 24 38	 mov	 eax, DWORD PTR T$[rsp+24]
  00ede	8b 4c 24 34	 mov	 ecx, DWORD PTR T$[rsp+20]
  00ee2	33 c8		 xor	 ecx, eax
  00ee4	8b 44 24 30	 mov	 eax, DWORD PTR T$[rsp+16]
  00ee8	23 c1		 and	 eax, ecx
  00eea	8b 54 24 38	 mov	 edx, DWORD PTR T$[rsp+24]
  00eee	33 d0		 xor	 edx, eax
  00ef0	b8 20 00 00 00	 mov	 eax, 32			; 00000020H
  00ef5	83 e8 06	 sub	 eax, 6
  00ef8	0f b6 c8	 movzx	 ecx, al
  00efb	8b 84 24 4c 01
	00 00		 mov	 eax, DWORD PTR $T36351[rsp]
  00f02	d3 e0		 shl	 eax, cl
  00f04	8b 8c 24 4c 01
	00 00		 mov	 ecx, DWORD PTR $T36351[rsp]
  00f0b	c1 e9 06	 shr	 ecx, 6
  00f0e	0b c8		 or	 ecx, eax
  00f10	8b 05 20 00 00
	00		 mov	 eax, DWORD PTR SHA256_K+32
  00f16	03 c1		 add	 eax, ecx
  00f18	8b ca		 mov	 ecx, edx
  00f1a	03 c8		 add	 ecx, eax
  00f1c	03 4c 24 60	 add	 ecx, DWORD PTR W$[rsp+32]
  00f20	8b 44 24 3c	 mov	 eax, DWORD PTR T$[rsp+28]
  00f24	03 c1		 add	 eax, ecx
  00f26	89 44 24 3c	 mov	 DWORD PTR T$[rsp+28], eax
  00f2a	8b 4c 24 3c	 mov	 ecx, DWORD PTR T$[rsp+28]
  00f2e	8b 44 24 2c	 mov	 eax, DWORD PTR T$[rsp+12]
  00f32	03 c1		 add	 eax, ecx
  00f34	89 44 24 2c	 mov	 DWORD PTR T$[rsp+12], eax
  00f38	8b 54 24 20	 mov	 edx, DWORD PTR T$[rsp]
  00f3c	c1 ea 09	 shr	 edx, 9
  00f3f	b8 20 00 00 00	 mov	 eax, 32			; 00000020H
  00f44	83 e8 09	 sub	 eax, 9
  00f47	0f b6 c8	 movzx	 ecx, al
  00f4a	8b 44 24 20	 mov	 eax, DWORD PTR T$[rsp]
  00f4e	d3 e0		 shl	 eax, cl
  00f50	8b c8		 mov	 ecx, eax
  00f52	8b c2		 mov	 eax, edx
  00f54	0b c1		 or	 eax, ecx
  00f56	89 84 24 50 01
	00 00		 mov	 DWORD PTR $T36355[rsp], eax
  00f5d	8b 8c 24 50 01
	00 00		 mov	 ecx, DWORD PTR $T36355[rsp]
  00f64	8b 44 24 20	 mov	 eax, DWORD PTR T$[rsp]
  00f68	33 c1		 xor	 eax, ecx
  00f6a	89 84 24 54 01
	00 00		 mov	 DWORD PTR $T36359[rsp], eax
  00f71	b8 20 00 00 00	 mov	 eax, 32			; 00000020H
  00f76	83 e8 0b	 sub	 eax, 11
  00f79	0f b6 c8	 movzx	 ecx, al
  00f7c	8b 84 24 54 01
	00 00		 mov	 eax, DWORD PTR $T36359[rsp]
  00f83	d3 e0		 shl	 eax, cl
  00f85	8b 8c 24 54 01
	00 00		 mov	 ecx, DWORD PTR $T36359[rsp]
  00f8c	c1 e9 0b	 shr	 ecx, 11
  00f8f	0b c8		 or	 ecx, eax
  00f91	8b 44 24 20	 mov	 eax, DWORD PTR T$[rsp]
  00f95	33 c1		 xor	 eax, ecx
  00f97	89 84 24 58 01
	00 00		 mov	 DWORD PTR $T36363[rsp], eax
  00f9e	8b 4c 24 28	 mov	 ecx, DWORD PTR T$[rsp+8]
  00fa2	8b 44 24 24	 mov	 eax, DWORD PTR T$[rsp+4]
  00fa6	33 c1		 xor	 eax, ecx
  00fa8	8b 54 24 20	 mov	 edx, DWORD PTR T$[rsp]
  00fac	23 d0		 and	 edx, eax
  00fae	8b 4c 24 28	 mov	 ecx, DWORD PTR T$[rsp+8]
  00fb2	8b 44 24 24	 mov	 eax, DWORD PTR T$[rsp+4]
  00fb6	23 c1		 and	 eax, ecx
  00fb8	03 d0		 add	 edx, eax
  00fba	b8 20 00 00 00	 mov	 eax, 32			; 00000020H
  00fbf	83 e8 02	 sub	 eax, 2
  00fc2	0f b6 c8	 movzx	 ecx, al
  00fc5	8b 84 24 58 01
	00 00		 mov	 eax, DWORD PTR $T36363[rsp]
  00fcc	d3 e0		 shl	 eax, cl
  00fce	8b 8c 24 58 01
	00 00		 mov	 ecx, DWORD PTR $T36363[rsp]
  00fd5	c1 e9 02	 shr	 ecx, 2
  00fd8	0b c8		 or	 ecx, eax
  00fda	8b c2		 mov	 eax, edx
  00fdc	03 44 24 3c	 add	 eax, DWORD PTR T$[rsp+28]
  00fe0	03 c1		 add	 eax, ecx
  00fe2	89 44 24 3c	 mov	 DWORD PTR T$[rsp+28], eax
  00fe6	48 8b 84 24 28
	04 00 00	 mov	 rax, QWORD PTR data$[rsp]
  00fee	8b 50 24	 mov	 edx, DWORD PTR [rax+36]
  00ff1	c1 e2 18	 shl	 edx, 24
  00ff4	48 8b 84 24 28
	04 00 00	 mov	 rax, QWORD PTR data$[rsp]
  00ffc	8b 40 24	 mov	 eax, DWORD PTR [rax+36]
  00fff	c1 e0 08	 shl	 eax, 8
  01002	25 00 00 ff 00	 and	 eax, 16711680		; 00ff0000H
  01007	0b d0		 or	 edx, eax
  01009	48 8b 84 24 28
	04 00 00	 mov	 rax, QWORD PTR data$[rsp]
  01011	8b 40 24	 mov	 eax, DWORD PTR [rax+36]
  01014	c1 e8 08	 shr	 eax, 8
  01017	25 00 ff 00 00	 and	 eax, 65280		; 0000ff00H
  0101c	0b d0		 or	 edx, eax
  0101e	48 8b 84 24 28
	04 00 00	 mov	 rax, QWORD PTR data$[rsp]
  01026	8b 48 24	 mov	 ecx, DWORD PTR [rax+36]
  01029	c1 e9 18	 shr	 ecx, 24
  0102c	8b c2		 mov	 eax, edx
  0102e	0b c1		 or	 eax, ecx
  01030	89 44 24 64	 mov	 DWORD PTR W$[rsp+36], eax
  01034	8b 54 24 2c	 mov	 edx, DWORD PTR T$[rsp+12]
  01038	c1 ea 0e	 shr	 edx, 14
  0103b	b8 20 00 00 00	 mov	 eax, 32			; 00000020H
  01040	83 e8 0e	 sub	 eax, 14
  01043	0f b6 c8	 movzx	 ecx, al
  01046	8b 44 24 2c	 mov	 eax, DWORD PTR T$[rsp+12]
  0104a	d3 e0		 shl	 eax, cl
  0104c	8b c8		 mov	 ecx, eax
  0104e	8b c2		 mov	 eax, edx
  01050	0b c1		 or	 eax, ecx
  01052	89 84 24 5c 01
	00 00		 mov	 DWORD PTR $T36367[rsp], eax
  01059	8b 8c 24 5c 01
	00 00		 mov	 ecx, DWORD PTR $T36367[rsp]
  01060	8b 44 24 2c	 mov	 eax, DWORD PTR T$[rsp+12]
  01064	33 c1		 xor	 eax, ecx
  01066	89 84 24 60 01
	00 00		 mov	 DWORD PTR $T36371[rsp], eax
  0106d	b8 20 00 00 00	 mov	 eax, 32			; 00000020H
  01072	83 e8 05	 sub	 eax, 5
  01075	0f b6 c8	 movzx	 ecx, al
  01078	8b 84 24 60 01
	00 00		 mov	 eax, DWORD PTR $T36371[rsp]
  0107f	d3 e0		 shl	 eax, cl
  01081	8b 8c 24 60 01
	00 00		 mov	 ecx, DWORD PTR $T36371[rsp]
  01088	c1 e9 05	 shr	 ecx, 5
  0108b	0b c8		 or	 ecx, eax
  0108d	8b 44 24 2c	 mov	 eax, DWORD PTR T$[rsp+12]
  01091	33 c1		 xor	 eax, ecx
  01093	89 84 24 64 01
	00 00		 mov	 DWORD PTR $T36375[rsp], eax
  0109a	8b 44 24 34	 mov	 eax, DWORD PTR T$[rsp+20]
  0109e	8b 4c 24 30	 mov	 ecx, DWORD PTR T$[rsp+16]
  010a2	33 c8		 xor	 ecx, eax
  010a4	8b 44 24 2c	 mov	 eax, DWORD PTR T$[rsp+12]
  010a8	23 c1		 and	 eax, ecx
  010aa	8b 54 24 34	 mov	 edx, DWORD PTR T$[rsp+20]
  010ae	33 d0		 xor	 edx, eax
  010b0	b8 20 00 00 00	 mov	 eax, 32			; 00000020H
  010b5	83 e8 06	 sub	 eax, 6
  010b8	0f b6 c8	 movzx	 ecx, al
  010bb	8b 84 24 64 01
	00 00		 mov	 eax, DWORD PTR $T36375[rsp]
  010c2	d3 e0		 shl	 eax, cl
  010c4	8b 8c 24 64 01
	00 00		 mov	 ecx, DWORD PTR $T36375[rsp]
  010cb	c1 e9 06	 shr	 ecx, 6
  010ce	0b c8		 or	 ecx, eax
  010d0	8b 05 24 00 00
	00		 mov	 eax, DWORD PTR SHA256_K+36
  010d6	03 c1		 add	 eax, ecx
  010d8	8b ca		 mov	 ecx, edx
  010da	03 c8		 add	 ecx, eax
  010dc	03 4c 24 64	 add	 ecx, DWORD PTR W$[rsp+36]
  010e0	8b 44 24 38	 mov	 eax, DWORD PTR T$[rsp+24]
  010e4	03 c1		 add	 eax, ecx
  010e6	89 44 24 38	 mov	 DWORD PTR T$[rsp+24], eax
  010ea	8b 4c 24 38	 mov	 ecx, DWORD PTR T$[rsp+24]
  010ee	8b 44 24 28	 mov	 eax, DWORD PTR T$[rsp+8]
  010f2	03 c1		 add	 eax, ecx
  010f4	89 44 24 28	 mov	 DWORD PTR T$[rsp+8], eax
  010f8	8b 54 24 3c	 mov	 edx, DWORD PTR T$[rsp+28]
  010fc	c1 ea 09	 shr	 edx, 9
  010ff	b8 20 00 00 00	 mov	 eax, 32			; 00000020H
  01104	83 e8 09	 sub	 eax, 9
  01107	0f b6 c8	 movzx	 ecx, al
  0110a	8b 44 24 3c	 mov	 eax, DWORD PTR T$[rsp+28]
  0110e	d3 e0		 shl	 eax, cl
  01110	8b c8		 mov	 ecx, eax
  01112	8b c2		 mov	 eax, edx
  01114	0b c1		 or	 eax, ecx
  01116	89 84 24 68 01
	00 00		 mov	 DWORD PTR $T36379[rsp], eax
  0111d	8b 8c 24 68 01
	00 00		 mov	 ecx, DWORD PTR $T36379[rsp]
  01124	8b 44 24 3c	 mov	 eax, DWORD PTR T$[rsp+28]
  01128	33 c1		 xor	 eax, ecx
  0112a	89 84 24 6c 01
	00 00		 mov	 DWORD PTR $T36383[rsp], eax
  01131	b8 20 00 00 00	 mov	 eax, 32			; 00000020H
  01136	83 e8 0b	 sub	 eax, 11
  01139	0f b6 c8	 movzx	 ecx, al
  0113c	8b 84 24 6c 01
	00 00		 mov	 eax, DWORD PTR $T36383[rsp]
  01143	d3 e0		 shl	 eax, cl
  01145	8b 8c 24 6c 01
	00 00		 mov	 ecx, DWORD PTR $T36383[rsp]
  0114c	c1 e9 0b	 shr	 ecx, 11
  0114f	0b c8		 or	 ecx, eax
  01151	8b 44 24 3c	 mov	 eax, DWORD PTR T$[rsp+28]
  01155	33 c1		 xor	 eax, ecx
  01157	89 84 24 70 01
	00 00		 mov	 DWORD PTR $T36387[rsp], eax
  0115e	8b 4c 24 24	 mov	 ecx, DWORD PTR T$[rsp+4]
  01162	8b 44 24 20	 mov	 eax, DWORD PTR T$[rsp]
  01166	33 c1		 xor	 eax, ecx
  01168	8b 54 24 3c	 mov	 edx, DWORD PTR T$[rsp+28]
  0116c	23 d0		 and	 edx, eax
  0116e	8b 4c 24 24	 mov	 ecx, DWORD PTR T$[rsp+4]
  01172	8b 44 24 20	 mov	 eax, DWORD PTR T$[rsp]
  01176	23 c1		 and	 eax, ecx
  01178	03 d0		 add	 edx, eax
  0117a	b8 20 00 00 00	 mov	 eax, 32			; 00000020H
  0117f	83 e8 02	 sub	 eax, 2
  01182	0f b6 c8	 movzx	 ecx, al
  01185	8b 84 24 70 01
	00 00		 mov	 eax, DWORD PTR $T36387[rsp]
  0118c	d3 e0		 shl	 eax, cl
  0118e	8b 8c 24 70 01
	00 00		 mov	 ecx, DWORD PTR $T36387[rsp]
  01195	c1 e9 02	 shr	 ecx, 2
  01198	0b c8		 or	 ecx, eax
  0119a	8b c2		 mov	 eax, edx
  0119c	03 44 24 38	 add	 eax, DWORD PTR T$[rsp+24]
  011a0	03 c1		 add	 eax, ecx
  011a2	89 44 24 38	 mov	 DWORD PTR T$[rsp+24], eax
  011a6	48 8b 84 24 28
	04 00 00	 mov	 rax, QWORD PTR data$[rsp]
  011ae	8b 50 28	 mov	 edx, DWORD PTR [rax+40]
  011b1	c1 e2 18	 shl	 edx, 24
  011b4	48 8b 84 24 28
	04 00 00	 mov	 rax, QWORD PTR data$[rsp]
  011bc	8b 40 28	 mov	 eax, DWORD PTR [rax+40]
  011bf	c1 e0 08	 shl	 eax, 8
  011c2	25 00 00 ff 00	 and	 eax, 16711680		; 00ff0000H
  011c7	0b d0		 or	 edx, eax
  011c9	48 8b 84 24 28
	04 00 00	 mov	 rax, QWORD PTR data$[rsp]
  011d1	8b 40 28	 mov	 eax, DWORD PTR [rax+40]
  011d4	c1 e8 08	 shr	 eax, 8
  011d7	25 00 ff 00 00	 and	 eax, 65280		; 0000ff00H
  011dc	0b d0		 or	 edx, eax
  011de	48 8b 84 24 28
	04 00 00	 mov	 rax, QWORD PTR data$[rsp]
  011e6	8b 48 28	 mov	 ecx, DWORD PTR [rax+40]
  011e9	c1 e9 18	 shr	 ecx, 24
  011ec	8b c2		 mov	 eax, edx
  011ee	0b c1		 or	 eax, ecx
  011f0	89 44 24 68	 mov	 DWORD PTR W$[rsp+40], eax
  011f4	8b 54 24 28	 mov	 edx, DWORD PTR T$[rsp+8]
  011f8	c1 ea 0e	 shr	 edx, 14
  011fb	b8 20 00 00 00	 mov	 eax, 32			; 00000020H
  01200	83 e8 0e	 sub	 eax, 14
  01203	0f b6 c8	 movzx	 ecx, al
  01206	8b 44 24 28	 mov	 eax, DWORD PTR T$[rsp+8]
  0120a	d3 e0		 shl	 eax, cl
  0120c	8b c8		 mov	 ecx, eax
  0120e	8b c2		 mov	 eax, edx
  01210	0b c1		 or	 eax, ecx
  01212	89 84 24 74 01
	00 00		 mov	 DWORD PTR $T36391[rsp], eax
  01219	8b 8c 24 74 01
	00 00		 mov	 ecx, DWORD PTR $T36391[rsp]
  01220	8b 44 24 28	 mov	 eax, DWORD PTR T$[rsp+8]
  01224	33 c1		 xor	 eax, ecx
  01226	89 84 24 78 01
	00 00		 mov	 DWORD PTR $T36395[rsp], eax
  0122d	b8 20 00 00 00	 mov	 eax, 32			; 00000020H
  01232	83 e8 05	 sub	 eax, 5
  01235	0f b6 c8	 movzx	 ecx, al
  01238	8b 84 24 78 01
	00 00		 mov	 eax, DWORD PTR $T36395[rsp]
  0123f	d3 e0		 shl	 eax, cl
  01241	8b 8c 24 78 01
	00 00		 mov	 ecx, DWORD PTR $T36395[rsp]
  01248	c1 e9 05	 shr	 ecx, 5
  0124b	0b c8		 or	 ecx, eax
  0124d	8b 44 24 28	 mov	 eax, DWORD PTR T$[rsp+8]
  01251	33 c1		 xor	 eax, ecx
  01253	89 84 24 7c 01
	00 00		 mov	 DWORD PTR $T36399[rsp], eax
  0125a	8b 44 24 30	 mov	 eax, DWORD PTR T$[rsp+16]
  0125e	8b 4c 24 2c	 mov	 ecx, DWORD PTR T$[rsp+12]
  01262	33 c8		 xor	 ecx, eax
  01264	8b 44 24 28	 mov	 eax, DWORD PTR T$[rsp+8]
  01268	23 c1		 and	 eax, ecx
  0126a	8b 54 24 30	 mov	 edx, DWORD PTR T$[rsp+16]
  0126e	33 d0		 xor	 edx, eax
  01270	b8 20 00 00 00	 mov	 eax, 32			; 00000020H
  01275	83 e8 06	 sub	 eax, 6
  01278	0f b6 c8	 movzx	 ecx, al
  0127b	8b 84 24 7c 01
	00 00		 mov	 eax, DWORD PTR $T36399[rsp]
  01282	d3 e0		 shl	 eax, cl
  01284	8b 8c 24 7c 01
	00 00		 mov	 ecx, DWORD PTR $T36399[rsp]
  0128b	c1 e9 06	 shr	 ecx, 6
  0128e	0b c8		 or	 ecx, eax
  01290	8b 05 28 00 00
	00		 mov	 eax, DWORD PTR SHA256_K+40
  01296	03 c1		 add	 eax, ecx
  01298	8b ca		 mov	 ecx, edx
  0129a	03 c8		 add	 ecx, eax
  0129c	03 4c 24 68	 add	 ecx, DWORD PTR W$[rsp+40]
  012a0	8b 44 24 34	 mov	 eax, DWORD PTR T$[rsp+20]
  012a4	03 c1		 add	 eax, ecx
  012a6	89 44 24 34	 mov	 DWORD PTR T$[rsp+20], eax
  012aa	8b 4c 24 34	 mov	 ecx, DWORD PTR T$[rsp+20]
  012ae	8b 44 24 24	 mov	 eax, DWORD PTR T$[rsp+4]
  012b2	03 c1		 add	 eax, ecx
  012b4	89 44 24 24	 mov	 DWORD PTR T$[rsp+4], eax
  012b8	8b 54 24 38	 mov	 edx, DWORD PTR T$[rsp+24]
  012bc	c1 ea 09	 shr	 edx, 9
  012bf	b8 20 00 00 00	 mov	 eax, 32			; 00000020H
  012c4	83 e8 09	 sub	 eax, 9
  012c7	0f b6 c8	 movzx	 ecx, al
  012ca	8b 44 24 38	 mov	 eax, DWORD PTR T$[rsp+24]
  012ce	d3 e0		 shl	 eax, cl
  012d0	8b c8		 mov	 ecx, eax
  012d2	8b c2		 mov	 eax, edx
  012d4	0b c1		 or	 eax, ecx
  012d6	89 84 24 80 01
	00 00		 mov	 DWORD PTR $T36403[rsp], eax
  012dd	8b 8c 24 80 01
	00 00		 mov	 ecx, DWORD PTR $T36403[rsp]
  012e4	8b 44 24 38	 mov	 eax, DWORD PTR T$[rsp+24]
  012e8	33 c1		 xor	 eax, ecx
  012ea	89 84 24 84 01
	00 00		 mov	 DWORD PTR $T36407[rsp], eax
  012f1	b8 20 00 00 00	 mov	 eax, 32			; 00000020H
  012f6	83 e8 0b	 sub	 eax, 11
  012f9	0f b6 c8	 movzx	 ecx, al
  012fc	8b 84 24 84 01
	00 00		 mov	 eax, DWORD PTR $T36407[rsp]
  01303	d3 e0		 shl	 eax, cl
  01305	8b 8c 24 84 01
	00 00		 mov	 ecx, DWORD PTR $T36407[rsp]
  0130c	c1 e9 0b	 shr	 ecx, 11
  0130f	0b c8		 or	 ecx, eax
  01311	8b 44 24 38	 mov	 eax, DWORD PTR T$[rsp+24]
  01315	33 c1		 xor	 eax, ecx
  01317	89 84 24 88 01
	00 00		 mov	 DWORD PTR $T36411[rsp], eax
  0131e	8b 4c 24 20	 mov	 ecx, DWORD PTR T$[rsp]
  01322	8b 44 24 3c	 mov	 eax, DWORD PTR T$[rsp+28]
  01326	33 c1		 xor	 eax, ecx
  01328	8b 54 24 38	 mov	 edx, DWORD PTR T$[rsp+24]
  0132c	23 d0		 and	 edx, eax
  0132e	8b 4c 24 20	 mov	 ecx, DWORD PTR T$[rsp]
  01332	8b 44 24 3c	 mov	 eax, DWORD PTR T$[rsp+28]
  01336	23 c1		 and	 eax, ecx
  01338	03 d0		 add	 edx, eax
  0133a	b8 20 00 00 00	 mov	 eax, 32			; 00000020H
  0133f	83 e8 02	 sub	 eax, 2
  01342	0f b6 c8	 movzx	 ecx, al
  01345	8b 84 24 88 01
	00 00		 mov	 eax, DWORD PTR $T36411[rsp]
  0134c	d3 e0		 shl	 eax, cl
  0134e	8b 8c 24 88 01
	00 00		 mov	 ecx, DWORD PTR $T36411[rsp]
  01355	c1 e9 02	 shr	 ecx, 2
  01358	0b c8		 or	 ecx, eax
  0135a	8b c2		 mov	 eax, edx
  0135c	03 44 24 34	 add	 eax, DWORD PTR T$[rsp+20]
  01360	03 c1		 add	 eax, ecx
  01362	89 44 24 34	 mov	 DWORD PTR T$[rsp+20], eax
  01366	48 8b 84 24 28
	04 00 00	 mov	 rax, QWORD PTR data$[rsp]
  0136e	8b 50 2c	 mov	 edx, DWORD PTR [rax+44]
  01371	c1 e2 18	 shl	 edx, 24
  01374	48 8b 84 24 28
	04 00 00	 mov	 rax, QWORD PTR data$[rsp]
  0137c	8b 40 2c	 mov	 eax, DWORD PTR [rax+44]
  0137f	c1 e0 08	 shl	 eax, 8
  01382	25 00 00 ff 00	 and	 eax, 16711680		; 00ff0000H
  01387	0b d0		 or	 edx, eax
  01389	48 8b 84 24 28
	04 00 00	 mov	 rax, QWORD PTR data$[rsp]
  01391	8b 40 2c	 mov	 eax, DWORD PTR [rax+44]
  01394	c1 e8 08	 shr	 eax, 8
  01397	25 00 ff 00 00	 and	 eax, 65280		; 0000ff00H
  0139c	0b d0		 or	 edx, eax
  0139e	48 8b 84 24 28
	04 00 00	 mov	 rax, QWORD PTR data$[rsp]
  013a6	8b 48 2c	 mov	 ecx, DWORD PTR [rax+44]
  013a9	c1 e9 18	 shr	 ecx, 24
  013ac	8b c2		 mov	 eax, edx
  013ae	0b c1		 or	 eax, ecx
  013b0	89 44 24 6c	 mov	 DWORD PTR W$[rsp+44], eax
  013b4	8b 54 24 24	 mov	 edx, DWORD PTR T$[rsp+4]
  013b8	c1 ea 0e	 shr	 edx, 14
  013bb	b8 20 00 00 00	 mov	 eax, 32			; 00000020H
  013c0	83 e8 0e	 sub	 eax, 14
  013c3	0f b6 c8	 movzx	 ecx, al
  013c6	8b 44 24 24	 mov	 eax, DWORD PTR T$[rsp+4]
  013ca	d3 e0		 shl	 eax, cl
  013cc	8b c8		 mov	 ecx, eax
  013ce	8b c2		 mov	 eax, edx
  013d0	0b c1		 or	 eax, ecx
  013d2	89 84 24 8c 01
	00 00		 mov	 DWORD PTR $T36415[rsp], eax
  013d9	8b 8c 24 8c 01
	00 00		 mov	 ecx, DWORD PTR $T36415[rsp]
  013e0	8b 44 24 24	 mov	 eax, DWORD PTR T$[rsp+4]
  013e4	33 c1		 xor	 eax, ecx
  013e6	89 84 24 90 01
	00 00		 mov	 DWORD PTR $T36419[rsp], eax
  013ed	b8 20 00 00 00	 mov	 eax, 32			; 00000020H
  013f2	83 e8 05	 sub	 eax, 5
  013f5	0f b6 c8	 movzx	 ecx, al
  013f8	8b 84 24 90 01
	00 00		 mov	 eax, DWORD PTR $T36419[rsp]
  013ff	d3 e0		 shl	 eax, cl
  01401	8b 8c 24 90 01
	00 00		 mov	 ecx, DWORD PTR $T36419[rsp]
  01408	c1 e9 05	 shr	 ecx, 5
  0140b	0b c8		 or	 ecx, eax
  0140d	8b 44 24 24	 mov	 eax, DWORD PTR T$[rsp+4]
  01411	33 c1		 xor	 eax, ecx
  01413	89 84 24 94 01
	00 00		 mov	 DWORD PTR $T36423[rsp], eax
  0141a	8b 44 24 2c	 mov	 eax, DWORD PTR T$[rsp+12]
  0141e	8b 4c 24 28	 mov	 ecx, DWORD PTR T$[rsp+8]
  01422	33 c8		 xor	 ecx, eax
  01424	8b 44 24 24	 mov	 eax, DWORD PTR T$[rsp+4]
  01428	23 c1		 and	 eax, ecx
  0142a	8b 54 24 2c	 mov	 edx, DWORD PTR T$[rsp+12]
  0142e	33 d0		 xor	 edx, eax
  01430	b8 20 00 00 00	 mov	 eax, 32			; 00000020H
  01435	83 e8 06	 sub	 eax, 6
  01438	0f b6 c8	 movzx	 ecx, al
  0143b	8b 84 24 94 01
	00 00		 mov	 eax, DWORD PTR $T36423[rsp]
  01442	d3 e0		 shl	 eax, cl
  01444	8b 8c 24 94 01
	00 00		 mov	 ecx, DWORD PTR $T36423[rsp]
  0144b	c1 e9 06	 shr	 ecx, 6
  0144e	0b c8		 or	 ecx, eax
  01450	8b 05 2c 00 00
	00		 mov	 eax, DWORD PTR SHA256_K+44
  01456	03 c1		 add	 eax, ecx
  01458	8b ca		 mov	 ecx, edx
  0145a	03 c8		 add	 ecx, eax
  0145c	03 4c 24 6c	 add	 ecx, DWORD PTR W$[rsp+44]
  01460	8b 44 24 30	 mov	 eax, DWORD PTR T$[rsp+16]
  01464	03 c1		 add	 eax, ecx
  01466	89 44 24 30	 mov	 DWORD PTR T$[rsp+16], eax
  0146a	8b 4c 24 30	 mov	 ecx, DWORD PTR T$[rsp+16]
  0146e	8b 44 24 20	 mov	 eax, DWORD PTR T$[rsp]
  01472	03 c1		 add	 eax, ecx
  01474	89 44 24 20	 mov	 DWORD PTR T$[rsp], eax
  01478	8b 54 24 34	 mov	 edx, DWORD PTR T$[rsp+20]
  0147c	c1 ea 09	 shr	 edx, 9
  0147f	b8 20 00 00 00	 mov	 eax, 32			; 00000020H
  01484	83 e8 09	 sub	 eax, 9
  01487	0f b6 c8	 movzx	 ecx, al
  0148a	8b 44 24 34	 mov	 eax, DWORD PTR T$[rsp+20]
  0148e	d3 e0		 shl	 eax, cl
  01490	8b c8		 mov	 ecx, eax
  01492	8b c2		 mov	 eax, edx
  01494	0b c1		 or	 eax, ecx
  01496	89 84 24 98 01
	00 00		 mov	 DWORD PTR $T36427[rsp], eax
  0149d	8b 8c 24 98 01
	00 00		 mov	 ecx, DWORD PTR $T36427[rsp]
  014a4	8b 44 24 34	 mov	 eax, DWORD PTR T$[rsp+20]
  014a8	33 c1		 xor	 eax, ecx
  014aa	89 84 24 9c 01
	00 00		 mov	 DWORD PTR $T36431[rsp], eax
  014b1	b8 20 00 00 00	 mov	 eax, 32			; 00000020H
  014b6	83 e8 0b	 sub	 eax, 11
  014b9	0f b6 c8	 movzx	 ecx, al
  014bc	8b 84 24 9c 01
	00 00		 mov	 eax, DWORD PTR $T36431[rsp]
  014c3	d3 e0		 shl	 eax, cl
  014c5	8b 8c 24 9c 01
	00 00		 mov	 ecx, DWORD PTR $T36431[rsp]
  014cc	c1 e9 0b	 shr	 ecx, 11
  014cf	0b c8		 or	 ecx, eax
  014d1	8b 44 24 34	 mov	 eax, DWORD PTR T$[rsp+20]
  014d5	33 c1		 xor	 eax, ecx
  014d7	89 84 24 a0 01
	00 00		 mov	 DWORD PTR $T36435[rsp], eax
  014de	8b 4c 24 3c	 mov	 ecx, DWORD PTR T$[rsp+28]
  014e2	8b 44 24 38	 mov	 eax, DWORD PTR T$[rsp+24]
  014e6	33 c1		 xor	 eax, ecx
  014e8	8b 54 24 34	 mov	 edx, DWORD PTR T$[rsp+20]
  014ec	23 d0		 and	 edx, eax
  014ee	8b 4c 24 3c	 mov	 ecx, DWORD PTR T$[rsp+28]
  014f2	8b 44 24 38	 mov	 eax, DWORD PTR T$[rsp+24]
  014f6	23 c1		 and	 eax, ecx
  014f8	03 d0		 add	 edx, eax
  014fa	b8 20 00 00 00	 mov	 eax, 32			; 00000020H
  014ff	83 e8 02	 sub	 eax, 2
  01502	0f b6 c8	 movzx	 ecx, al
  01505	8b 84 24 a0 01
	00 00		 mov	 eax, DWORD PTR $T36435[rsp]
  0150c	d3 e0		 shl	 eax, cl
  0150e	8b 8c 24 a0 01
	00 00		 mov	 ecx, DWORD PTR $T36435[rsp]
  01515	c1 e9 02	 shr	 ecx, 2
  01518	0b c8		 or	 ecx, eax
  0151a	8b c2		 mov	 eax, edx
  0151c	03 44 24 30	 add	 eax, DWORD PTR T$[rsp+16]
  01520	03 c1		 add	 eax, ecx
  01522	89 44 24 30	 mov	 DWORD PTR T$[rsp+16], eax

; 96   : 	R0(12); R0(13); R0(14); R0(15);

  01526	48 8b 84 24 28
	04 00 00	 mov	 rax, QWORD PTR data$[rsp]
  0152e	8b 50 30	 mov	 edx, DWORD PTR [rax+48]
  01531	c1 e2 18	 shl	 edx, 24
  01534	48 8b 84 24 28
	04 00 00	 mov	 rax, QWORD PTR data$[rsp]
  0153c	8b 40 30	 mov	 eax, DWORD PTR [rax+48]
  0153f	c1 e0 08	 shl	 eax, 8
  01542	25 00 00 ff 00	 and	 eax, 16711680		; 00ff0000H
  01547	0b d0		 or	 edx, eax
  01549	48 8b 84 24 28
	04 00 00	 mov	 rax, QWORD PTR data$[rsp]
  01551	8b 40 30	 mov	 eax, DWORD PTR [rax+48]
  01554	c1 e8 08	 shr	 eax, 8
  01557	25 00 ff 00 00	 and	 eax, 65280		; 0000ff00H
  0155c	0b d0		 or	 edx, eax
  0155e	48 8b 84 24 28
	04 00 00	 mov	 rax, QWORD PTR data$[rsp]
  01566	8b 48 30	 mov	 ecx, DWORD PTR [rax+48]
  01569	c1 e9 18	 shr	 ecx, 24
  0156c	8b c2		 mov	 eax, edx
  0156e	0b c1		 or	 eax, ecx
  01570	89 44 24 70	 mov	 DWORD PTR W$[rsp+48], eax
  01574	8b 54 24 20	 mov	 edx, DWORD PTR T$[rsp]
  01578	c1 ea 0e	 shr	 edx, 14
  0157b	b8 20 00 00 00	 mov	 eax, 32			; 00000020H
  01580	83 e8 0e	 sub	 eax, 14
  01583	0f b6 c8	 movzx	 ecx, al
  01586	8b 44 24 20	 mov	 eax, DWORD PTR T$[rsp]
  0158a	d3 e0		 shl	 eax, cl
  0158c	8b c8		 mov	 ecx, eax
  0158e	8b c2		 mov	 eax, edx
  01590	0b c1		 or	 eax, ecx
  01592	89 84 24 a4 01
	00 00		 mov	 DWORD PTR $T36439[rsp], eax
  01599	8b 8c 24 a4 01
	00 00		 mov	 ecx, DWORD PTR $T36439[rsp]
  015a0	8b 44 24 20	 mov	 eax, DWORD PTR T$[rsp]
  015a4	33 c1		 xor	 eax, ecx
  015a6	89 84 24 a8 01
	00 00		 mov	 DWORD PTR $T36443[rsp], eax
  015ad	b8 20 00 00 00	 mov	 eax, 32			; 00000020H
  015b2	83 e8 05	 sub	 eax, 5
  015b5	0f b6 c8	 movzx	 ecx, al
  015b8	8b 84 24 a8 01
	00 00		 mov	 eax, DWORD PTR $T36443[rsp]
  015bf	d3 e0		 shl	 eax, cl
  015c1	8b 8c 24 a8 01
	00 00		 mov	 ecx, DWORD PTR $T36443[rsp]
  015c8	c1 e9 05	 shr	 ecx, 5
  015cb	0b c8		 or	 ecx, eax
  015cd	8b 44 24 20	 mov	 eax, DWORD PTR T$[rsp]
  015d1	33 c1		 xor	 eax, ecx
  015d3	89 84 24 ac 01
	00 00		 mov	 DWORD PTR $T36447[rsp], eax
  015da	8b 44 24 28	 mov	 eax, DWORD PTR T$[rsp+8]
  015de	8b 4c 24 24	 mov	 ecx, DWORD PTR T$[rsp+4]
  015e2	33 c8		 xor	 ecx, eax
  015e4	8b 44 24 20	 mov	 eax, DWORD PTR T$[rsp]
  015e8	23 c1		 and	 eax, ecx
  015ea	8b 54 24 28	 mov	 edx, DWORD PTR T$[rsp+8]
  015ee	33 d0		 xor	 edx, eax
  015f0	b8 20 00 00 00	 mov	 eax, 32			; 00000020H
  015f5	83 e8 06	 sub	 eax, 6
  015f8	0f b6 c8	 movzx	 ecx, al
  015fb	8b 84 24 ac 01
	00 00		 mov	 eax, DWORD PTR $T36447[rsp]
  01602	d3 e0		 shl	 eax, cl
  01604	8b 8c 24 ac 01
	00 00		 mov	 ecx, DWORD PTR $T36447[rsp]
  0160b	c1 e9 06	 shr	 ecx, 6
  0160e	0b c8		 or	 ecx, eax
  01610	8b 05 30 00 00
	00		 mov	 eax, DWORD PTR SHA256_K+48
  01616	03 c1		 add	 eax, ecx
  01618	8b ca		 mov	 ecx, edx
  0161a	03 c8		 add	 ecx, eax
  0161c	03 4c 24 70	 add	 ecx, DWORD PTR W$[rsp+48]
  01620	8b 44 24 2c	 mov	 eax, DWORD PTR T$[rsp+12]
  01624	03 c1		 add	 eax, ecx
  01626	89 44 24 2c	 mov	 DWORD PTR T$[rsp+12], eax
  0162a	8b 4c 24 2c	 mov	 ecx, DWORD PTR T$[rsp+12]
  0162e	8b 44 24 3c	 mov	 eax, DWORD PTR T$[rsp+28]
  01632	03 c1		 add	 eax, ecx
  01634	89 44 24 3c	 mov	 DWORD PTR T$[rsp+28], eax
  01638	8b 54 24 30	 mov	 edx, DWORD PTR T$[rsp+16]
  0163c	c1 ea 09	 shr	 edx, 9
  0163f	b8 20 00 00 00	 mov	 eax, 32			; 00000020H
  01644	83 e8 09	 sub	 eax, 9
  01647	0f b6 c8	 movzx	 ecx, al
  0164a	8b 44 24 30	 mov	 eax, DWORD PTR T$[rsp+16]
  0164e	d3 e0		 shl	 eax, cl
  01650	8b c8		 mov	 ecx, eax
  01652	8b c2		 mov	 eax, edx
  01654	0b c1		 or	 eax, ecx
  01656	89 84 24 b0 01
	00 00		 mov	 DWORD PTR $T36451[rsp], eax
  0165d	8b 8c 24 b0 01
	00 00		 mov	 ecx, DWORD PTR $T36451[rsp]
  01664	8b 44 24 30	 mov	 eax, DWORD PTR T$[rsp+16]
  01668	33 c1		 xor	 eax, ecx
  0166a	89 84 24 b4 01
	00 00		 mov	 DWORD PTR $T36455[rsp], eax
  01671	b8 20 00 00 00	 mov	 eax, 32			; 00000020H
  01676	83 e8 0b	 sub	 eax, 11
  01679	0f b6 c8	 movzx	 ecx, al
  0167c	8b 84 24 b4 01
	00 00		 mov	 eax, DWORD PTR $T36455[rsp]
  01683	d3 e0		 shl	 eax, cl
  01685	8b 8c 24 b4 01
	00 00		 mov	 ecx, DWORD PTR $T36455[rsp]
  0168c	c1 e9 0b	 shr	 ecx, 11
  0168f	0b c8		 or	 ecx, eax
  01691	8b 44 24 30	 mov	 eax, DWORD PTR T$[rsp+16]
  01695	33 c1		 xor	 eax, ecx
  01697	89 84 24 b8 01
	00 00		 mov	 DWORD PTR $T36459[rsp], eax
  0169e	8b 4c 24 38	 mov	 ecx, DWORD PTR T$[rsp+24]
  016a2	8b 44 24 34	 mov	 eax, DWORD PTR T$[rsp+20]
  016a6	33 c1		 xor	 eax, ecx
  016a8	8b 54 24 30	 mov	 edx, DWORD PTR T$[rsp+16]
  016ac	23 d0		 and	 edx, eax
  016ae	8b 4c 24 38	 mov	 ecx, DWORD PTR T$[rsp+24]
  016b2	8b 44 24 34	 mov	 eax, DWORD PTR T$[rsp+20]
  016b6	23 c1		 and	 eax, ecx
  016b8	03 d0		 add	 edx, eax
  016ba	b8 20 00 00 00	 mov	 eax, 32			; 00000020H
  016bf	83 e8 02	 sub	 eax, 2
  016c2	0f b6 c8	 movzx	 ecx, al
  016c5	8b 84 24 b8 01
	00 00		 mov	 eax, DWORD PTR $T36459[rsp]
  016cc	d3 e0		 shl	 eax, cl
  016ce	8b 8c 24 b8 01
	00 00		 mov	 ecx, DWORD PTR $T36459[rsp]
  016d5	c1 e9 02	 shr	 ecx, 2
  016d8	0b c8		 or	 ecx, eax
  016da	8b c2		 mov	 eax, edx
  016dc	03 44 24 2c	 add	 eax, DWORD PTR T$[rsp+12]
  016e0	03 c1		 add	 eax, ecx
  016e2	89 44 24 2c	 mov	 DWORD PTR T$[rsp+12], eax
  016e6	48 8b 84 24 28
	04 00 00	 mov	 rax, QWORD PTR data$[rsp]
  016ee	8b 50 34	 mov	 edx, DWORD PTR [rax+52]
  016f1	c1 e2 18	 shl	 edx, 24
  016f4	48 8b 84 24 28
	04 00 00	 mov	 rax, QWORD PTR data$[rsp]
  016fc	8b 40 34	 mov	 eax, DWORD PTR [rax+52]
  016ff	c1 e0 08	 shl	 eax, 8
  01702	25 00 00 ff 00	 and	 eax, 16711680		; 00ff0000H
  01707	0b d0		 or	 edx, eax
  01709	48 8b 84 24 28
	04 00 00	 mov	 rax, QWORD PTR data$[rsp]
  01711	8b 40 34	 mov	 eax, DWORD PTR [rax+52]
  01714	c1 e8 08	 shr	 eax, 8
  01717	25 00 ff 00 00	 and	 eax, 65280		; 0000ff00H
  0171c	0b d0		 or	 edx, eax
  0171e	48 8b 84 24 28
	04 00 00	 mov	 rax, QWORD PTR data$[rsp]
  01726	8b 48 34	 mov	 ecx, DWORD PTR [rax+52]
  01729	c1 e9 18	 shr	 ecx, 24
  0172c	8b c2		 mov	 eax, edx
  0172e	0b c1		 or	 eax, ecx
  01730	89 44 24 74	 mov	 DWORD PTR W$[rsp+52], eax
  01734	8b 54 24 3c	 mov	 edx, DWORD PTR T$[rsp+28]
  01738	c1 ea 0e	 shr	 edx, 14
  0173b	b8 20 00 00 00	 mov	 eax, 32			; 00000020H
  01740	83 e8 0e	 sub	 eax, 14
  01743	0f b6 c8	 movzx	 ecx, al
  01746	8b 44 24 3c	 mov	 eax, DWORD PTR T$[rsp+28]
  0174a	d3 e0		 shl	 eax, cl
  0174c	8b c8		 mov	 ecx, eax
  0174e	8b c2		 mov	 eax, edx
  01750	0b c1		 or	 eax, ecx
  01752	89 84 24 bc 01
	00 00		 mov	 DWORD PTR $T36463[rsp], eax
  01759	8b 8c 24 bc 01
	00 00		 mov	 ecx, DWORD PTR $T36463[rsp]
  01760	8b 44 24 3c	 mov	 eax, DWORD PTR T$[rsp+28]
  01764	33 c1		 xor	 eax, ecx
  01766	89 84 24 c0 01
	00 00		 mov	 DWORD PTR $T36467[rsp], eax
  0176d	b8 20 00 00 00	 mov	 eax, 32			; 00000020H
  01772	83 e8 05	 sub	 eax, 5
  01775	0f b6 c8	 movzx	 ecx, al
  01778	8b 84 24 c0 01
	00 00		 mov	 eax, DWORD PTR $T36467[rsp]
  0177f	d3 e0		 shl	 eax, cl
  01781	8b 8c 24 c0 01
	00 00		 mov	 ecx, DWORD PTR $T36467[rsp]
  01788	c1 e9 05	 shr	 ecx, 5
  0178b	0b c8		 or	 ecx, eax
  0178d	8b 44 24 3c	 mov	 eax, DWORD PTR T$[rsp+28]
  01791	33 c1		 xor	 eax, ecx
  01793	89 84 24 c4 01
	00 00		 mov	 DWORD PTR $T36471[rsp], eax
  0179a	8b 44 24 24	 mov	 eax, DWORD PTR T$[rsp+4]
  0179e	8b 4c 24 20	 mov	 ecx, DWORD PTR T$[rsp]
  017a2	33 c8		 xor	 ecx, eax
  017a4	8b 44 24 3c	 mov	 eax, DWORD PTR T$[rsp+28]
  017a8	23 c1		 and	 eax, ecx
  017aa	8b 54 24 24	 mov	 edx, DWORD PTR T$[rsp+4]
  017ae	33 d0		 xor	 edx, eax
  017b0	b8 20 00 00 00	 mov	 eax, 32			; 00000020H
  017b5	83 e8 06	 sub	 eax, 6
  017b8	0f b6 c8	 movzx	 ecx, al
  017bb	8b 84 24 c4 01
	00 00		 mov	 eax, DWORD PTR $T36471[rsp]
  017c2	d3 e0		 shl	 eax, cl
  017c4	8b 8c 24 c4 01
	00 00		 mov	 ecx, DWORD PTR $T36471[rsp]
  017cb	c1 e9 06	 shr	 ecx, 6
  017ce	0b c8		 or	 ecx, eax
  017d0	8b 05 34 00 00
	00		 mov	 eax, DWORD PTR SHA256_K+52
  017d6	03 c1		 add	 eax, ecx
  017d8	8b ca		 mov	 ecx, edx
  017da	03 c8		 add	 ecx, eax
  017dc	03 4c 24 74	 add	 ecx, DWORD PTR W$[rsp+52]
  017e0	8b 44 24 28	 mov	 eax, DWORD PTR T$[rsp+8]
  017e4	03 c1		 add	 eax, ecx
  017e6	89 44 24 28	 mov	 DWORD PTR T$[rsp+8], eax
  017ea	8b 4c 24 28	 mov	 ecx, DWORD PTR T$[rsp+8]
  017ee	8b 44 24 38	 mov	 eax, DWORD PTR T$[rsp+24]
  017f2	03 c1		 add	 eax, ecx
  017f4	89 44 24 38	 mov	 DWORD PTR T$[rsp+24], eax
  017f8	8b 54 24 2c	 mov	 edx, DWORD PTR T$[rsp+12]
  017fc	c1 ea 09	 shr	 edx, 9
  017ff	b8 20 00 00 00	 mov	 eax, 32			; 00000020H
  01804	83 e8 09	 sub	 eax, 9
  01807	0f b6 c8	 movzx	 ecx, al
  0180a	8b 44 24 2c	 mov	 eax, DWORD PTR T$[rsp+12]
  0180e	d3 e0		 shl	 eax, cl
  01810	8b c8		 mov	 ecx, eax
  01812	8b c2		 mov	 eax, edx
  01814	0b c1		 or	 eax, ecx
  01816	89 84 24 c8 01
	00 00		 mov	 DWORD PTR $T36475[rsp], eax
  0181d	8b 8c 24 c8 01
	00 00		 mov	 ecx, DWORD PTR $T36475[rsp]
  01824	8b 44 24 2c	 mov	 eax, DWORD PTR T$[rsp+12]
  01828	33 c1		 xor	 eax, ecx
  0182a	89 84 24 cc 01
	00 00		 mov	 DWORD PTR $T36479[rsp], eax
  01831	b8 20 00 00 00	 mov	 eax, 32			; 00000020H
  01836	83 e8 0b	 sub	 eax, 11
  01839	0f b6 c8	 movzx	 ecx, al
  0183c	8b 84 24 cc 01
	00 00		 mov	 eax, DWORD PTR $T36479[rsp]
  01843	d3 e0		 shl	 eax, cl
  01845	8b 8c 24 cc 01
	00 00		 mov	 ecx, DWORD PTR $T36479[rsp]
  0184c	c1 e9 0b	 shr	 ecx, 11
  0184f	0b c8		 or	 ecx, eax
  01851	8b 44 24 2c	 mov	 eax, DWORD PTR T$[rsp+12]
  01855	33 c1		 xor	 eax, ecx
  01857	89 84 24 d0 01
	00 00		 mov	 DWORD PTR $T36483[rsp], eax
  0185e	8b 4c 24 34	 mov	 ecx, DWORD PTR T$[rsp+20]
  01862	8b 44 24 30	 mov	 eax, DWORD PTR T$[rsp+16]
  01866	33 c1		 xor	 eax, ecx
  01868	8b 54 24 2c	 mov	 edx, DWORD PTR T$[rsp+12]
  0186c	23 d0		 and	 edx, eax
  0186e	8b 4c 24 34	 mov	 ecx, DWORD PTR T$[rsp+20]
  01872	8b 44 24 30	 mov	 eax, DWORD PTR T$[rsp+16]
  01876	23 c1		 and	 eax, ecx
  01878	03 d0		 add	 edx, eax
  0187a	b8 20 00 00 00	 mov	 eax, 32			; 00000020H
  0187f	83 e8 02	 sub	 eax, 2
  01882	0f b6 c8	 movzx	 ecx, al
  01885	8b 84 24 d0 01
	00 00		 mov	 eax, DWORD PTR $T36483[rsp]
  0188c	d3 e0		 shl	 eax, cl
  0188e	8b 8c 24 d0 01
	00 00		 mov	 ecx, DWORD PTR $T36483[rsp]
  01895	c1 e9 02	 shr	 ecx, 2
  01898	0b c8		 or	 ecx, eax
  0189a	8b c2		 mov	 eax, edx
  0189c	03 44 24 28	 add	 eax, DWORD PTR T$[rsp+8]
  018a0	03 c1		 add	 eax, ecx
  018a2	89 44 24 28	 mov	 DWORD PTR T$[rsp+8], eax
  018a6	48 8b 84 24 28
	04 00 00	 mov	 rax, QWORD PTR data$[rsp]
  018ae	8b 50 38	 mov	 edx, DWORD PTR [rax+56]
  018b1	c1 e2 18	 shl	 edx, 24
  018b4	48 8b 84 24 28
	04 00 00	 mov	 rax, QWORD PTR data$[rsp]
  018bc	8b 40 38	 mov	 eax, DWORD PTR [rax+56]
  018bf	c1 e0 08	 shl	 eax, 8
  018c2	25 00 00 ff 00	 and	 eax, 16711680		; 00ff0000H
  018c7	0b d0		 or	 edx, eax
  018c9	48 8b 84 24 28
	04 00 00	 mov	 rax, QWORD PTR data$[rsp]
  018d1	8b 40 38	 mov	 eax, DWORD PTR [rax+56]
  018d4	c1 e8 08	 shr	 eax, 8
  018d7	25 00 ff 00 00	 and	 eax, 65280		; 0000ff00H
  018dc	0b d0		 or	 edx, eax
  018de	48 8b 84 24 28
	04 00 00	 mov	 rax, QWORD PTR data$[rsp]
  018e6	8b 48 38	 mov	 ecx, DWORD PTR [rax+56]
  018e9	c1 e9 18	 shr	 ecx, 24
  018ec	8b c2		 mov	 eax, edx
  018ee	0b c1		 or	 eax, ecx
  018f0	89 44 24 78	 mov	 DWORD PTR W$[rsp+56], eax
  018f4	8b 54 24 38	 mov	 edx, DWORD PTR T$[rsp+24]
  018f8	c1 ea 0e	 shr	 edx, 14
  018fb	b8 20 00 00 00	 mov	 eax, 32			; 00000020H
  01900	83 e8 0e	 sub	 eax, 14
  01903	0f b6 c8	 movzx	 ecx, al
  01906	8b 44 24 38	 mov	 eax, DWORD PTR T$[rsp+24]
  0190a	d3 e0		 shl	 eax, cl
  0190c	8b c8		 mov	 ecx, eax
  0190e	8b c2		 mov	 eax, edx
  01910	0b c1		 or	 eax, ecx
  01912	89 84 24 d4 01
	00 00		 mov	 DWORD PTR $T36487[rsp], eax
  01919	8b 8c 24 d4 01
	00 00		 mov	 ecx, DWORD PTR $T36487[rsp]
  01920	8b 44 24 38	 mov	 eax, DWORD PTR T$[rsp+24]
  01924	33 c1		 xor	 eax, ecx
  01926	89 84 24 d8 01
	00 00		 mov	 DWORD PTR $T36491[rsp], eax
  0192d	b8 20 00 00 00	 mov	 eax, 32			; 00000020H
  01932	83 e8 05	 sub	 eax, 5
  01935	0f b6 c8	 movzx	 ecx, al
  01938	8b 84 24 d8 01
	00 00		 mov	 eax, DWORD PTR $T36491[rsp]
  0193f	d3 e0		 shl	 eax, cl
  01941	8b 8c 24 d8 01
	00 00		 mov	 ecx, DWORD PTR $T36491[rsp]
  01948	c1 e9 05	 shr	 ecx, 5
  0194b	0b c8		 or	 ecx, eax
  0194d	8b 44 24 38	 mov	 eax, DWORD PTR T$[rsp+24]
  01951	33 c1		 xor	 eax, ecx
  01953	89 84 24 dc 01
	00 00		 mov	 DWORD PTR $T36495[rsp], eax
  0195a	8b 44 24 20	 mov	 eax, DWORD PTR T$[rsp]
  0195e	8b 4c 24 3c	 mov	 ecx, DWORD PTR T$[rsp+28]
  01962	33 c8		 xor	 ecx, eax
  01964	8b 44 24 38	 mov	 eax, DWORD PTR T$[rsp+24]
  01968	23 c1		 and	 eax, ecx
  0196a	8b 54 24 20	 mov	 edx, DWORD PTR T$[rsp]
  0196e	33 d0		 xor	 edx, eax
  01970	b8 20 00 00 00	 mov	 eax, 32			; 00000020H
  01975	83 e8 06	 sub	 eax, 6
  01978	0f b6 c8	 movzx	 ecx, al
  0197b	8b 84 24 dc 01
	00 00		 mov	 eax, DWORD PTR $T36495[rsp]
  01982	d3 e0		 shl	 eax, cl
  01984	8b 8c 24 dc 01
	00 00		 mov	 ecx, DWORD PTR $T36495[rsp]
  0198b	c1 e9 06	 shr	 ecx, 6
  0198e	0b c8		 or	 ecx, eax
  01990	8b 05 38 00 00
	00		 mov	 eax, DWORD PTR SHA256_K+56
  01996	03 c1		 add	 eax, ecx
  01998	8b ca		 mov	 ecx, edx
  0199a	03 c8		 add	 ecx, eax
  0199c	03 4c 24 78	 add	 ecx, DWORD PTR W$[rsp+56]
  019a0	8b 44 24 24	 mov	 eax, DWORD PTR T$[rsp+4]
  019a4	03 c1		 add	 eax, ecx
  019a6	89 44 24 24	 mov	 DWORD PTR T$[rsp+4], eax
  019aa	8b 4c 24 24	 mov	 ecx, DWORD PTR T$[rsp+4]
  019ae	8b 44 24 34	 mov	 eax, DWORD PTR T$[rsp+20]
  019b2	03 c1		 add	 eax, ecx
  019b4	89 44 24 34	 mov	 DWORD PTR T$[rsp+20], eax
  019b8	8b 54 24 28	 mov	 edx, DWORD PTR T$[rsp+8]
  019bc	c1 ea 09	 shr	 edx, 9
  019bf	b8 20 00 00 00	 mov	 eax, 32			; 00000020H
  019c4	83 e8 09	 sub	 eax, 9
  019c7	0f b6 c8	 movzx	 ecx, al
  019ca	8b 44 24 28	 mov	 eax, DWORD PTR T$[rsp+8]
  019ce	d3 e0		 shl	 eax, cl
  019d0	8b c8		 mov	 ecx, eax
  019d2	8b c2		 mov	 eax, edx
  019d4	0b c1		 or	 eax, ecx
  019d6	89 84 24 e0 01
	00 00		 mov	 DWORD PTR $T36499[rsp], eax
  019dd	8b 8c 24 e0 01
	00 00		 mov	 ecx, DWORD PTR $T36499[rsp]
  019e4	8b 44 24 28	 mov	 eax, DWORD PTR T$[rsp+8]
  019e8	33 c1		 xor	 eax, ecx
  019ea	89 84 24 e4 01
	00 00		 mov	 DWORD PTR $T36503[rsp], eax
  019f1	b8 20 00 00 00	 mov	 eax, 32			; 00000020H
  019f6	83 e8 0b	 sub	 eax, 11
  019f9	0f b6 c8	 movzx	 ecx, al
  019fc	8b 84 24 e4 01
	00 00		 mov	 eax, DWORD PTR $T36503[rsp]
  01a03	d3 e0		 shl	 eax, cl
  01a05	8b 8c 24 e4 01
	00 00		 mov	 ecx, DWORD PTR $T36503[rsp]
  01a0c	c1 e9 0b	 shr	 ecx, 11
  01a0f	0b c8		 or	 ecx, eax
  01a11	8b 44 24 28	 mov	 eax, DWORD PTR T$[rsp+8]
  01a15	33 c1		 xor	 eax, ecx
  01a17	89 84 24 e8 01
	00 00		 mov	 DWORD PTR $T36507[rsp], eax
  01a1e	8b 4c 24 30	 mov	 ecx, DWORD PTR T$[rsp+16]
  01a22	8b 44 24 2c	 mov	 eax, DWORD PTR T$[rsp+12]
  01a26	33 c1		 xor	 eax, ecx
  01a28	8b 54 24 28	 mov	 edx, DWORD PTR T$[rsp+8]
  01a2c	23 d0		 and	 edx, eax
  01a2e	8b 4c 24 30	 mov	 ecx, DWORD PTR T$[rsp+16]
  01a32	8b 44 24 2c	 mov	 eax, DWORD PTR T$[rsp+12]
  01a36	23 c1		 and	 eax, ecx
  01a38	03 d0		 add	 edx, eax
  01a3a	b8 20 00 00 00	 mov	 eax, 32			; 00000020H
  01a3f	83 e8 02	 sub	 eax, 2
  01a42	0f b6 c8	 movzx	 ecx, al
  01a45	8b 84 24 e8 01
	00 00		 mov	 eax, DWORD PTR $T36507[rsp]
  01a4c	d3 e0		 shl	 eax, cl
  01a4e	8b 8c 24 e8 01
	00 00		 mov	 ecx, DWORD PTR $T36507[rsp]
  01a55	c1 e9 02	 shr	 ecx, 2
  01a58	0b c8		 or	 ecx, eax
  01a5a	8b c2		 mov	 eax, edx
  01a5c	03 44 24 24	 add	 eax, DWORD PTR T$[rsp+4]
  01a60	03 c1		 add	 eax, ecx
  01a62	89 44 24 24	 mov	 DWORD PTR T$[rsp+4], eax
  01a66	48 8b 84 24 28
	04 00 00	 mov	 rax, QWORD PTR data$[rsp]
  01a6e	8b 50 3c	 mov	 edx, DWORD PTR [rax+60]
  01a71	c1 e2 18	 shl	 edx, 24
  01a74	48 8b 84 24 28
	04 00 00	 mov	 rax, QWORD PTR data$[rsp]
  01a7c	8b 40 3c	 mov	 eax, DWORD PTR [rax+60]
  01a7f	c1 e0 08	 shl	 eax, 8
  01a82	25 00 00 ff 00	 and	 eax, 16711680		; 00ff0000H
  01a87	0b d0		 or	 edx, eax
  01a89	48 8b 84 24 28
	04 00 00	 mov	 rax, QWORD PTR data$[rsp]
  01a91	8b 40 3c	 mov	 eax, DWORD PTR [rax+60]
  01a94	c1 e8 08	 shr	 eax, 8
  01a97	25 00 ff 00 00	 and	 eax, 65280		; 0000ff00H
  01a9c	0b d0		 or	 edx, eax
  01a9e	48 8b 84 24 28
	04 00 00	 mov	 rax, QWORD PTR data$[rsp]
  01aa6	8b 48 3c	 mov	 ecx, DWORD PTR [rax+60]
  01aa9	c1 e9 18	 shr	 ecx, 24
  01aac	8b c2		 mov	 eax, edx
  01aae	0b c1		 or	 eax, ecx
  01ab0	89 44 24 7c	 mov	 DWORD PTR W$[rsp+60], eax
  01ab4	8b 54 24 34	 mov	 edx, DWORD PTR T$[rsp+20]
  01ab8	c1 ea 0e	 shr	 edx, 14
  01abb	b8 20 00 00 00	 mov	 eax, 32			; 00000020H
  01ac0	83 e8 0e	 sub	 eax, 14
  01ac3	0f b6 c8	 movzx	 ecx, al
  01ac6	8b 44 24 34	 mov	 eax, DWORD PTR T$[rsp+20]
  01aca	d3 e0		 shl	 eax, cl
  01acc	8b c8		 mov	 ecx, eax
  01ace	8b c2		 mov	 eax, edx
  01ad0	0b c1		 or	 eax, ecx
  01ad2	89 84 24 ec 01
	00 00		 mov	 DWORD PTR $T36511[rsp], eax
  01ad9	8b 8c 24 ec 01
	00 00		 mov	 ecx, DWORD PTR $T36511[rsp]
  01ae0	8b 44 24 34	 mov	 eax, DWORD PTR T$[rsp+20]
  01ae4	33 c1		 xor	 eax, ecx
  01ae6	89 84 24 f0 01
	00 00		 mov	 DWORD PTR $T36515[rsp], eax
  01aed	b8 20 00 00 00	 mov	 eax, 32			; 00000020H
  01af2	83 e8 05	 sub	 eax, 5
  01af5	0f b6 c8	 movzx	 ecx, al
  01af8	8b 84 24 f0 01
	00 00		 mov	 eax, DWORD PTR $T36515[rsp]
  01aff	d3 e0		 shl	 eax, cl
  01b01	8b 8c 24 f0 01
	00 00		 mov	 ecx, DWORD PTR $T36515[rsp]
  01b08	c1 e9 05	 shr	 ecx, 5
  01b0b	0b c8		 or	 ecx, eax
  01b0d	8b 44 24 34	 mov	 eax, DWORD PTR T$[rsp+20]
  01b11	33 c1		 xor	 eax, ecx
  01b13	89 84 24 f4 01
	00 00		 mov	 DWORD PTR $T36519[rsp], eax
  01b1a	8b 44 24 3c	 mov	 eax, DWORD PTR T$[rsp+28]
  01b1e	8b 4c 24 38	 mov	 ecx, DWORD PTR T$[rsp+24]
  01b22	33 c8		 xor	 ecx, eax
  01b24	8b 44 24 34	 mov	 eax, DWORD PTR T$[rsp+20]
  01b28	23 c1		 and	 eax, ecx
  01b2a	8b 54 24 3c	 mov	 edx, DWORD PTR T$[rsp+28]
  01b2e	33 d0		 xor	 edx, eax
  01b30	b8 20 00 00 00	 mov	 eax, 32			; 00000020H
  01b35	83 e8 06	 sub	 eax, 6
  01b38	0f b6 c8	 movzx	 ecx, al
  01b3b	8b 84 24 f4 01
	00 00		 mov	 eax, DWORD PTR $T36519[rsp]
  01b42	d3 e0		 shl	 eax, cl
  01b44	8b 8c 24 f4 01
	00 00		 mov	 ecx, DWORD PTR $T36519[rsp]
  01b4b	c1 e9 06	 shr	 ecx, 6
  01b4e	0b c8		 or	 ecx, eax
  01b50	8b 05 3c 00 00
	00		 mov	 eax, DWORD PTR SHA256_K+60
  01b56	03 c1		 add	 eax, ecx
  01b58	8b ca		 mov	 ecx, edx
  01b5a	03 c8		 add	 ecx, eax
  01b5c	03 4c 24 7c	 add	 ecx, DWORD PTR W$[rsp+60]
  01b60	8b 44 24 20	 mov	 eax, DWORD PTR T$[rsp]
  01b64	03 c1		 add	 eax, ecx
  01b66	89 44 24 20	 mov	 DWORD PTR T$[rsp], eax
  01b6a	8b 4c 24 20	 mov	 ecx, DWORD PTR T$[rsp]
  01b6e	8b 44 24 30	 mov	 eax, DWORD PTR T$[rsp+16]
  01b72	03 c1		 add	 eax, ecx
  01b74	89 44 24 30	 mov	 DWORD PTR T$[rsp+16], eax
  01b78	8b 54 24 24	 mov	 edx, DWORD PTR T$[rsp+4]
  01b7c	c1 ea 09	 shr	 edx, 9
  01b7f	b8 20 00 00 00	 mov	 eax, 32			; 00000020H
  01b84	83 e8 09	 sub	 eax, 9
  01b87	0f b6 c8	 movzx	 ecx, al
  01b8a	8b 44 24 24	 mov	 eax, DWORD PTR T$[rsp+4]
  01b8e	d3 e0		 shl	 eax, cl
  01b90	8b c8		 mov	 ecx, eax
  01b92	8b c2		 mov	 eax, edx
  01b94	0b c1		 or	 eax, ecx
  01b96	89 84 24 f8 01
	00 00		 mov	 DWORD PTR $T36523[rsp], eax
  01b9d	8b 8c 24 f8 01
	00 00		 mov	 ecx, DWORD PTR $T36523[rsp]
  01ba4	8b 44 24 24	 mov	 eax, DWORD PTR T$[rsp+4]
  01ba8	33 c1		 xor	 eax, ecx
  01baa	89 84 24 fc 01
	00 00		 mov	 DWORD PTR $T36527[rsp], eax
  01bb1	b8 20 00 00 00	 mov	 eax, 32			; 00000020H
  01bb6	83 e8 0b	 sub	 eax, 11
  01bb9	0f b6 c8	 movzx	 ecx, al
  01bbc	8b 84 24 fc 01
	00 00		 mov	 eax, DWORD PTR $T36527[rsp]
  01bc3	d3 e0		 shl	 eax, cl
  01bc5	8b 8c 24 fc 01
	00 00		 mov	 ecx, DWORD PTR $T36527[rsp]
  01bcc	c1 e9 0b	 shr	 ecx, 11
  01bcf	0b c8		 or	 ecx, eax
  01bd1	8b 44 24 24	 mov	 eax, DWORD PTR T$[rsp+4]
  01bd5	33 c1		 xor	 eax, ecx
  01bd7	89 84 24 00 02
	00 00		 mov	 DWORD PTR $T36531[rsp], eax
  01bde	8b 4c 24 2c	 mov	 ecx, DWORD PTR T$[rsp+12]
  01be2	8b 44 24 28	 mov	 eax, DWORD PTR T$[rsp+8]
  01be6	33 c1		 xor	 eax, ecx
  01be8	8b 54 24 24	 mov	 edx, DWORD PTR T$[rsp+4]
  01bec	23 d0		 and	 edx, eax
  01bee	8b 4c 24 2c	 mov	 ecx, DWORD PTR T$[rsp+12]
  01bf2	8b 44 24 28	 mov	 eax, DWORD PTR T$[rsp+8]
  01bf6	23 c1		 and	 eax, ecx
  01bf8	03 d0		 add	 edx, eax
  01bfa	b8 20 00 00 00	 mov	 eax, 32			; 00000020H
  01bff	83 e8 02	 sub	 eax, 2
  01c02	0f b6 c8	 movzx	 ecx, al
  01c05	8b 84 24 00 02
	00 00		 mov	 eax, DWORD PTR $T36531[rsp]
  01c0c	d3 e0		 shl	 eax, cl
  01c0e	8b 8c 24 00 02
	00 00		 mov	 ecx, DWORD PTR $T36531[rsp]
  01c15	c1 e9 02	 shr	 ecx, 2
  01c18	0b c8		 or	 ecx, eax
  01c1a	8b c2		 mov	 eax, edx
  01c1c	03 44 24 20	 add	 eax, DWORD PTR T$[rsp]
  01c20	03 c1		 add	 eax, ecx
  01c22	89 44 24 20	 mov	 DWORD PTR T$[rsp], eax

; 97   : 
; 98   : 	// The remaining 48 operations partially unrolled
; 99   :   { unsigned int j;
; 100  : 
; 101  : 	for (j = 16; j < 64; j += 16) {

  01c26	c7 84 24 80 00
	00 00 10 00 00
	00		 mov	 DWORD PTR j$32935[rsp], 16
  01c31	eb 11		 jmp	 SHORT $LN3@transform
$LN2@transform:
  01c33	8b 84 24 80 00
	00 00		 mov	 eax, DWORD PTR j$32935[rsp]
  01c3a	83 c0 10	 add	 eax, 16
  01c3d	89 84 24 80 00
	00 00		 mov	 DWORD PTR j$32935[rsp], eax
$LN3@transform:
  01c44	83 bc 24 80 00
	00 00 40	 cmp	 DWORD PTR j$32935[rsp], 64 ; 00000040H
  01c4c	0f 83 60 23 00
	00		 jae	 $LN1@transform

; 102  : 		R2( 0); R2( 1); R2( 2); R2( 3);

  01c52	b8 20 00 00 00	 mov	 eax, 32			; 00000020H
  01c57	83 e8 02	 sub	 eax, 2
  01c5a	0f b6 c8	 movzx	 ecx, al
  01c5d	8b 44 24 78	 mov	 eax, DWORD PTR W$[rsp+56]
  01c61	d3 e0		 shl	 eax, cl
  01c63	8b 4c 24 78	 mov	 ecx, DWORD PTR W$[rsp+56]
  01c67	c1 e9 02	 shr	 ecx, 2
  01c6a	0b c8		 or	 ecx, eax
  01c6c	8b 44 24 78	 mov	 eax, DWORD PTR W$[rsp+56]
  01c70	33 c1		 xor	 eax, ecx
  01c72	89 84 24 04 02
	00 00		 mov	 DWORD PTR $T36538[rsp], eax
  01c79	b8 20 00 00 00	 mov	 eax, 32			; 00000020H
  01c7e	83 e8 0b	 sub	 eax, 11
  01c81	0f b6 c8	 movzx	 ecx, al
  01c84	8b 44 24 44	 mov	 eax, DWORD PTR W$[rsp+4]
  01c88	d3 e0		 shl	 eax, cl
  01c8a	8b 4c 24 44	 mov	 ecx, DWORD PTR W$[rsp+4]
  01c8e	c1 e9 0b	 shr	 ecx, 11
  01c91	0b c8		 or	 ecx, eax
  01c93	8b 44 24 44	 mov	 eax, DWORD PTR W$[rsp+4]
  01c97	33 c1		 xor	 eax, ecx
  01c99	89 84 24 08 02
	00 00		 mov	 DWORD PTR $T36545[rsp], eax
  01ca0	8b 54 24 78	 mov	 edx, DWORD PTR W$[rsp+56]
  01ca4	c1 ea 0a	 shr	 edx, 10
  01ca7	b8 20 00 00 00	 mov	 eax, 32			; 00000020H
  01cac	83 e8 11	 sub	 eax, 17
  01caf	0f b6 c8	 movzx	 ecx, al
  01cb2	8b 84 24 04 02
	00 00		 mov	 eax, DWORD PTR $T36538[rsp]
  01cb9	d3 e0		 shl	 eax, cl
  01cbb	44 8b 84 24 04
	02 00 00	 mov	 r8d, DWORD PTR $T36538[rsp]
  01cc3	41 c1 e8 11	 shr	 r8d, 17
  01cc7	44 0b c0	 or	 r8d, eax
  01cca	44 33 c2	 xor	 r8d, edx
  01ccd	44 03 44 24 64	 add	 r8d, DWORD PTR W$[rsp+36]
  01cd2	8b 54 24 44	 mov	 edx, DWORD PTR W$[rsp+4]
  01cd6	c1 ea 03	 shr	 edx, 3
  01cd9	b8 20 00 00 00	 mov	 eax, 32			; 00000020H
  01cde	83 e8 07	 sub	 eax, 7
  01ce1	0f b6 c8	 movzx	 ecx, al
  01ce4	8b 84 24 08 02
	00 00		 mov	 eax, DWORD PTR $T36545[rsp]
  01ceb	d3 e0		 shl	 eax, cl
  01ced	8b c8		 mov	 ecx, eax
  01cef	8b 84 24 08 02
	00 00		 mov	 eax, DWORD PTR $T36545[rsp]
  01cf6	c1 e8 07	 shr	 eax, 7
  01cf9	0b c1		 or	 eax, ecx
  01cfb	33 c2		 xor	 eax, edx
  01cfd	03 44 24 40	 add	 eax, DWORD PTR W$[rsp]
  01d01	41 03 c0	 add	 eax, r8d
  01d04	89 44 24 40	 mov	 DWORD PTR W$[rsp], eax
  01d08	8b 54 24 30	 mov	 edx, DWORD PTR T$[rsp+16]
  01d0c	c1 ea 0e	 shr	 edx, 14
  01d0f	b8 20 00 00 00	 mov	 eax, 32			; 00000020H
  01d14	83 e8 0e	 sub	 eax, 14
  01d17	0f b6 c8	 movzx	 ecx, al
  01d1a	8b 44 24 30	 mov	 eax, DWORD PTR T$[rsp+16]
  01d1e	d3 e0		 shl	 eax, cl
  01d20	8b c8		 mov	 ecx, eax
  01d22	8b c2		 mov	 eax, edx
  01d24	0b c1		 or	 eax, ecx
  01d26	89 84 24 0c 02
	00 00		 mov	 DWORD PTR $T36549[rsp], eax
  01d2d	8b 8c 24 0c 02
	00 00		 mov	 ecx, DWORD PTR $T36549[rsp]
  01d34	8b 44 24 30	 mov	 eax, DWORD PTR T$[rsp+16]
  01d38	33 c1		 xor	 eax, ecx
  01d3a	89 84 24 10 02
	00 00		 mov	 DWORD PTR $T36553[rsp], eax
  01d41	b8 20 00 00 00	 mov	 eax, 32			; 00000020H
  01d46	83 e8 05	 sub	 eax, 5
  01d49	0f b6 c8	 movzx	 ecx, al
  01d4c	8b 84 24 10 02
	00 00		 mov	 eax, DWORD PTR $T36553[rsp]
  01d53	d3 e0		 shl	 eax, cl
  01d55	8b 8c 24 10 02
	00 00		 mov	 ecx, DWORD PTR $T36553[rsp]
  01d5c	c1 e9 05	 shr	 ecx, 5
  01d5f	0b c8		 or	 ecx, eax
  01d61	8b 44 24 30	 mov	 eax, DWORD PTR T$[rsp+16]
  01d65	33 c1		 xor	 eax, ecx
  01d67	89 84 24 14 02
	00 00		 mov	 DWORD PTR $T36557[rsp], eax
  01d6e	44 8b 8c 24 80
	00 00 00	 mov	 r9d, DWORD PTR j$32935[rsp]
  01d76	4c 8d 05 00 00
	00 00		 lea	 r8, OFFSET FLAT:SHA256_K
  01d7d	8b 44 24 38	 mov	 eax, DWORD PTR T$[rsp+24]
  01d81	8b 4c 24 34	 mov	 ecx, DWORD PTR T$[rsp+20]
  01d85	33 c8		 xor	 ecx, eax
  01d87	8b 44 24 30	 mov	 eax, DWORD PTR T$[rsp+16]
  01d8b	23 c1		 and	 eax, ecx
  01d8d	8b 54 24 38	 mov	 edx, DWORD PTR T$[rsp+24]
  01d91	33 d0		 xor	 edx, eax
  01d93	b8 20 00 00 00	 mov	 eax, 32			; 00000020H
  01d98	83 e8 06	 sub	 eax, 6
  01d9b	0f b6 c8	 movzx	 ecx, al
  01d9e	8b 84 24 14 02
	00 00		 mov	 eax, DWORD PTR $T36557[rsp]
  01da5	d3 e0		 shl	 eax, cl
  01da7	8b 8c 24 14 02
	00 00		 mov	 ecx, DWORD PTR $T36557[rsp]
  01dae	c1 e9 06	 shr	 ecx, 6
  01db1	0b c8		 or	 ecx, eax
  01db3	03 ca		 add	 ecx, edx
  01db5	43 03 0c 88	 add	 ecx, DWORD PTR [r8+r9*4]
  01db9	03 4c 24 40	 add	 ecx, DWORD PTR W$[rsp]
  01dbd	8b 44 24 3c	 mov	 eax, DWORD PTR T$[rsp+28]
  01dc1	03 c1		 add	 eax, ecx
  01dc3	89 44 24 3c	 mov	 DWORD PTR T$[rsp+28], eax
  01dc7	8b 4c 24 3c	 mov	 ecx, DWORD PTR T$[rsp+28]
  01dcb	8b 44 24 2c	 mov	 eax, DWORD PTR T$[rsp+12]
  01dcf	03 c1		 add	 eax, ecx
  01dd1	89 44 24 2c	 mov	 DWORD PTR T$[rsp+12], eax
  01dd5	8b 54 24 20	 mov	 edx, DWORD PTR T$[rsp]
  01dd9	c1 ea 09	 shr	 edx, 9
  01ddc	b8 20 00 00 00	 mov	 eax, 32			; 00000020H
  01de1	83 e8 09	 sub	 eax, 9
  01de4	0f b6 c8	 movzx	 ecx, al
  01de7	8b 44 24 20	 mov	 eax, DWORD PTR T$[rsp]
  01deb	d3 e0		 shl	 eax, cl
  01ded	8b c8		 mov	 ecx, eax
  01def	8b c2		 mov	 eax, edx
  01df1	0b c1		 or	 eax, ecx
  01df3	89 84 24 18 02
	00 00		 mov	 DWORD PTR $T36561[rsp], eax
  01dfa	8b 8c 24 18 02
	00 00		 mov	 ecx, DWORD PTR $T36561[rsp]
  01e01	8b 44 24 20	 mov	 eax, DWORD PTR T$[rsp]
  01e05	33 c1		 xor	 eax, ecx
  01e07	89 84 24 1c 02
	00 00		 mov	 DWORD PTR $T36565[rsp], eax
  01e0e	b8 20 00 00 00	 mov	 eax, 32			; 00000020H
  01e13	83 e8 0b	 sub	 eax, 11
  01e16	0f b6 c8	 movzx	 ecx, al
  01e19	8b 84 24 1c 02
	00 00		 mov	 eax, DWORD PTR $T36565[rsp]
  01e20	d3 e0		 shl	 eax, cl
  01e22	8b 8c 24 1c 02
	00 00		 mov	 ecx, DWORD PTR $T36565[rsp]
  01e29	c1 e9 0b	 shr	 ecx, 11
  01e2c	0b c8		 or	 ecx, eax
  01e2e	8b 44 24 20	 mov	 eax, DWORD PTR T$[rsp]
  01e32	33 c1		 xor	 eax, ecx
  01e34	89 84 24 20 02
	00 00		 mov	 DWORD PTR $T36569[rsp], eax
  01e3b	8b 4c 24 28	 mov	 ecx, DWORD PTR T$[rsp+8]
  01e3f	8b 44 24 24	 mov	 eax, DWORD PTR T$[rsp+4]
  01e43	33 c1		 xor	 eax, ecx
  01e45	8b 54 24 20	 mov	 edx, DWORD PTR T$[rsp]
  01e49	23 d0		 and	 edx, eax
  01e4b	8b 4c 24 28	 mov	 ecx, DWORD PTR T$[rsp+8]
  01e4f	8b 44 24 24	 mov	 eax, DWORD PTR T$[rsp+4]
  01e53	23 c1		 and	 eax, ecx
  01e55	03 d0		 add	 edx, eax
  01e57	b8 20 00 00 00	 mov	 eax, 32			; 00000020H
  01e5c	83 e8 02	 sub	 eax, 2
  01e5f	0f b6 c8	 movzx	 ecx, al
  01e62	8b 84 24 20 02
	00 00		 mov	 eax, DWORD PTR $T36569[rsp]
  01e69	d3 e0		 shl	 eax, cl
  01e6b	8b 8c 24 20 02
	00 00		 mov	 ecx, DWORD PTR $T36569[rsp]
  01e72	c1 e9 02	 shr	 ecx, 2
  01e75	0b c8		 or	 ecx, eax
  01e77	8b c2		 mov	 eax, edx
  01e79	03 44 24 3c	 add	 eax, DWORD PTR T$[rsp+28]
  01e7d	03 c1		 add	 eax, ecx
  01e7f	89 44 24 3c	 mov	 DWORD PTR T$[rsp+28], eax
  01e83	b8 20 00 00 00	 mov	 eax, 32			; 00000020H
  01e88	83 e8 02	 sub	 eax, 2
  01e8b	0f b6 c8	 movzx	 ecx, al
  01e8e	8b 44 24 7c	 mov	 eax, DWORD PTR W$[rsp+60]
  01e92	d3 e0		 shl	 eax, cl
  01e94	8b 4c 24 7c	 mov	 ecx, DWORD PTR W$[rsp+60]
  01e98	c1 e9 02	 shr	 ecx, 2
  01e9b	0b c8		 or	 ecx, eax
  01e9d	8b 44 24 7c	 mov	 eax, DWORD PTR W$[rsp+60]
  01ea1	33 c1		 xor	 eax, ecx
  01ea3	89 84 24 24 02
	00 00		 mov	 DWORD PTR $T36576[rsp], eax
  01eaa	b8 20 00 00 00	 mov	 eax, 32			; 00000020H
  01eaf	83 e8 0b	 sub	 eax, 11
  01eb2	0f b6 c8	 movzx	 ecx, al
  01eb5	8b 44 24 48	 mov	 eax, DWORD PTR W$[rsp+8]
  01eb9	d3 e0		 shl	 eax, cl
  01ebb	8b 4c 24 48	 mov	 ecx, DWORD PTR W$[rsp+8]
  01ebf	c1 e9 0b	 shr	 ecx, 11
  01ec2	0b c8		 or	 ecx, eax
  01ec4	8b 44 24 48	 mov	 eax, DWORD PTR W$[rsp+8]
  01ec8	33 c1		 xor	 eax, ecx
  01eca	89 84 24 28 02
	00 00		 mov	 DWORD PTR $T36583[rsp], eax
  01ed1	8b 54 24 7c	 mov	 edx, DWORD PTR W$[rsp+60]
  01ed5	c1 ea 0a	 shr	 edx, 10
  01ed8	b8 20 00 00 00	 mov	 eax, 32			; 00000020H
  01edd	83 e8 11	 sub	 eax, 17
  01ee0	0f b6 c8	 movzx	 ecx, al
  01ee3	8b 84 24 24 02
	00 00		 mov	 eax, DWORD PTR $T36576[rsp]
  01eea	d3 e0		 shl	 eax, cl
  01eec	44 8b 84 24 24
	02 00 00	 mov	 r8d, DWORD PTR $T36576[rsp]
  01ef4	41 c1 e8 11	 shr	 r8d, 17
  01ef8	44 0b c0	 or	 r8d, eax
  01efb	44 33 c2	 xor	 r8d, edx
  01efe	44 03 44 24 68	 add	 r8d, DWORD PTR W$[rsp+40]
  01f03	8b 54 24 48	 mov	 edx, DWORD PTR W$[rsp+8]
  01f07	c1 ea 03	 shr	 edx, 3
  01f0a	b8 20 00 00 00	 mov	 eax, 32			; 00000020H
  01f0f	83 e8 07	 sub	 eax, 7
  01f12	0f b6 c8	 movzx	 ecx, al
  01f15	8b 84 24 28 02
	00 00		 mov	 eax, DWORD PTR $T36583[rsp]
  01f1c	d3 e0		 shl	 eax, cl
  01f1e	8b c8		 mov	 ecx, eax
  01f20	8b 84 24 28 02
	00 00		 mov	 eax, DWORD PTR $T36583[rsp]
  01f27	c1 e8 07	 shr	 eax, 7
  01f2a	0b c1		 or	 eax, ecx
  01f2c	33 c2		 xor	 eax, edx
  01f2e	03 44 24 44	 add	 eax, DWORD PTR W$[rsp+4]
  01f32	41 03 c0	 add	 eax, r8d
  01f35	89 44 24 44	 mov	 DWORD PTR W$[rsp+4], eax
  01f39	8b 54 24 2c	 mov	 edx, DWORD PTR T$[rsp+12]
  01f3d	c1 ea 0e	 shr	 edx, 14
  01f40	b8 20 00 00 00	 mov	 eax, 32			; 00000020H
  01f45	83 e8 0e	 sub	 eax, 14
  01f48	0f b6 c8	 movzx	 ecx, al
  01f4b	8b 44 24 2c	 mov	 eax, DWORD PTR T$[rsp+12]
  01f4f	d3 e0		 shl	 eax, cl
  01f51	8b c8		 mov	 ecx, eax
  01f53	8b c2		 mov	 eax, edx
  01f55	0b c1		 or	 eax, ecx
  01f57	89 84 24 2c 02
	00 00		 mov	 DWORD PTR $T36587[rsp], eax
  01f5e	8b 8c 24 2c 02
	00 00		 mov	 ecx, DWORD PTR $T36587[rsp]
  01f65	8b 44 24 2c	 mov	 eax, DWORD PTR T$[rsp+12]
  01f69	33 c1		 xor	 eax, ecx
  01f6b	89 84 24 30 02
	00 00		 mov	 DWORD PTR $T36591[rsp], eax
  01f72	b8 20 00 00 00	 mov	 eax, 32			; 00000020H
  01f77	83 e8 05	 sub	 eax, 5
  01f7a	0f b6 c8	 movzx	 ecx, al
  01f7d	8b 84 24 30 02
	00 00		 mov	 eax, DWORD PTR $T36591[rsp]
  01f84	d3 e0		 shl	 eax, cl
  01f86	8b 8c 24 30 02
	00 00		 mov	 ecx, DWORD PTR $T36591[rsp]
  01f8d	c1 e9 05	 shr	 ecx, 5
  01f90	0b c8		 or	 ecx, eax
  01f92	8b 44 24 2c	 mov	 eax, DWORD PTR T$[rsp+12]
  01f96	33 c1		 xor	 eax, ecx
  01f98	89 84 24 34 02
	00 00		 mov	 DWORD PTR $T36595[rsp], eax
  01f9f	8b 84 24 80 00
	00 00		 mov	 eax, DWORD PTR j$32935[rsp]
  01fa6	83 c0 01	 add	 eax, 1
  01fa9	44 8b c8	 mov	 r9d, eax
  01fac	4c 8d 05 00 00
	00 00		 lea	 r8, OFFSET FLAT:SHA256_K
  01fb3	8b 44 24 34	 mov	 eax, DWORD PTR T$[rsp+20]
  01fb7	8b 4c 24 30	 mov	 ecx, DWORD PTR T$[rsp+16]
  01fbb	33 c8		 xor	 ecx, eax
  01fbd	8b 44 24 2c	 mov	 eax, DWORD PTR T$[rsp+12]
  01fc1	23 c1		 and	 eax, ecx
  01fc3	8b 54 24 34	 mov	 edx, DWORD PTR T$[rsp+20]
  01fc7	33 d0		 xor	 edx, eax
  01fc9	b8 20 00 00 00	 mov	 eax, 32			; 00000020H
  01fce	83 e8 06	 sub	 eax, 6
  01fd1	0f b6 c8	 movzx	 ecx, al
  01fd4	8b 84 24 34 02
	00 00		 mov	 eax, DWORD PTR $T36595[rsp]
  01fdb	d3 e0		 shl	 eax, cl
  01fdd	8b 8c 24 34 02
	00 00		 mov	 ecx, DWORD PTR $T36595[rsp]
  01fe4	c1 e9 06	 shr	 ecx, 6
  01fe7	0b c8		 or	 ecx, eax
  01fe9	03 ca		 add	 ecx, edx
  01feb	43 03 0c 88	 add	 ecx, DWORD PTR [r8+r9*4]
  01fef	03 4c 24 44	 add	 ecx, DWORD PTR W$[rsp+4]
  01ff3	8b 44 24 38	 mov	 eax, DWORD PTR T$[rsp+24]
  01ff7	03 c1		 add	 eax, ecx
  01ff9	89 44 24 38	 mov	 DWORD PTR T$[rsp+24], eax
  01ffd	8b 4c 24 38	 mov	 ecx, DWORD PTR T$[rsp+24]
  02001	8b 44 24 28	 mov	 eax, DWORD PTR T$[rsp+8]
  02005	03 c1		 add	 eax, ecx
  02007	89 44 24 28	 mov	 DWORD PTR T$[rsp+8], eax
  0200b	8b 54 24 3c	 mov	 edx, DWORD PTR T$[rsp+28]
  0200f	c1 ea 09	 shr	 edx, 9
  02012	b8 20 00 00 00	 mov	 eax, 32			; 00000020H
  02017	83 e8 09	 sub	 eax, 9
  0201a	0f b6 c8	 movzx	 ecx, al
  0201d	8b 44 24 3c	 mov	 eax, DWORD PTR T$[rsp+28]
  02021	d3 e0		 shl	 eax, cl
  02023	8b c8		 mov	 ecx, eax
  02025	8b c2		 mov	 eax, edx
  02027	0b c1		 or	 eax, ecx
  02029	89 84 24 38 02
	00 00		 mov	 DWORD PTR $T36599[rsp], eax
  02030	8b 8c 24 38 02
	00 00		 mov	 ecx, DWORD PTR $T36599[rsp]
  02037	8b 44 24 3c	 mov	 eax, DWORD PTR T$[rsp+28]
  0203b	33 c1		 xor	 eax, ecx
  0203d	89 84 24 3c 02
	00 00		 mov	 DWORD PTR $T36603[rsp], eax
  02044	b8 20 00 00 00	 mov	 eax, 32			; 00000020H
  02049	83 e8 0b	 sub	 eax, 11
  0204c	0f b6 c8	 movzx	 ecx, al
  0204f	8b 84 24 3c 02
	00 00		 mov	 eax, DWORD PTR $T36603[rsp]
  02056	d3 e0		 shl	 eax, cl
  02058	8b 8c 24 3c 02
	00 00		 mov	 ecx, DWORD PTR $T36603[rsp]
  0205f	c1 e9 0b	 shr	 ecx, 11
  02062	0b c8		 or	 ecx, eax
  02064	8b 44 24 3c	 mov	 eax, DWORD PTR T$[rsp+28]
  02068	33 c1		 xor	 eax, ecx
  0206a	89 84 24 40 02
	00 00		 mov	 DWORD PTR $T36607[rsp], eax
  02071	8b 4c 24 24	 mov	 ecx, DWORD PTR T$[rsp+4]
  02075	8b 44 24 20	 mov	 eax, DWORD PTR T$[rsp]
  02079	33 c1		 xor	 eax, ecx
  0207b	8b 54 24 3c	 mov	 edx, DWORD PTR T$[rsp+28]
  0207f	23 d0		 and	 edx, eax
  02081	8b 4c 24 24	 mov	 ecx, DWORD PTR T$[rsp+4]
  02085	8b 44 24 20	 mov	 eax, DWORD PTR T$[rsp]
  02089	23 c1		 and	 eax, ecx
  0208b	03 d0		 add	 edx, eax
  0208d	b8 20 00 00 00	 mov	 eax, 32			; 00000020H
  02092	83 e8 02	 sub	 eax, 2
  02095	0f b6 c8	 movzx	 ecx, al
  02098	8b 84 24 40 02
	00 00		 mov	 eax, DWORD PTR $T36607[rsp]
  0209f	d3 e0		 shl	 eax, cl
  020a1	8b 8c 24 40 02
	00 00		 mov	 ecx, DWORD PTR $T36607[rsp]
  020a8	c1 e9 02	 shr	 ecx, 2
  020ab	0b c8		 or	 ecx, eax
  020ad	8b c2		 mov	 eax, edx
  020af	03 44 24 38	 add	 eax, DWORD PTR T$[rsp+24]
  020b3	03 c1		 add	 eax, ecx
  020b5	89 44 24 38	 mov	 DWORD PTR T$[rsp+24], eax
  020b9	b8 20 00 00 00	 mov	 eax, 32			; 00000020H
  020be	83 e8 02	 sub	 eax, 2
  020c1	0f b6 c8	 movzx	 ecx, al
  020c4	8b 44 24 40	 mov	 eax, DWORD PTR W$[rsp]
  020c8	d3 e0		 shl	 eax, cl
  020ca	8b 4c 24 40	 mov	 ecx, DWORD PTR W$[rsp]
  020ce	c1 e9 02	 shr	 ecx, 2
  020d1	0b c8		 or	 ecx, eax
  020d3	8b 44 24 40	 mov	 eax, DWORD PTR W$[rsp]
  020d7	33 c1		 xor	 eax, ecx
  020d9	89 84 24 44 02
	00 00		 mov	 DWORD PTR $T36614[rsp], eax
  020e0	b8 20 00 00 00	 mov	 eax, 32			; 00000020H
  020e5	83 e8 0b	 sub	 eax, 11
  020e8	0f b6 c8	 movzx	 ecx, al
  020eb	8b 44 24 4c	 mov	 eax, DWORD PTR W$[rsp+12]
  020ef	d3 e0		 shl	 eax, cl
  020f1	8b 4c 24 4c	 mov	 ecx, DWORD PTR W$[rsp+12]
  020f5	c1 e9 0b	 shr	 ecx, 11
  020f8	0b c8		 or	 ecx, eax
  020fa	8b 44 24 4c	 mov	 eax, DWORD PTR W$[rsp+12]
  020fe	33 c1		 xor	 eax, ecx
  02100	89 84 24 48 02
	00 00		 mov	 DWORD PTR $T36621[rsp], eax
  02107	8b 54 24 40	 mov	 edx, DWORD PTR W$[rsp]
  0210b	c1 ea 0a	 shr	 edx, 10
  0210e	b8 20 00 00 00	 mov	 eax, 32			; 00000020H
  02113	83 e8 11	 sub	 eax, 17
  02116	0f b6 c8	 movzx	 ecx, al
  02119	8b 84 24 44 02
	00 00		 mov	 eax, DWORD PTR $T36614[rsp]
  02120	d3 e0		 shl	 eax, cl
  02122	44 8b 84 24 44
	02 00 00	 mov	 r8d, DWORD PTR $T36614[rsp]
  0212a	41 c1 e8 11	 shr	 r8d, 17
  0212e	44 0b c0	 or	 r8d, eax
  02131	44 33 c2	 xor	 r8d, edx
  02134	44 03 44 24 6c	 add	 r8d, DWORD PTR W$[rsp+44]
  02139	8b 54 24 4c	 mov	 edx, DWORD PTR W$[rsp+12]
  0213d	c1 ea 03	 shr	 edx, 3
  02140	b8 20 00 00 00	 mov	 eax, 32			; 00000020H
  02145	83 e8 07	 sub	 eax, 7
  02148	0f b6 c8	 movzx	 ecx, al
  0214b	8b 84 24 48 02
	00 00		 mov	 eax, DWORD PTR $T36621[rsp]
  02152	d3 e0		 shl	 eax, cl
  02154	8b c8		 mov	 ecx, eax
  02156	8b 84 24 48 02
	00 00		 mov	 eax, DWORD PTR $T36621[rsp]
  0215d	c1 e8 07	 shr	 eax, 7
  02160	0b c1		 or	 eax, ecx
  02162	33 c2		 xor	 eax, edx
  02164	03 44 24 48	 add	 eax, DWORD PTR W$[rsp+8]
  02168	41 03 c0	 add	 eax, r8d
  0216b	89 44 24 48	 mov	 DWORD PTR W$[rsp+8], eax
  0216f	8b 54 24 28	 mov	 edx, DWORD PTR T$[rsp+8]
  02173	c1 ea 0e	 shr	 edx, 14
  02176	b8 20 00 00 00	 mov	 eax, 32			; 00000020H
  0217b	83 e8 0e	 sub	 eax, 14
  0217e	0f b6 c8	 movzx	 ecx, al
  02181	8b 44 24 28	 mov	 eax, DWORD PTR T$[rsp+8]
  02185	d3 e0		 shl	 eax, cl
  02187	8b c8		 mov	 ecx, eax
  02189	8b c2		 mov	 eax, edx
  0218b	0b c1		 or	 eax, ecx
  0218d	89 84 24 4c 02
	00 00		 mov	 DWORD PTR $T36625[rsp], eax
  02194	8b 8c 24 4c 02
	00 00		 mov	 ecx, DWORD PTR $T36625[rsp]
  0219b	8b 44 24 28	 mov	 eax, DWORD PTR T$[rsp+8]
  0219f	33 c1		 xor	 eax, ecx
  021a1	89 84 24 50 02
	00 00		 mov	 DWORD PTR $T36629[rsp], eax
  021a8	b8 20 00 00 00	 mov	 eax, 32			; 00000020H
  021ad	83 e8 05	 sub	 eax, 5
  021b0	0f b6 c8	 movzx	 ecx, al
  021b3	8b 84 24 50 02
	00 00		 mov	 eax, DWORD PTR $T36629[rsp]
  021ba	d3 e0		 shl	 eax, cl
  021bc	8b 8c 24 50 02
	00 00		 mov	 ecx, DWORD PTR $T36629[rsp]
  021c3	c1 e9 05	 shr	 ecx, 5
  021c6	0b c8		 or	 ecx, eax
  021c8	8b 44 24 28	 mov	 eax, DWORD PTR T$[rsp+8]
  021cc	33 c1		 xor	 eax, ecx
  021ce	89 84 24 54 02
	00 00		 mov	 DWORD PTR $T36633[rsp], eax
  021d5	8b 84 24 80 00
	00 00		 mov	 eax, DWORD PTR j$32935[rsp]
  021dc	83 c0 02	 add	 eax, 2
  021df	44 8b c8	 mov	 r9d, eax
  021e2	4c 8d 05 00 00
	00 00		 lea	 r8, OFFSET FLAT:SHA256_K
  021e9	8b 44 24 30	 mov	 eax, DWORD PTR T$[rsp+16]
  021ed	8b 4c 24 2c	 mov	 ecx, DWORD PTR T$[rsp+12]
  021f1	33 c8		 xor	 ecx, eax
  021f3	8b 44 24 28	 mov	 eax, DWORD PTR T$[rsp+8]
  021f7	23 c1		 and	 eax, ecx
  021f9	8b 54 24 30	 mov	 edx, DWORD PTR T$[rsp+16]
  021fd	33 d0		 xor	 edx, eax
  021ff	b8 20 00 00 00	 mov	 eax, 32			; 00000020H
  02204	83 e8 06	 sub	 eax, 6
  02207	0f b6 c8	 movzx	 ecx, al
  0220a	8b 84 24 54 02
	00 00		 mov	 eax, DWORD PTR $T36633[rsp]
  02211	d3 e0		 shl	 eax, cl
  02213	8b 8c 24 54 02
	00 00		 mov	 ecx, DWORD PTR $T36633[rsp]
  0221a	c1 e9 06	 shr	 ecx, 6
  0221d	0b c8		 or	 ecx, eax
  0221f	03 ca		 add	 ecx, edx
  02221	43 03 0c 88	 add	 ecx, DWORD PTR [r8+r9*4]
  02225	03 4c 24 48	 add	 ecx, DWORD PTR W$[rsp+8]
  02229	8b 44 24 34	 mov	 eax, DWORD PTR T$[rsp+20]
  0222d	03 c1		 add	 eax, ecx
  0222f	89 44 24 34	 mov	 DWORD PTR T$[rsp+20], eax
  02233	8b 4c 24 34	 mov	 ecx, DWORD PTR T$[rsp+20]
  02237	8b 44 24 24	 mov	 eax, DWORD PTR T$[rsp+4]
  0223b	03 c1		 add	 eax, ecx
  0223d	89 44 24 24	 mov	 DWORD PTR T$[rsp+4], eax
  02241	8b 54 24 38	 mov	 edx, DWORD PTR T$[rsp+24]
  02245	c1 ea 09	 shr	 edx, 9
  02248	b8 20 00 00 00	 mov	 eax, 32			; 00000020H
  0224d	83 e8 09	 sub	 eax, 9
  02250	0f b6 c8	 movzx	 ecx, al
  02253	8b 44 24 38	 mov	 eax, DWORD PTR T$[rsp+24]
  02257	d3 e0		 shl	 eax, cl
  02259	8b c8		 mov	 ecx, eax
  0225b	8b c2		 mov	 eax, edx
  0225d	0b c1		 or	 eax, ecx
  0225f	89 84 24 58 02
	00 00		 mov	 DWORD PTR $T36637[rsp], eax
  02266	8b 8c 24 58 02
	00 00		 mov	 ecx, DWORD PTR $T36637[rsp]
  0226d	8b 44 24 38	 mov	 eax, DWORD PTR T$[rsp+24]
  02271	33 c1		 xor	 eax, ecx
  02273	89 84 24 5c 02
	00 00		 mov	 DWORD PTR $T36641[rsp], eax
  0227a	b8 20 00 00 00	 mov	 eax, 32			; 00000020H
  0227f	83 e8 0b	 sub	 eax, 11
  02282	0f b6 c8	 movzx	 ecx, al
  02285	8b 84 24 5c 02
	00 00		 mov	 eax, DWORD PTR $T36641[rsp]
  0228c	d3 e0		 shl	 eax, cl
  0228e	8b 8c 24 5c 02
	00 00		 mov	 ecx, DWORD PTR $T36641[rsp]
  02295	c1 e9 0b	 shr	 ecx, 11
  02298	0b c8		 or	 ecx, eax
  0229a	8b 44 24 38	 mov	 eax, DWORD PTR T$[rsp+24]
  0229e	33 c1		 xor	 eax, ecx
  022a0	89 84 24 60 02
	00 00		 mov	 DWORD PTR $T36645[rsp], eax
  022a7	8b 4c 24 20	 mov	 ecx, DWORD PTR T$[rsp]
  022ab	8b 44 24 3c	 mov	 eax, DWORD PTR T$[rsp+28]
  022af	33 c1		 xor	 eax, ecx
  022b1	8b 54 24 38	 mov	 edx, DWORD PTR T$[rsp+24]
  022b5	23 d0		 and	 edx, eax
  022b7	8b 4c 24 20	 mov	 ecx, DWORD PTR T$[rsp]
  022bb	8b 44 24 3c	 mov	 eax, DWORD PTR T$[rsp+28]
  022bf	23 c1		 and	 eax, ecx
  022c1	03 d0		 add	 edx, eax
  022c3	b8 20 00 00 00	 mov	 eax, 32			; 00000020H
  022c8	83 e8 02	 sub	 eax, 2
  022cb	0f b6 c8	 movzx	 ecx, al
  022ce	8b 84 24 60 02
	00 00		 mov	 eax, DWORD PTR $T36645[rsp]
  022d5	d3 e0		 shl	 eax, cl
  022d7	8b 8c 24 60 02
	00 00		 mov	 ecx, DWORD PTR $T36645[rsp]
  022de	c1 e9 02	 shr	 ecx, 2
  022e1	0b c8		 or	 ecx, eax
  022e3	8b c2		 mov	 eax, edx
  022e5	03 44 24 34	 add	 eax, DWORD PTR T$[rsp+20]
  022e9	03 c1		 add	 eax, ecx
  022eb	89 44 24 34	 mov	 DWORD PTR T$[rsp+20], eax
  022ef	b8 20 00 00 00	 mov	 eax, 32			; 00000020H
  022f4	83 e8 02	 sub	 eax, 2
  022f7	0f b6 c8	 movzx	 ecx, al
  022fa	8b 44 24 44	 mov	 eax, DWORD PTR W$[rsp+4]
  022fe	d3 e0		 shl	 eax, cl
  02300	8b 4c 24 44	 mov	 ecx, DWORD PTR W$[rsp+4]
  02304	c1 e9 02	 shr	 ecx, 2
  02307	0b c8		 or	 ecx, eax
  02309	8b 44 24 44	 mov	 eax, DWORD PTR W$[rsp+4]
  0230d	33 c1		 xor	 eax, ecx
  0230f	89 84 24 64 02
	00 00		 mov	 DWORD PTR $T36652[rsp], eax
  02316	b8 20 00 00 00	 mov	 eax, 32			; 00000020H
  0231b	83 e8 0b	 sub	 eax, 11
  0231e	0f b6 c8	 movzx	 ecx, al
  02321	8b 44 24 50	 mov	 eax, DWORD PTR W$[rsp+16]
  02325	d3 e0		 shl	 eax, cl
  02327	8b 4c 24 50	 mov	 ecx, DWORD PTR W$[rsp+16]
  0232b	c1 e9 0b	 shr	 ecx, 11
  0232e	0b c8		 or	 ecx, eax
  02330	8b 44 24 50	 mov	 eax, DWORD PTR W$[rsp+16]
  02334	33 c1		 xor	 eax, ecx
  02336	89 84 24 68 02
	00 00		 mov	 DWORD PTR $T36659[rsp], eax
  0233d	8b 54 24 44	 mov	 edx, DWORD PTR W$[rsp+4]
  02341	c1 ea 0a	 shr	 edx, 10
  02344	b8 20 00 00 00	 mov	 eax, 32			; 00000020H
  02349	83 e8 11	 sub	 eax, 17
  0234c	0f b6 c8	 movzx	 ecx, al
  0234f	8b 84 24 64 02
	00 00		 mov	 eax, DWORD PTR $T36652[rsp]
  02356	d3 e0		 shl	 eax, cl
  02358	44 8b 84 24 64
	02 00 00	 mov	 r8d, DWORD PTR $T36652[rsp]
  02360	41 c1 e8 11	 shr	 r8d, 17
  02364	44 0b c0	 or	 r8d, eax
  02367	44 33 c2	 xor	 r8d, edx
  0236a	44 03 44 24 70	 add	 r8d, DWORD PTR W$[rsp+48]
  0236f	8b 54 24 50	 mov	 edx, DWORD PTR W$[rsp+16]
  02373	c1 ea 03	 shr	 edx, 3
  02376	b8 20 00 00 00	 mov	 eax, 32			; 00000020H
  0237b	83 e8 07	 sub	 eax, 7
  0237e	0f b6 c8	 movzx	 ecx, al
  02381	8b 84 24 68 02
	00 00		 mov	 eax, DWORD PTR $T36659[rsp]
  02388	d3 e0		 shl	 eax, cl
  0238a	8b c8		 mov	 ecx, eax
  0238c	8b 84 24 68 02
	00 00		 mov	 eax, DWORD PTR $T36659[rsp]
  02393	c1 e8 07	 shr	 eax, 7
  02396	0b c1		 or	 eax, ecx
  02398	33 c2		 xor	 eax, edx
  0239a	03 44 24 4c	 add	 eax, DWORD PTR W$[rsp+12]
  0239e	41 03 c0	 add	 eax, r8d
  023a1	89 44 24 4c	 mov	 DWORD PTR W$[rsp+12], eax
  023a5	8b 54 24 24	 mov	 edx, DWORD PTR T$[rsp+4]
  023a9	c1 ea 0e	 shr	 edx, 14
  023ac	b8 20 00 00 00	 mov	 eax, 32			; 00000020H
  023b1	83 e8 0e	 sub	 eax, 14
  023b4	0f b6 c8	 movzx	 ecx, al
  023b7	8b 44 24 24	 mov	 eax, DWORD PTR T$[rsp+4]
  023bb	d3 e0		 shl	 eax, cl
  023bd	8b c8		 mov	 ecx, eax
  023bf	8b c2		 mov	 eax, edx
  023c1	0b c1		 or	 eax, ecx
  023c3	89 84 24 6c 02
	00 00		 mov	 DWORD PTR $T36663[rsp], eax
  023ca	8b 8c 24 6c 02
	00 00		 mov	 ecx, DWORD PTR $T36663[rsp]
  023d1	8b 44 24 24	 mov	 eax, DWORD PTR T$[rsp+4]
  023d5	33 c1		 xor	 eax, ecx
  023d7	89 84 24 70 02
	00 00		 mov	 DWORD PTR $T36667[rsp], eax
  023de	b8 20 00 00 00	 mov	 eax, 32			; 00000020H
  023e3	83 e8 05	 sub	 eax, 5
  023e6	0f b6 c8	 movzx	 ecx, al
  023e9	8b 84 24 70 02
	00 00		 mov	 eax, DWORD PTR $T36667[rsp]
  023f0	d3 e0		 shl	 eax, cl
  023f2	8b 8c 24 70 02
	00 00		 mov	 ecx, DWORD PTR $T36667[rsp]
  023f9	c1 e9 05	 shr	 ecx, 5
  023fc	0b c8		 or	 ecx, eax
  023fe	8b 44 24 24	 mov	 eax, DWORD PTR T$[rsp+4]
  02402	33 c1		 xor	 eax, ecx
  02404	89 84 24 74 02
	00 00		 mov	 DWORD PTR $T36671[rsp], eax
  0240b	8b 84 24 80 00
	00 00		 mov	 eax, DWORD PTR j$32935[rsp]
  02412	83 c0 03	 add	 eax, 3
  02415	44 8b c8	 mov	 r9d, eax
  02418	4c 8d 05 00 00
	00 00		 lea	 r8, OFFSET FLAT:SHA256_K
  0241f	8b 44 24 2c	 mov	 eax, DWORD PTR T$[rsp+12]
  02423	8b 4c 24 28	 mov	 ecx, DWORD PTR T$[rsp+8]
  02427	33 c8		 xor	 ecx, eax
  02429	8b 44 24 24	 mov	 eax, DWORD PTR T$[rsp+4]
  0242d	23 c1		 and	 eax, ecx
  0242f	8b 54 24 2c	 mov	 edx, DWORD PTR T$[rsp+12]
  02433	33 d0		 xor	 edx, eax
  02435	b8 20 00 00 00	 mov	 eax, 32			; 00000020H
  0243a	83 e8 06	 sub	 eax, 6
  0243d	0f b6 c8	 movzx	 ecx, al
  02440	8b 84 24 74 02
	00 00		 mov	 eax, DWORD PTR $T36671[rsp]
  02447	d3 e0		 shl	 eax, cl
  02449	8b 8c 24 74 02
	00 00		 mov	 ecx, DWORD PTR $T36671[rsp]
  02450	c1 e9 06	 shr	 ecx, 6
  02453	0b c8		 or	 ecx, eax
  02455	03 ca		 add	 ecx, edx
  02457	43 03 0c 88	 add	 ecx, DWORD PTR [r8+r9*4]
  0245b	03 4c 24 4c	 add	 ecx, DWORD PTR W$[rsp+12]
  0245f	8b 44 24 30	 mov	 eax, DWORD PTR T$[rsp+16]
  02463	03 c1		 add	 eax, ecx
  02465	89 44 24 30	 mov	 DWORD PTR T$[rsp+16], eax
  02469	8b 4c 24 30	 mov	 ecx, DWORD PTR T$[rsp+16]
  0246d	8b 44 24 20	 mov	 eax, DWORD PTR T$[rsp]
  02471	03 c1		 add	 eax, ecx
  02473	89 44 24 20	 mov	 DWORD PTR T$[rsp], eax
  02477	8b 54 24 34	 mov	 edx, DWORD PTR T$[rsp+20]
  0247b	c1 ea 09	 shr	 edx, 9
  0247e	b8 20 00 00 00	 mov	 eax, 32			; 00000020H
  02483	83 e8 09	 sub	 eax, 9
  02486	0f b6 c8	 movzx	 ecx, al
  02489	8b 44 24 34	 mov	 eax, DWORD PTR T$[rsp+20]
  0248d	d3 e0		 shl	 eax, cl
  0248f	8b c8		 mov	 ecx, eax
  02491	8b c2		 mov	 eax, edx
  02493	0b c1		 or	 eax, ecx
  02495	89 84 24 78 02
	00 00		 mov	 DWORD PTR $T36675[rsp], eax
  0249c	8b 8c 24 78 02
	00 00		 mov	 ecx, DWORD PTR $T36675[rsp]
  024a3	8b 44 24 34	 mov	 eax, DWORD PTR T$[rsp+20]
  024a7	33 c1		 xor	 eax, ecx
  024a9	89 84 24 7c 02
	00 00		 mov	 DWORD PTR $T36679[rsp], eax
  024b0	b8 20 00 00 00	 mov	 eax, 32			; 00000020H
  024b5	83 e8 0b	 sub	 eax, 11
  024b8	0f b6 c8	 movzx	 ecx, al
  024bb	8b 84 24 7c 02
	00 00		 mov	 eax, DWORD PTR $T36679[rsp]
  024c2	d3 e0		 shl	 eax, cl
  024c4	8b 8c 24 7c 02
	00 00		 mov	 ecx, DWORD PTR $T36679[rsp]
  024cb	c1 e9 0b	 shr	 ecx, 11
  024ce	0b c8		 or	 ecx, eax
  024d0	8b 44 24 34	 mov	 eax, DWORD PTR T$[rsp+20]
  024d4	33 c1		 xor	 eax, ecx
  024d6	89 84 24 80 02
	00 00		 mov	 DWORD PTR $T36683[rsp], eax
  024dd	8b 4c 24 3c	 mov	 ecx, DWORD PTR T$[rsp+28]
  024e1	8b 44 24 38	 mov	 eax, DWORD PTR T$[rsp+24]
  024e5	33 c1		 xor	 eax, ecx
  024e7	8b 54 24 34	 mov	 edx, DWORD PTR T$[rsp+20]
  024eb	23 d0		 and	 edx, eax
  024ed	8b 4c 24 3c	 mov	 ecx, DWORD PTR T$[rsp+28]
  024f1	8b 44 24 38	 mov	 eax, DWORD PTR T$[rsp+24]
  024f5	23 c1		 and	 eax, ecx
  024f7	03 d0		 add	 edx, eax
  024f9	b8 20 00 00 00	 mov	 eax, 32			; 00000020H
  024fe	83 e8 02	 sub	 eax, 2
  02501	0f b6 c8	 movzx	 ecx, al
  02504	8b 84 24 80 02
	00 00		 mov	 eax, DWORD PTR $T36683[rsp]
  0250b	d3 e0		 shl	 eax, cl
  0250d	8b 8c 24 80 02
	00 00		 mov	 ecx, DWORD PTR $T36683[rsp]
  02514	c1 e9 02	 shr	 ecx, 2
  02517	0b c8		 or	 ecx, eax
  02519	8b c2		 mov	 eax, edx
  0251b	03 44 24 30	 add	 eax, DWORD PTR T$[rsp+16]
  0251f	03 c1		 add	 eax, ecx
  02521	89 44 24 30	 mov	 DWORD PTR T$[rsp+16], eax

; 103  : 		R2( 4); R2( 5); R2( 6); R2( 7);

  02525	b8 20 00 00 00	 mov	 eax, 32			; 00000020H
  0252a	83 e8 02	 sub	 eax, 2
  0252d	0f b6 c8	 movzx	 ecx, al
  02530	8b 44 24 48	 mov	 eax, DWORD PTR W$[rsp+8]
  02534	d3 e0		 shl	 eax, cl
  02536	8b 4c 24 48	 mov	 ecx, DWORD PTR W$[rsp+8]
  0253a	c1 e9 02	 shr	 ecx, 2
  0253d	0b c8		 or	 ecx, eax
  0253f	8b 44 24 48	 mov	 eax, DWORD PTR W$[rsp+8]
  02543	33 c1		 xor	 eax, ecx
  02545	89 84 24 84 02
	00 00		 mov	 DWORD PTR $T36690[rsp], eax
  0254c	b8 20 00 00 00	 mov	 eax, 32			; 00000020H
  02551	83 e8 0b	 sub	 eax, 11
  02554	0f b6 c8	 movzx	 ecx, al
  02557	8b 44 24 54	 mov	 eax, DWORD PTR W$[rsp+20]
  0255b	d3 e0		 shl	 eax, cl
  0255d	8b 4c 24 54	 mov	 ecx, DWORD PTR W$[rsp+20]
  02561	c1 e9 0b	 shr	 ecx, 11
  02564	0b c8		 or	 ecx, eax
  02566	8b 44 24 54	 mov	 eax, DWORD PTR W$[rsp+20]
  0256a	33 c1		 xor	 eax, ecx
  0256c	89 84 24 88 02
	00 00		 mov	 DWORD PTR $T36697[rsp], eax
  02573	8b 54 24 48	 mov	 edx, DWORD PTR W$[rsp+8]
  02577	c1 ea 0a	 shr	 edx, 10
  0257a	b8 20 00 00 00	 mov	 eax, 32			; 00000020H
  0257f	83 e8 11	 sub	 eax, 17
  02582	0f b6 c8	 movzx	 ecx, al
  02585	8b 84 24 84 02
	00 00		 mov	 eax, DWORD PTR $T36690[rsp]
  0258c	d3 e0		 shl	 eax, cl
  0258e	44 8b 84 24 84
	02 00 00	 mov	 r8d, DWORD PTR $T36690[rsp]
  02596	41 c1 e8 11	 shr	 r8d, 17
  0259a	44 0b c0	 or	 r8d, eax
  0259d	44 33 c2	 xor	 r8d, edx
  025a0	44 03 44 24 74	 add	 r8d, DWORD PTR W$[rsp+52]
  025a5	8b 54 24 54	 mov	 edx, DWORD PTR W$[rsp+20]
  025a9	c1 ea 03	 shr	 edx, 3
  025ac	b8 20 00 00 00	 mov	 eax, 32			; 00000020H
  025b1	83 e8 07	 sub	 eax, 7
  025b4	0f b6 c8	 movzx	 ecx, al
  025b7	8b 84 24 88 02
	00 00		 mov	 eax, DWORD PTR $T36697[rsp]
  025be	d3 e0		 shl	 eax, cl
  025c0	8b c8		 mov	 ecx, eax
  025c2	8b 84 24 88 02
	00 00		 mov	 eax, DWORD PTR $T36697[rsp]
  025c9	c1 e8 07	 shr	 eax, 7
  025cc	0b c1		 or	 eax, ecx
  025ce	33 c2		 xor	 eax, edx
  025d0	03 44 24 50	 add	 eax, DWORD PTR W$[rsp+16]
  025d4	41 03 c0	 add	 eax, r8d
  025d7	89 44 24 50	 mov	 DWORD PTR W$[rsp+16], eax
  025db	8b 54 24 20	 mov	 edx, DWORD PTR T$[rsp]
  025df	c1 ea 0e	 shr	 edx, 14
  025e2	b8 20 00 00 00	 mov	 eax, 32			; 00000020H
  025e7	83 e8 0e	 sub	 eax, 14
  025ea	0f b6 c8	 movzx	 ecx, al
  025ed	8b 44 24 20	 mov	 eax, DWORD PTR T$[rsp]
  025f1	d3 e0		 shl	 eax, cl
  025f3	8b c8		 mov	 ecx, eax
  025f5	8b c2		 mov	 eax, edx
  025f7	0b c1		 or	 eax, ecx
  025f9	89 84 24 8c 02
	00 00		 mov	 DWORD PTR $T36701[rsp], eax
  02600	8b 8c 24 8c 02
	00 00		 mov	 ecx, DWORD PTR $T36701[rsp]
  02607	8b 44 24 20	 mov	 eax, DWORD PTR T$[rsp]
  0260b	33 c1		 xor	 eax, ecx
  0260d	89 84 24 90 02
	00 00		 mov	 DWORD PTR $T36705[rsp], eax
  02614	b8 20 00 00 00	 mov	 eax, 32			; 00000020H
  02619	83 e8 05	 sub	 eax, 5
  0261c	0f b6 c8	 movzx	 ecx, al
  0261f	8b 84 24 90 02
	00 00		 mov	 eax, DWORD PTR $T36705[rsp]
  02626	d3 e0		 shl	 eax, cl
  02628	8b 8c 24 90 02
	00 00		 mov	 ecx, DWORD PTR $T36705[rsp]
  0262f	c1 e9 05	 shr	 ecx, 5
  02632	0b c8		 or	 ecx, eax
  02634	8b 44 24 20	 mov	 eax, DWORD PTR T$[rsp]
  02638	33 c1		 xor	 eax, ecx
  0263a	89 84 24 94 02
	00 00		 mov	 DWORD PTR $T36709[rsp], eax
  02641	8b 84 24 80 00
	00 00		 mov	 eax, DWORD PTR j$32935[rsp]
  02648	83 c0 04	 add	 eax, 4
  0264b	44 8b c8	 mov	 r9d, eax
  0264e	4c 8d 05 00 00
	00 00		 lea	 r8, OFFSET FLAT:SHA256_K
  02655	8b 44 24 28	 mov	 eax, DWORD PTR T$[rsp+8]
  02659	8b 4c 24 24	 mov	 ecx, DWORD PTR T$[rsp+4]
  0265d	33 c8		 xor	 ecx, eax
  0265f	8b 44 24 20	 mov	 eax, DWORD PTR T$[rsp]
  02663	23 c1		 and	 eax, ecx
  02665	8b 54 24 28	 mov	 edx, DWORD PTR T$[rsp+8]
  02669	33 d0		 xor	 edx, eax
  0266b	b8 20 00 00 00	 mov	 eax, 32			; 00000020H
  02670	83 e8 06	 sub	 eax, 6
  02673	0f b6 c8	 movzx	 ecx, al
  02676	8b 84 24 94 02
	00 00		 mov	 eax, DWORD PTR $T36709[rsp]
  0267d	d3 e0		 shl	 eax, cl
  0267f	8b 8c 24 94 02
	00 00		 mov	 ecx, DWORD PTR $T36709[rsp]
  02686	c1 e9 06	 shr	 ecx, 6
  02689	0b c8		 or	 ecx, eax
  0268b	03 ca		 add	 ecx, edx
  0268d	43 03 0c 88	 add	 ecx, DWORD PTR [r8+r9*4]
  02691	03 4c 24 50	 add	 ecx, DWORD PTR W$[rsp+16]
  02695	8b 44 24 2c	 mov	 eax, DWORD PTR T$[rsp+12]
  02699	03 c1		 add	 eax, ecx
  0269b	89 44 24 2c	 mov	 DWORD PTR T$[rsp+12], eax
  0269f	8b 4c 24 2c	 mov	 ecx, DWORD PTR T$[rsp+12]
  026a3	8b 44 24 3c	 mov	 eax, DWORD PTR T$[rsp+28]
  026a7	03 c1		 add	 eax, ecx
  026a9	89 44 24 3c	 mov	 DWORD PTR T$[rsp+28], eax
  026ad	8b 54 24 30	 mov	 edx, DWORD PTR T$[rsp+16]
  026b1	c1 ea 09	 shr	 edx, 9
  026b4	b8 20 00 00 00	 mov	 eax, 32			; 00000020H
  026b9	83 e8 09	 sub	 eax, 9
  026bc	0f b6 c8	 movzx	 ecx, al
  026bf	8b 44 24 30	 mov	 eax, DWORD PTR T$[rsp+16]
  026c3	d3 e0		 shl	 eax, cl
  026c5	8b c8		 mov	 ecx, eax
  026c7	8b c2		 mov	 eax, edx
  026c9	0b c1		 or	 eax, ecx
  026cb	89 84 24 98 02
	00 00		 mov	 DWORD PTR $T36713[rsp], eax
  026d2	8b 8c 24 98 02
	00 00		 mov	 ecx, DWORD PTR $T36713[rsp]
  026d9	8b 44 24 30	 mov	 eax, DWORD PTR T$[rsp+16]
  026dd	33 c1		 xor	 eax, ecx
  026df	89 84 24 9c 02
	00 00		 mov	 DWORD PTR $T36717[rsp], eax
  026e6	b8 20 00 00 00	 mov	 eax, 32			; 00000020H
  026eb	83 e8 0b	 sub	 eax, 11
  026ee	0f b6 c8	 movzx	 ecx, al
  026f1	8b 84 24 9c 02
	00 00		 mov	 eax, DWORD PTR $T36717[rsp]
  026f8	d3 e0		 shl	 eax, cl
  026fa	8b 8c 24 9c 02
	00 00		 mov	 ecx, DWORD PTR $T36717[rsp]
  02701	c1 e9 0b	 shr	 ecx, 11
  02704	0b c8		 or	 ecx, eax
  02706	8b 44 24 30	 mov	 eax, DWORD PTR T$[rsp+16]
  0270a	33 c1		 xor	 eax, ecx
  0270c	89 84 24 a0 02
	00 00		 mov	 DWORD PTR $T36721[rsp], eax
  02713	8b 4c 24 38	 mov	 ecx, DWORD PTR T$[rsp+24]
  02717	8b 44 24 34	 mov	 eax, DWORD PTR T$[rsp+20]
  0271b	33 c1		 xor	 eax, ecx
  0271d	8b 54 24 30	 mov	 edx, DWORD PTR T$[rsp+16]
  02721	23 d0		 and	 edx, eax
  02723	8b 4c 24 38	 mov	 ecx, DWORD PTR T$[rsp+24]
  02727	8b 44 24 34	 mov	 eax, DWORD PTR T$[rsp+20]
  0272b	23 c1		 and	 eax, ecx
  0272d	03 d0		 add	 edx, eax
  0272f	b8 20 00 00 00	 mov	 eax, 32			; 00000020H
  02734	83 e8 02	 sub	 eax, 2
  02737	0f b6 c8	 movzx	 ecx, al
  0273a	8b 84 24 a0 02
	00 00		 mov	 eax, DWORD PTR $T36721[rsp]
  02741	d3 e0		 shl	 eax, cl
  02743	8b 8c 24 a0 02
	00 00		 mov	 ecx, DWORD PTR $T36721[rsp]
  0274a	c1 e9 02	 shr	 ecx, 2
  0274d	0b c8		 or	 ecx, eax
  0274f	8b c2		 mov	 eax, edx
  02751	03 44 24 2c	 add	 eax, DWORD PTR T$[rsp+12]
  02755	03 c1		 add	 eax, ecx
  02757	89 44 24 2c	 mov	 DWORD PTR T$[rsp+12], eax
  0275b	b8 20 00 00 00	 mov	 eax, 32			; 00000020H
  02760	83 e8 02	 sub	 eax, 2
  02763	0f b6 c8	 movzx	 ecx, al
  02766	8b 44 24 4c	 mov	 eax, DWORD PTR W$[rsp+12]
  0276a	d3 e0		 shl	 eax, cl
  0276c	8b 4c 24 4c	 mov	 ecx, DWORD PTR W$[rsp+12]
  02770	c1 e9 02	 shr	 ecx, 2
  02773	0b c8		 or	 ecx, eax
  02775	8b 44 24 4c	 mov	 eax, DWORD PTR W$[rsp+12]
  02779	33 c1		 xor	 eax, ecx
  0277b	89 84 24 a4 02
	00 00		 mov	 DWORD PTR $T36728[rsp], eax
  02782	b8 20 00 00 00	 mov	 eax, 32			; 00000020H
  02787	83 e8 0b	 sub	 eax, 11
  0278a	0f b6 c8	 movzx	 ecx, al
  0278d	8b 44 24 58	 mov	 eax, DWORD PTR W$[rsp+24]
  02791	d3 e0		 shl	 eax, cl
  02793	8b 4c 24 58	 mov	 ecx, DWORD PTR W$[rsp+24]
  02797	c1 e9 0b	 shr	 ecx, 11
  0279a	0b c8		 or	 ecx, eax
  0279c	8b 44 24 58	 mov	 eax, DWORD PTR W$[rsp+24]
  027a0	33 c1		 xor	 eax, ecx
  027a2	89 84 24 a8 02
	00 00		 mov	 DWORD PTR $T36735[rsp], eax
  027a9	8b 54 24 4c	 mov	 edx, DWORD PTR W$[rsp+12]
  027ad	c1 ea 0a	 shr	 edx, 10
  027b0	b8 20 00 00 00	 mov	 eax, 32			; 00000020H
  027b5	83 e8 11	 sub	 eax, 17
  027b8	0f b6 c8	 movzx	 ecx, al
  027bb	8b 84 24 a4 02
	00 00		 mov	 eax, DWORD PTR $T36728[rsp]
  027c2	d3 e0		 shl	 eax, cl
  027c4	44 8b 84 24 a4
	02 00 00	 mov	 r8d, DWORD PTR $T36728[rsp]
  027cc	41 c1 e8 11	 shr	 r8d, 17
  027d0	44 0b c0	 or	 r8d, eax
  027d3	44 33 c2	 xor	 r8d, edx
  027d6	44 03 44 24 78	 add	 r8d, DWORD PTR W$[rsp+56]
  027db	8b 54 24 58	 mov	 edx, DWORD PTR W$[rsp+24]
  027df	c1 ea 03	 shr	 edx, 3
  027e2	b8 20 00 00 00	 mov	 eax, 32			; 00000020H
  027e7	83 e8 07	 sub	 eax, 7
  027ea	0f b6 c8	 movzx	 ecx, al
  027ed	8b 84 24 a8 02
	00 00		 mov	 eax, DWORD PTR $T36735[rsp]
  027f4	d3 e0		 shl	 eax, cl
  027f6	8b c8		 mov	 ecx, eax
  027f8	8b 84 24 a8 02
	00 00		 mov	 eax, DWORD PTR $T36735[rsp]
  027ff	c1 e8 07	 shr	 eax, 7
  02802	0b c1		 or	 eax, ecx
  02804	33 c2		 xor	 eax, edx
  02806	03 44 24 54	 add	 eax, DWORD PTR W$[rsp+20]
  0280a	41 03 c0	 add	 eax, r8d
  0280d	89 44 24 54	 mov	 DWORD PTR W$[rsp+20], eax
  02811	8b 54 24 3c	 mov	 edx, DWORD PTR T$[rsp+28]
  02815	c1 ea 0e	 shr	 edx, 14
  02818	b8 20 00 00 00	 mov	 eax, 32			; 00000020H
  0281d	83 e8 0e	 sub	 eax, 14
  02820	0f b6 c8	 movzx	 ecx, al
  02823	8b 44 24 3c	 mov	 eax, DWORD PTR T$[rsp+28]
  02827	d3 e0		 shl	 eax, cl
  02829	8b c8		 mov	 ecx, eax
  0282b	8b c2		 mov	 eax, edx
  0282d	0b c1		 or	 eax, ecx
  0282f	89 84 24 ac 02
	00 00		 mov	 DWORD PTR $T36739[rsp], eax
  02836	8b 8c 24 ac 02
	00 00		 mov	 ecx, DWORD PTR $T36739[rsp]
  0283d	8b 44 24 3c	 mov	 eax, DWORD PTR T$[rsp+28]
  02841	33 c1		 xor	 eax, ecx
  02843	89 84 24 b0 02
	00 00		 mov	 DWORD PTR $T36743[rsp], eax
  0284a	b8 20 00 00 00	 mov	 eax, 32			; 00000020H
  0284f	83 e8 05	 sub	 eax, 5
  02852	0f b6 c8	 movzx	 ecx, al
  02855	8b 84 24 b0 02
	00 00		 mov	 eax, DWORD PTR $T36743[rsp]
  0285c	d3 e0		 shl	 eax, cl
  0285e	8b 8c 24 b0 02
	00 00		 mov	 ecx, DWORD PTR $T36743[rsp]
  02865	c1 e9 05	 shr	 ecx, 5
  02868	0b c8		 or	 ecx, eax
  0286a	8b 44 24 3c	 mov	 eax, DWORD PTR T$[rsp+28]
  0286e	33 c1		 xor	 eax, ecx
  02870	89 84 24 b4 02
	00 00		 mov	 DWORD PTR $T36747[rsp], eax
  02877	8b 84 24 80 00
	00 00		 mov	 eax, DWORD PTR j$32935[rsp]
  0287e	83 c0 05	 add	 eax, 5
  02881	44 8b c8	 mov	 r9d, eax
  02884	4c 8d 05 00 00
	00 00		 lea	 r8, OFFSET FLAT:SHA256_K
  0288b	8b 44 24 24	 mov	 eax, DWORD PTR T$[rsp+4]
  0288f	8b 4c 24 20	 mov	 ecx, DWORD PTR T$[rsp]
  02893	33 c8		 xor	 ecx, eax
  02895	8b 44 24 3c	 mov	 eax, DWORD PTR T$[rsp+28]
  02899	23 c1		 and	 eax, ecx
  0289b	8b 54 24 24	 mov	 edx, DWORD PTR T$[rsp+4]
  0289f	33 d0		 xor	 edx, eax
  028a1	b8 20 00 00 00	 mov	 eax, 32			; 00000020H
  028a6	83 e8 06	 sub	 eax, 6
  028a9	0f b6 c8	 movzx	 ecx, al
  028ac	8b 84 24 b4 02
	00 00		 mov	 eax, DWORD PTR $T36747[rsp]
  028b3	d3 e0		 shl	 eax, cl
  028b5	8b 8c 24 b4 02
	00 00		 mov	 ecx, DWORD PTR $T36747[rsp]
  028bc	c1 e9 06	 shr	 ecx, 6
  028bf	0b c8		 or	 ecx, eax
  028c1	03 ca		 add	 ecx, edx
  028c3	43 03 0c 88	 add	 ecx, DWORD PTR [r8+r9*4]
  028c7	03 4c 24 54	 add	 ecx, DWORD PTR W$[rsp+20]
  028cb	8b 44 24 28	 mov	 eax, DWORD PTR T$[rsp+8]
  028cf	03 c1		 add	 eax, ecx
  028d1	89 44 24 28	 mov	 DWORD PTR T$[rsp+8], eax
  028d5	8b 4c 24 28	 mov	 ecx, DWORD PTR T$[rsp+8]
  028d9	8b 44 24 38	 mov	 eax, DWORD PTR T$[rsp+24]
  028dd	03 c1		 add	 eax, ecx
  028df	89 44 24 38	 mov	 DWORD PTR T$[rsp+24], eax
  028e3	8b 54 24 2c	 mov	 edx, DWORD PTR T$[rsp+12]
  028e7	c1 ea 09	 shr	 edx, 9
  028ea	b8 20 00 00 00	 mov	 eax, 32			; 00000020H
  028ef	83 e8 09	 sub	 eax, 9
  028f2	0f b6 c8	 movzx	 ecx, al
  028f5	8b 44 24 2c	 mov	 eax, DWORD PTR T$[rsp+12]
  028f9	d3 e0		 shl	 eax, cl
  028fb	8b c8		 mov	 ecx, eax
  028fd	8b c2		 mov	 eax, edx
  028ff	0b c1		 or	 eax, ecx
  02901	89 84 24 b8 02
	00 00		 mov	 DWORD PTR $T36751[rsp], eax
  02908	8b 8c 24 b8 02
	00 00		 mov	 ecx, DWORD PTR $T36751[rsp]
  0290f	8b 44 24 2c	 mov	 eax, DWORD PTR T$[rsp+12]
  02913	33 c1		 xor	 eax, ecx
  02915	89 84 24 bc 02
	00 00		 mov	 DWORD PTR $T36755[rsp], eax
  0291c	b8 20 00 00 00	 mov	 eax, 32			; 00000020H
  02921	83 e8 0b	 sub	 eax, 11
  02924	0f b6 c8	 movzx	 ecx, al
  02927	8b 84 24 bc 02
	00 00		 mov	 eax, DWORD PTR $T36755[rsp]
  0292e	d3 e0		 shl	 eax, cl
  02930	8b 8c 24 bc 02
	00 00		 mov	 ecx, DWORD PTR $T36755[rsp]
  02937	c1 e9 0b	 shr	 ecx, 11
  0293a	0b c8		 or	 ecx, eax
  0293c	8b 44 24 2c	 mov	 eax, DWORD PTR T$[rsp+12]
  02940	33 c1		 xor	 eax, ecx
  02942	89 84 24 c0 02
	00 00		 mov	 DWORD PTR $T36759[rsp], eax
  02949	8b 4c 24 34	 mov	 ecx, DWORD PTR T$[rsp+20]
  0294d	8b 44 24 30	 mov	 eax, DWORD PTR T$[rsp+16]
  02951	33 c1		 xor	 eax, ecx
  02953	8b 54 24 2c	 mov	 edx, DWORD PTR T$[rsp+12]
  02957	23 d0		 and	 edx, eax
  02959	8b 4c 24 34	 mov	 ecx, DWORD PTR T$[rsp+20]
  0295d	8b 44 24 30	 mov	 eax, DWORD PTR T$[rsp+16]
  02961	23 c1		 and	 eax, ecx
  02963	03 d0		 add	 edx, eax
  02965	b8 20 00 00 00	 mov	 eax, 32			; 00000020H
  0296a	83 e8 02	 sub	 eax, 2
  0296d	0f b6 c8	 movzx	 ecx, al
  02970	8b 84 24 c0 02
	00 00		 mov	 eax, DWORD PTR $T36759[rsp]
  02977	d3 e0		 shl	 eax, cl
  02979	8b 8c 24 c0 02
	00 00		 mov	 ecx, DWORD PTR $T36759[rsp]
  02980	c1 e9 02	 shr	 ecx, 2
  02983	0b c8		 or	 ecx, eax
  02985	8b c2		 mov	 eax, edx
  02987	03 44 24 28	 add	 eax, DWORD PTR T$[rsp+8]
  0298b	03 c1		 add	 eax, ecx
  0298d	89 44 24 28	 mov	 DWORD PTR T$[rsp+8], eax
  02991	b8 20 00 00 00	 mov	 eax, 32			; 00000020H
  02996	83 e8 02	 sub	 eax, 2
  02999	0f b6 c8	 movzx	 ecx, al
  0299c	8b 44 24 50	 mov	 eax, DWORD PTR W$[rsp+16]
  029a0	d3 e0		 shl	 eax, cl
  029a2	8b 4c 24 50	 mov	 ecx, DWORD PTR W$[rsp+16]
  029a6	c1 e9 02	 shr	 ecx, 2
  029a9	0b c8		 or	 ecx, eax
  029ab	8b 44 24 50	 mov	 eax, DWORD PTR W$[rsp+16]
  029af	33 c1		 xor	 eax, ecx
  029b1	89 84 24 c4 02
	00 00		 mov	 DWORD PTR $T36766[rsp], eax
  029b8	b8 20 00 00 00	 mov	 eax, 32			; 00000020H
  029bd	83 e8 0b	 sub	 eax, 11
  029c0	0f b6 c8	 movzx	 ecx, al
  029c3	8b 44 24 5c	 mov	 eax, DWORD PTR W$[rsp+28]
  029c7	d3 e0		 shl	 eax, cl
  029c9	8b 4c 24 5c	 mov	 ecx, DWORD PTR W$[rsp+28]
  029cd	c1 e9 0b	 shr	 ecx, 11
  029d0	0b c8		 or	 ecx, eax
  029d2	8b 44 24 5c	 mov	 eax, DWORD PTR W$[rsp+28]
  029d6	33 c1		 xor	 eax, ecx
  029d8	89 84 24 c8 02
	00 00		 mov	 DWORD PTR $T36773[rsp], eax
  029df	8b 54 24 50	 mov	 edx, DWORD PTR W$[rsp+16]
  029e3	c1 ea 0a	 shr	 edx, 10
  029e6	b8 20 00 00 00	 mov	 eax, 32			; 00000020H
  029eb	83 e8 11	 sub	 eax, 17
  029ee	0f b6 c8	 movzx	 ecx, al
  029f1	8b 84 24 c4 02
	00 00		 mov	 eax, DWORD PTR $T36766[rsp]
  029f8	d3 e0		 shl	 eax, cl
  029fa	44 8b 84 24 c4
	02 00 00	 mov	 r8d, DWORD PTR $T36766[rsp]
  02a02	41 c1 e8 11	 shr	 r8d, 17
  02a06	44 0b c0	 or	 r8d, eax
  02a09	44 33 c2	 xor	 r8d, edx
  02a0c	44 03 44 24 7c	 add	 r8d, DWORD PTR W$[rsp+60]
  02a11	8b 54 24 5c	 mov	 edx, DWORD PTR W$[rsp+28]
  02a15	c1 ea 03	 shr	 edx, 3
  02a18	b8 20 00 00 00	 mov	 eax, 32			; 00000020H
  02a1d	83 e8 07	 sub	 eax, 7
  02a20	0f b6 c8	 movzx	 ecx, al
  02a23	8b 84 24 c8 02
	00 00		 mov	 eax, DWORD PTR $T36773[rsp]
  02a2a	d3 e0		 shl	 eax, cl
  02a2c	8b c8		 mov	 ecx, eax
  02a2e	8b 84 24 c8 02
	00 00		 mov	 eax, DWORD PTR $T36773[rsp]
  02a35	c1 e8 07	 shr	 eax, 7
  02a38	0b c1		 or	 eax, ecx
  02a3a	33 c2		 xor	 eax, edx
  02a3c	03 44 24 58	 add	 eax, DWORD PTR W$[rsp+24]
  02a40	41 03 c0	 add	 eax, r8d
  02a43	89 44 24 58	 mov	 DWORD PTR W$[rsp+24], eax
  02a47	8b 54 24 38	 mov	 edx, DWORD PTR T$[rsp+24]
  02a4b	c1 ea 0e	 shr	 edx, 14
  02a4e	b8 20 00 00 00	 mov	 eax, 32			; 00000020H
  02a53	83 e8 0e	 sub	 eax, 14
  02a56	0f b6 c8	 movzx	 ecx, al
  02a59	8b 44 24 38	 mov	 eax, DWORD PTR T$[rsp+24]
  02a5d	d3 e0		 shl	 eax, cl
  02a5f	8b c8		 mov	 ecx, eax
  02a61	8b c2		 mov	 eax, edx
  02a63	0b c1		 or	 eax, ecx
  02a65	89 84 24 cc 02
	00 00		 mov	 DWORD PTR $T36777[rsp], eax
  02a6c	8b 8c 24 cc 02
	00 00		 mov	 ecx, DWORD PTR $T36777[rsp]
  02a73	8b 44 24 38	 mov	 eax, DWORD PTR T$[rsp+24]
  02a77	33 c1		 xor	 eax, ecx
  02a79	89 84 24 d0 02
	00 00		 mov	 DWORD PTR $T36781[rsp], eax
  02a80	b8 20 00 00 00	 mov	 eax, 32			; 00000020H
  02a85	83 e8 05	 sub	 eax, 5
  02a88	0f b6 c8	 movzx	 ecx, al
  02a8b	8b 84 24 d0 02
	00 00		 mov	 eax, DWORD PTR $T36781[rsp]
  02a92	d3 e0		 shl	 eax, cl
  02a94	8b 8c 24 d0 02
	00 00		 mov	 ecx, DWORD PTR $T36781[rsp]
  02a9b	c1 e9 05	 shr	 ecx, 5
  02a9e	0b c8		 or	 ecx, eax
  02aa0	8b 44 24 38	 mov	 eax, DWORD PTR T$[rsp+24]
  02aa4	33 c1		 xor	 eax, ecx
  02aa6	89 84 24 d4 02
	00 00		 mov	 DWORD PTR $T36785[rsp], eax
  02aad	8b 84 24 80 00
	00 00		 mov	 eax, DWORD PTR j$32935[rsp]
  02ab4	83 c0 06	 add	 eax, 6
  02ab7	44 8b c8	 mov	 r9d, eax
  02aba	4c 8d 05 00 00
	00 00		 lea	 r8, OFFSET FLAT:SHA256_K
  02ac1	8b 44 24 20	 mov	 eax, DWORD PTR T$[rsp]
  02ac5	8b 4c 24 3c	 mov	 ecx, DWORD PTR T$[rsp+28]
  02ac9	33 c8		 xor	 ecx, eax
  02acb	8b 44 24 38	 mov	 eax, DWORD PTR T$[rsp+24]
  02acf	23 c1		 and	 eax, ecx
  02ad1	8b 54 24 20	 mov	 edx, DWORD PTR T$[rsp]
  02ad5	33 d0		 xor	 edx, eax
  02ad7	b8 20 00 00 00	 mov	 eax, 32			; 00000020H
  02adc	83 e8 06	 sub	 eax, 6
  02adf	0f b6 c8	 movzx	 ecx, al
  02ae2	8b 84 24 d4 02
	00 00		 mov	 eax, DWORD PTR $T36785[rsp]
  02ae9	d3 e0		 shl	 eax, cl
  02aeb	8b 8c 24 d4 02
	00 00		 mov	 ecx, DWORD PTR $T36785[rsp]
  02af2	c1 e9 06	 shr	 ecx, 6
  02af5	0b c8		 or	 ecx, eax
  02af7	03 ca		 add	 ecx, edx
  02af9	43 03 0c 88	 add	 ecx, DWORD PTR [r8+r9*4]
  02afd	03 4c 24 58	 add	 ecx, DWORD PTR W$[rsp+24]
  02b01	8b 44 24 24	 mov	 eax, DWORD PTR T$[rsp+4]
  02b05	03 c1		 add	 eax, ecx
  02b07	89 44 24 24	 mov	 DWORD PTR T$[rsp+4], eax
  02b0b	8b 4c 24 24	 mov	 ecx, DWORD PTR T$[rsp+4]
  02b0f	8b 44 24 34	 mov	 eax, DWORD PTR T$[rsp+20]
  02b13	03 c1		 add	 eax, ecx
  02b15	89 44 24 34	 mov	 DWORD PTR T$[rsp+20], eax
  02b19	8b 54 24 28	 mov	 edx, DWORD PTR T$[rsp+8]
  02b1d	c1 ea 09	 shr	 edx, 9
  02b20	b8 20 00 00 00	 mov	 eax, 32			; 00000020H
  02b25	83 e8 09	 sub	 eax, 9
  02b28	0f b6 c8	 movzx	 ecx, al
  02b2b	8b 44 24 28	 mov	 eax, DWORD PTR T$[rsp+8]
  02b2f	d3 e0		 shl	 eax, cl
  02b31	8b c8		 mov	 ecx, eax
  02b33	8b c2		 mov	 eax, edx
  02b35	0b c1		 or	 eax, ecx
  02b37	89 84 24 d8 02
	00 00		 mov	 DWORD PTR $T36789[rsp], eax
  02b3e	8b 8c 24 d8 02
	00 00		 mov	 ecx, DWORD PTR $T36789[rsp]
  02b45	8b 44 24 28	 mov	 eax, DWORD PTR T$[rsp+8]
  02b49	33 c1		 xor	 eax, ecx
  02b4b	89 84 24 dc 02
	00 00		 mov	 DWORD PTR $T36793[rsp], eax
  02b52	b8 20 00 00 00	 mov	 eax, 32			; 00000020H
  02b57	83 e8 0b	 sub	 eax, 11
  02b5a	0f b6 c8	 movzx	 ecx, al
  02b5d	8b 84 24 dc 02
	00 00		 mov	 eax, DWORD PTR $T36793[rsp]
  02b64	d3 e0		 shl	 eax, cl
  02b66	8b 8c 24 dc 02
	00 00		 mov	 ecx, DWORD PTR $T36793[rsp]
  02b6d	c1 e9 0b	 shr	 ecx, 11
  02b70	0b c8		 or	 ecx, eax
  02b72	8b 44 24 28	 mov	 eax, DWORD PTR T$[rsp+8]
  02b76	33 c1		 xor	 eax, ecx
  02b78	89 84 24 e0 02
	00 00		 mov	 DWORD PTR $T36797[rsp], eax
  02b7f	8b 4c 24 30	 mov	 ecx, DWORD PTR T$[rsp+16]
  02b83	8b 44 24 2c	 mov	 eax, DWORD PTR T$[rsp+12]
  02b87	33 c1		 xor	 eax, ecx
  02b89	8b 54 24 28	 mov	 edx, DWORD PTR T$[rsp+8]
  02b8d	23 d0		 and	 edx, eax
  02b8f	8b 4c 24 30	 mov	 ecx, DWORD PTR T$[rsp+16]
  02b93	8b 44 24 2c	 mov	 eax, DWORD PTR T$[rsp+12]
  02b97	23 c1		 and	 eax, ecx
  02b99	03 d0		 add	 edx, eax
  02b9b	b8 20 00 00 00	 mov	 eax, 32			; 00000020H
  02ba0	83 e8 02	 sub	 eax, 2
  02ba3	0f b6 c8	 movzx	 ecx, al
  02ba6	8b 84 24 e0 02
	00 00		 mov	 eax, DWORD PTR $T36797[rsp]
  02bad	d3 e0		 shl	 eax, cl
  02baf	8b 8c 24 e0 02
	00 00		 mov	 ecx, DWORD PTR $T36797[rsp]
  02bb6	c1 e9 02	 shr	 ecx, 2
  02bb9	0b c8		 or	 ecx, eax
  02bbb	8b c2		 mov	 eax, edx
  02bbd	03 44 24 24	 add	 eax, DWORD PTR T$[rsp+4]
  02bc1	03 c1		 add	 eax, ecx
  02bc3	89 44 24 24	 mov	 DWORD PTR T$[rsp+4], eax
  02bc7	b8 20 00 00 00	 mov	 eax, 32			; 00000020H
  02bcc	83 e8 02	 sub	 eax, 2
  02bcf	0f b6 c8	 movzx	 ecx, al
  02bd2	8b 44 24 54	 mov	 eax, DWORD PTR W$[rsp+20]
  02bd6	d3 e0		 shl	 eax, cl
  02bd8	8b 4c 24 54	 mov	 ecx, DWORD PTR W$[rsp+20]
  02bdc	c1 e9 02	 shr	 ecx, 2
  02bdf	0b c8		 or	 ecx, eax
  02be1	8b 44 24 54	 mov	 eax, DWORD PTR W$[rsp+20]
  02be5	33 c1		 xor	 eax, ecx
  02be7	89 84 24 e4 02
	00 00		 mov	 DWORD PTR $T36804[rsp], eax
  02bee	b8 20 00 00 00	 mov	 eax, 32			; 00000020H
  02bf3	83 e8 0b	 sub	 eax, 11
  02bf6	0f b6 c8	 movzx	 ecx, al
  02bf9	8b 44 24 60	 mov	 eax, DWORD PTR W$[rsp+32]
  02bfd	d3 e0		 shl	 eax, cl
  02bff	8b 4c 24 60	 mov	 ecx, DWORD PTR W$[rsp+32]
  02c03	c1 e9 0b	 shr	 ecx, 11
  02c06	0b c8		 or	 ecx, eax
  02c08	8b 44 24 60	 mov	 eax, DWORD PTR W$[rsp+32]
  02c0c	33 c1		 xor	 eax, ecx
  02c0e	89 84 24 e8 02
	00 00		 mov	 DWORD PTR $T36811[rsp], eax
  02c15	8b 54 24 54	 mov	 edx, DWORD PTR W$[rsp+20]
  02c19	c1 ea 0a	 shr	 edx, 10
  02c1c	b8 20 00 00 00	 mov	 eax, 32			; 00000020H
  02c21	83 e8 11	 sub	 eax, 17
  02c24	0f b6 c8	 movzx	 ecx, al
  02c27	8b 84 24 e4 02
	00 00		 mov	 eax, DWORD PTR $T36804[rsp]
  02c2e	d3 e0		 shl	 eax, cl
  02c30	44 8b 84 24 e4
	02 00 00	 mov	 r8d, DWORD PTR $T36804[rsp]
  02c38	41 c1 e8 11	 shr	 r8d, 17
  02c3c	44 0b c0	 or	 r8d, eax
  02c3f	44 33 c2	 xor	 r8d, edx
  02c42	44 03 44 24 40	 add	 r8d, DWORD PTR W$[rsp]
  02c47	8b 54 24 60	 mov	 edx, DWORD PTR W$[rsp+32]
  02c4b	c1 ea 03	 shr	 edx, 3
  02c4e	b8 20 00 00 00	 mov	 eax, 32			; 00000020H
  02c53	83 e8 07	 sub	 eax, 7
  02c56	0f b6 c8	 movzx	 ecx, al
  02c59	8b 84 24 e8 02
	00 00		 mov	 eax, DWORD PTR $T36811[rsp]
  02c60	d3 e0		 shl	 eax, cl
  02c62	8b c8		 mov	 ecx, eax
  02c64	8b 84 24 e8 02
	00 00		 mov	 eax, DWORD PTR $T36811[rsp]
  02c6b	c1 e8 07	 shr	 eax, 7
  02c6e	0b c1		 or	 eax, ecx
  02c70	33 c2		 xor	 eax, edx
  02c72	03 44 24 5c	 add	 eax, DWORD PTR W$[rsp+28]
  02c76	41 03 c0	 add	 eax, r8d
  02c79	89 44 24 5c	 mov	 DWORD PTR W$[rsp+28], eax
  02c7d	8b 54 24 34	 mov	 edx, DWORD PTR T$[rsp+20]
  02c81	c1 ea 0e	 shr	 edx, 14
  02c84	b8 20 00 00 00	 mov	 eax, 32			; 00000020H
  02c89	83 e8 0e	 sub	 eax, 14
  02c8c	0f b6 c8	 movzx	 ecx, al
  02c8f	8b 44 24 34	 mov	 eax, DWORD PTR T$[rsp+20]
  02c93	d3 e0		 shl	 eax, cl
  02c95	8b c8		 mov	 ecx, eax
  02c97	8b c2		 mov	 eax, edx
  02c99	0b c1		 or	 eax, ecx
  02c9b	89 84 24 ec 02
	00 00		 mov	 DWORD PTR $T36815[rsp], eax
  02ca2	8b 8c 24 ec 02
	00 00		 mov	 ecx, DWORD PTR $T36815[rsp]
  02ca9	8b 44 24 34	 mov	 eax, DWORD PTR T$[rsp+20]
  02cad	33 c1		 xor	 eax, ecx
  02caf	89 84 24 f0 02
	00 00		 mov	 DWORD PTR $T36819[rsp], eax
  02cb6	b8 20 00 00 00	 mov	 eax, 32			; 00000020H
  02cbb	83 e8 05	 sub	 eax, 5
  02cbe	0f b6 c8	 movzx	 ecx, al
  02cc1	8b 84 24 f0 02
	00 00		 mov	 eax, DWORD PTR $T36819[rsp]
  02cc8	d3 e0		 shl	 eax, cl
  02cca	8b 8c 24 f0 02
	00 00		 mov	 ecx, DWORD PTR $T36819[rsp]
  02cd1	c1 e9 05	 shr	 ecx, 5
  02cd4	0b c8		 or	 ecx, eax
  02cd6	8b 44 24 34	 mov	 eax, DWORD PTR T$[rsp+20]
  02cda	33 c1		 xor	 eax, ecx
  02cdc	89 84 24 f4 02
	00 00		 mov	 DWORD PTR $T36823[rsp], eax
  02ce3	8b 84 24 80 00
	00 00		 mov	 eax, DWORD PTR j$32935[rsp]
  02cea	83 c0 07	 add	 eax, 7
  02ced	44 8b c8	 mov	 r9d, eax
  02cf0	4c 8d 05 00 00
	00 00		 lea	 r8, OFFSET FLAT:SHA256_K
  02cf7	8b 44 24 3c	 mov	 eax, DWORD PTR T$[rsp+28]
  02cfb	8b 4c 24 38	 mov	 ecx, DWORD PTR T$[rsp+24]
  02cff	33 c8		 xor	 ecx, eax
  02d01	8b 44 24 34	 mov	 eax, DWORD PTR T$[rsp+20]
  02d05	23 c1		 and	 eax, ecx
  02d07	8b 54 24 3c	 mov	 edx, DWORD PTR T$[rsp+28]
  02d0b	33 d0		 xor	 edx, eax
  02d0d	b8 20 00 00 00	 mov	 eax, 32			; 00000020H
  02d12	83 e8 06	 sub	 eax, 6
  02d15	0f b6 c8	 movzx	 ecx, al
  02d18	8b 84 24 f4 02
	00 00		 mov	 eax, DWORD PTR $T36823[rsp]
  02d1f	d3 e0		 shl	 eax, cl
  02d21	8b 8c 24 f4 02
	00 00		 mov	 ecx, DWORD PTR $T36823[rsp]
  02d28	c1 e9 06	 shr	 ecx, 6
  02d2b	0b c8		 or	 ecx, eax
  02d2d	03 ca		 add	 ecx, edx
  02d2f	43 03 0c 88	 add	 ecx, DWORD PTR [r8+r9*4]
  02d33	03 4c 24 5c	 add	 ecx, DWORD PTR W$[rsp+28]
  02d37	8b 44 24 20	 mov	 eax, DWORD PTR T$[rsp]
  02d3b	03 c1		 add	 eax, ecx
  02d3d	89 44 24 20	 mov	 DWORD PTR T$[rsp], eax
  02d41	8b 4c 24 20	 mov	 ecx, DWORD PTR T$[rsp]
  02d45	8b 44 24 30	 mov	 eax, DWORD PTR T$[rsp+16]
  02d49	03 c1		 add	 eax, ecx
  02d4b	89 44 24 30	 mov	 DWORD PTR T$[rsp+16], eax
  02d4f	8b 54 24 24	 mov	 edx, DWORD PTR T$[rsp+4]
  02d53	c1 ea 09	 shr	 edx, 9
  02d56	b8 20 00 00 00	 mov	 eax, 32			; 00000020H
  02d5b	83 e8 09	 sub	 eax, 9
  02d5e	0f b6 c8	 movzx	 ecx, al
  02d61	8b 44 24 24	 mov	 eax, DWORD PTR T$[rsp+4]
  02d65	d3 e0		 shl	 eax, cl
  02d67	8b c8		 mov	 ecx, eax
  02d69	8b c2		 mov	 eax, edx
  02d6b	0b c1		 or	 eax, ecx
  02d6d	89 84 24 f8 02
	00 00		 mov	 DWORD PTR $T36827[rsp], eax
  02d74	8b 8c 24 f8 02
	00 00		 mov	 ecx, DWORD PTR $T36827[rsp]
  02d7b	8b 44 24 24	 mov	 eax, DWORD PTR T$[rsp+4]
  02d7f	33 c1		 xor	 eax, ecx
  02d81	89 84 24 fc 02
	00 00		 mov	 DWORD PTR $T36831[rsp], eax
  02d88	b8 20 00 00 00	 mov	 eax, 32			; 00000020H
  02d8d	83 e8 0b	 sub	 eax, 11
  02d90	0f b6 c8	 movzx	 ecx, al
  02d93	8b 84 24 fc 02
	00 00		 mov	 eax, DWORD PTR $T36831[rsp]
  02d9a	d3 e0		 shl	 eax, cl
  02d9c	8b 8c 24 fc 02
	00 00		 mov	 ecx, DWORD PTR $T36831[rsp]
  02da3	c1 e9 0b	 shr	 ecx, 11
  02da6	0b c8		 or	 ecx, eax
  02da8	8b 44 24 24	 mov	 eax, DWORD PTR T$[rsp+4]
  02dac	33 c1		 xor	 eax, ecx
  02dae	89 84 24 00 03
	00 00		 mov	 DWORD PTR $T36835[rsp], eax
  02db5	8b 4c 24 2c	 mov	 ecx, DWORD PTR T$[rsp+12]
  02db9	8b 44 24 28	 mov	 eax, DWORD PTR T$[rsp+8]
  02dbd	33 c1		 xor	 eax, ecx
  02dbf	8b 54 24 24	 mov	 edx, DWORD PTR T$[rsp+4]
  02dc3	23 d0		 and	 edx, eax
  02dc5	8b 4c 24 2c	 mov	 ecx, DWORD PTR T$[rsp+12]
  02dc9	8b 44 24 28	 mov	 eax, DWORD PTR T$[rsp+8]
  02dcd	23 c1		 and	 eax, ecx
  02dcf	03 d0		 add	 edx, eax
  02dd1	b8 20 00 00 00	 mov	 eax, 32			; 00000020H
  02dd6	83 e8 02	 sub	 eax, 2
  02dd9	0f b6 c8	 movzx	 ecx, al
  02ddc	8b 84 24 00 03
	00 00		 mov	 eax, DWORD PTR $T36835[rsp]
  02de3	d3 e0		 shl	 eax, cl
  02de5	8b 8c 24 00 03
	00 00		 mov	 ecx, DWORD PTR $T36835[rsp]
  02dec	c1 e9 02	 shr	 ecx, 2
  02def	0b c8		 or	 ecx, eax
  02df1	8b c2		 mov	 eax, edx
  02df3	03 44 24 20	 add	 eax, DWORD PTR T$[rsp]
  02df7	03 c1		 add	 eax, ecx
  02df9	89 44 24 20	 mov	 DWORD PTR T$[rsp], eax

; 104  : 		R2( 8); R2( 9); R2(10); R2(11);

  02dfd	b8 20 00 00 00	 mov	 eax, 32			; 00000020H
  02e02	83 e8 02	 sub	 eax, 2
  02e05	0f b6 c8	 movzx	 ecx, al
  02e08	8b 44 24 58	 mov	 eax, DWORD PTR W$[rsp+24]
  02e0c	d3 e0		 shl	 eax, cl
  02e0e	8b 4c 24 58	 mov	 ecx, DWORD PTR W$[rsp+24]
  02e12	c1 e9 02	 shr	 ecx, 2
  02e15	0b c8		 or	 ecx, eax
  02e17	8b 44 24 58	 mov	 eax, DWORD PTR W$[rsp+24]
  02e1b	33 c1		 xor	 eax, ecx
  02e1d	89 84 24 04 03
	00 00		 mov	 DWORD PTR $T36842[rsp], eax
  02e24	b8 20 00 00 00	 mov	 eax, 32			; 00000020H
  02e29	83 e8 0b	 sub	 eax, 11
  02e2c	0f b6 c8	 movzx	 ecx, al
  02e2f	8b 44 24 64	 mov	 eax, DWORD PTR W$[rsp+36]
  02e33	d3 e0		 shl	 eax, cl
  02e35	8b 4c 24 64	 mov	 ecx, DWORD PTR W$[rsp+36]
  02e39	c1 e9 0b	 shr	 ecx, 11
  02e3c	0b c8		 or	 ecx, eax
  02e3e	8b 44 24 64	 mov	 eax, DWORD PTR W$[rsp+36]
  02e42	33 c1		 xor	 eax, ecx
  02e44	89 84 24 08 03
	00 00		 mov	 DWORD PTR $T36849[rsp], eax
  02e4b	8b 54 24 58	 mov	 edx, DWORD PTR W$[rsp+24]
  02e4f	c1 ea 0a	 shr	 edx, 10
  02e52	b8 20 00 00 00	 mov	 eax, 32			; 00000020H
  02e57	83 e8 11	 sub	 eax, 17
  02e5a	0f b6 c8	 movzx	 ecx, al
  02e5d	8b 84 24 04 03
	00 00		 mov	 eax, DWORD PTR $T36842[rsp]
  02e64	d3 e0		 shl	 eax, cl
  02e66	44 8b 84 24 04
	03 00 00	 mov	 r8d, DWORD PTR $T36842[rsp]
  02e6e	41 c1 e8 11	 shr	 r8d, 17
  02e72	44 0b c0	 or	 r8d, eax
  02e75	44 33 c2	 xor	 r8d, edx
  02e78	44 03 44 24 44	 add	 r8d, DWORD PTR W$[rsp+4]
  02e7d	8b 54 24 64	 mov	 edx, DWORD PTR W$[rsp+36]
  02e81	c1 ea 03	 shr	 edx, 3
  02e84	b8 20 00 00 00	 mov	 eax, 32			; 00000020H
  02e89	83 e8 07	 sub	 eax, 7
  02e8c	0f b6 c8	 movzx	 ecx, al
  02e8f	8b 84 24 08 03
	00 00		 mov	 eax, DWORD PTR $T36849[rsp]
  02e96	d3 e0		 shl	 eax, cl
  02e98	8b c8		 mov	 ecx, eax
  02e9a	8b 84 24 08 03
	00 00		 mov	 eax, DWORD PTR $T36849[rsp]
  02ea1	c1 e8 07	 shr	 eax, 7
  02ea4	0b c1		 or	 eax, ecx
  02ea6	33 c2		 xor	 eax, edx
  02ea8	03 44 24 60	 add	 eax, DWORD PTR W$[rsp+32]
  02eac	41 03 c0	 add	 eax, r8d
  02eaf	89 44 24 60	 mov	 DWORD PTR W$[rsp+32], eax
  02eb3	8b 54 24 30	 mov	 edx, DWORD PTR T$[rsp+16]
  02eb7	c1 ea 0e	 shr	 edx, 14
  02eba	b8 20 00 00 00	 mov	 eax, 32			; 00000020H
  02ebf	83 e8 0e	 sub	 eax, 14
  02ec2	0f b6 c8	 movzx	 ecx, al
  02ec5	8b 44 24 30	 mov	 eax, DWORD PTR T$[rsp+16]
  02ec9	d3 e0		 shl	 eax, cl
  02ecb	8b c8		 mov	 ecx, eax
  02ecd	8b c2		 mov	 eax, edx
  02ecf	0b c1		 or	 eax, ecx
  02ed1	89 84 24 0c 03
	00 00		 mov	 DWORD PTR $T36853[rsp], eax
  02ed8	8b 8c 24 0c 03
	00 00		 mov	 ecx, DWORD PTR $T36853[rsp]
  02edf	8b 44 24 30	 mov	 eax, DWORD PTR T$[rsp+16]
  02ee3	33 c1		 xor	 eax, ecx
  02ee5	89 84 24 10 03
	00 00		 mov	 DWORD PTR $T36857[rsp], eax
  02eec	b8 20 00 00 00	 mov	 eax, 32			; 00000020H
  02ef1	83 e8 05	 sub	 eax, 5
  02ef4	0f b6 c8	 movzx	 ecx, al
  02ef7	8b 84 24 10 03
	00 00		 mov	 eax, DWORD PTR $T36857[rsp]
  02efe	d3 e0		 shl	 eax, cl
  02f00	8b 8c 24 10 03
	00 00		 mov	 ecx, DWORD PTR $T36857[rsp]
  02f07	c1 e9 05	 shr	 ecx, 5
  02f0a	0b c8		 or	 ecx, eax
  02f0c	8b 44 24 30	 mov	 eax, DWORD PTR T$[rsp+16]
  02f10	33 c1		 xor	 eax, ecx
  02f12	89 84 24 14 03
	00 00		 mov	 DWORD PTR $T36861[rsp], eax
  02f19	8b 84 24 80 00
	00 00		 mov	 eax, DWORD PTR j$32935[rsp]
  02f20	83 c0 08	 add	 eax, 8
  02f23	44 8b c8	 mov	 r9d, eax
  02f26	4c 8d 05 00 00
	00 00		 lea	 r8, OFFSET FLAT:SHA256_K
  02f2d	8b 44 24 38	 mov	 eax, DWORD PTR T$[rsp+24]
  02f31	8b 4c 24 34	 mov	 ecx, DWORD PTR T$[rsp+20]
  02f35	33 c8		 xor	 ecx, eax
  02f37	8b 44 24 30	 mov	 eax, DWORD PTR T$[rsp+16]
  02f3b	23 c1		 and	 eax, ecx
  02f3d	8b 54 24 38	 mov	 edx, DWORD PTR T$[rsp+24]
  02f41	33 d0		 xor	 edx, eax
  02f43	b8 20 00 00 00	 mov	 eax, 32			; 00000020H
  02f48	83 e8 06	 sub	 eax, 6
  02f4b	0f b6 c8	 movzx	 ecx, al
  02f4e	8b 84 24 14 03
	00 00		 mov	 eax, DWORD PTR $T36861[rsp]
  02f55	d3 e0		 shl	 eax, cl
  02f57	8b 8c 24 14 03
	00 00		 mov	 ecx, DWORD PTR $T36861[rsp]
  02f5e	c1 e9 06	 shr	 ecx, 6
  02f61	0b c8		 or	 ecx, eax
  02f63	03 ca		 add	 ecx, edx
  02f65	43 03 0c 88	 add	 ecx, DWORD PTR [r8+r9*4]
  02f69	03 4c 24 60	 add	 ecx, DWORD PTR W$[rsp+32]
  02f6d	8b 44 24 3c	 mov	 eax, DWORD PTR T$[rsp+28]
  02f71	03 c1		 add	 eax, ecx
  02f73	89 44 24 3c	 mov	 DWORD PTR T$[rsp+28], eax
  02f77	8b 4c 24 3c	 mov	 ecx, DWORD PTR T$[rsp+28]
  02f7b	8b 44 24 2c	 mov	 eax, DWORD PTR T$[rsp+12]
  02f7f	03 c1		 add	 eax, ecx
  02f81	89 44 24 2c	 mov	 DWORD PTR T$[rsp+12], eax
  02f85	8b 54 24 20	 mov	 edx, DWORD PTR T$[rsp]
  02f89	c1 ea 09	 shr	 edx, 9
  02f8c	b8 20 00 00 00	 mov	 eax, 32			; 00000020H
  02f91	83 e8 09	 sub	 eax, 9
  02f94	0f b6 c8	 movzx	 ecx, al
  02f97	8b 44 24 20	 mov	 eax, DWORD PTR T$[rsp]
  02f9b	d3 e0		 shl	 eax, cl
  02f9d	8b c8		 mov	 ecx, eax
  02f9f	8b c2		 mov	 eax, edx
  02fa1	0b c1		 or	 eax, ecx
  02fa3	89 84 24 18 03
	00 00		 mov	 DWORD PTR $T36865[rsp], eax
  02faa	8b 8c 24 18 03
	00 00		 mov	 ecx, DWORD PTR $T36865[rsp]
  02fb1	8b 44 24 20	 mov	 eax, DWORD PTR T$[rsp]
  02fb5	33 c1		 xor	 eax, ecx
  02fb7	89 84 24 1c 03
	00 00		 mov	 DWORD PTR $T36869[rsp], eax
  02fbe	b8 20 00 00 00	 mov	 eax, 32			; 00000020H
  02fc3	83 e8 0b	 sub	 eax, 11
  02fc6	0f b6 c8	 movzx	 ecx, al
  02fc9	8b 84 24 1c 03
	00 00		 mov	 eax, DWORD PTR $T36869[rsp]
  02fd0	d3 e0		 shl	 eax, cl
  02fd2	8b 8c 24 1c 03
	00 00		 mov	 ecx, DWORD PTR $T36869[rsp]
  02fd9	c1 e9 0b	 shr	 ecx, 11
  02fdc	0b c8		 or	 ecx, eax
  02fde	8b 44 24 20	 mov	 eax, DWORD PTR T$[rsp]
  02fe2	33 c1		 xor	 eax, ecx
  02fe4	89 84 24 20 03
	00 00		 mov	 DWORD PTR $T36873[rsp], eax
  02feb	8b 4c 24 28	 mov	 ecx, DWORD PTR T$[rsp+8]
  02fef	8b 44 24 24	 mov	 eax, DWORD PTR T$[rsp+4]
  02ff3	33 c1		 xor	 eax, ecx
  02ff5	8b 54 24 20	 mov	 edx, DWORD PTR T$[rsp]
  02ff9	23 d0		 and	 edx, eax
  02ffb	8b 4c 24 28	 mov	 ecx, DWORD PTR T$[rsp+8]
  02fff	8b 44 24 24	 mov	 eax, DWORD PTR T$[rsp+4]
  03003	23 c1		 and	 eax, ecx
  03005	03 d0		 add	 edx, eax
  03007	b8 20 00 00 00	 mov	 eax, 32			; 00000020H
  0300c	83 e8 02	 sub	 eax, 2
  0300f	0f b6 c8	 movzx	 ecx, al
  03012	8b 84 24 20 03
	00 00		 mov	 eax, DWORD PTR $T36873[rsp]
  03019	d3 e0		 shl	 eax, cl
  0301b	8b 8c 24 20 03
	00 00		 mov	 ecx, DWORD PTR $T36873[rsp]
  03022	c1 e9 02	 shr	 ecx, 2
  03025	0b c8		 or	 ecx, eax
  03027	8b c2		 mov	 eax, edx
  03029	03 44 24 3c	 add	 eax, DWORD PTR T$[rsp+28]
  0302d	03 c1		 add	 eax, ecx
  0302f	89 44 24 3c	 mov	 DWORD PTR T$[rsp+28], eax
  03033	b8 20 00 00 00	 mov	 eax, 32			; 00000020H
  03038	83 e8 02	 sub	 eax, 2
  0303b	0f b6 c8	 movzx	 ecx, al
  0303e	8b 44 24 5c	 mov	 eax, DWORD PTR W$[rsp+28]
  03042	d3 e0		 shl	 eax, cl
  03044	8b 4c 24 5c	 mov	 ecx, DWORD PTR W$[rsp+28]
  03048	c1 e9 02	 shr	 ecx, 2
  0304b	0b c8		 or	 ecx, eax
  0304d	8b 44 24 5c	 mov	 eax, DWORD PTR W$[rsp+28]
  03051	33 c1		 xor	 eax, ecx
  03053	89 84 24 24 03
	00 00		 mov	 DWORD PTR $T36880[rsp], eax
  0305a	b8 20 00 00 00	 mov	 eax, 32			; 00000020H
  0305f	83 e8 0b	 sub	 eax, 11
  03062	0f b6 c8	 movzx	 ecx, al
  03065	8b 44 24 68	 mov	 eax, DWORD PTR W$[rsp+40]
  03069	d3 e0		 shl	 eax, cl
  0306b	8b 4c 24 68	 mov	 ecx, DWORD PTR W$[rsp+40]
  0306f	c1 e9 0b	 shr	 ecx, 11
  03072	0b c8		 or	 ecx, eax
  03074	8b 44 24 68	 mov	 eax, DWORD PTR W$[rsp+40]
  03078	33 c1		 xor	 eax, ecx
  0307a	89 84 24 28 03
	00 00		 mov	 DWORD PTR $T36887[rsp], eax
  03081	8b 54 24 5c	 mov	 edx, DWORD PTR W$[rsp+28]
  03085	c1 ea 0a	 shr	 edx, 10
  03088	b8 20 00 00 00	 mov	 eax, 32			; 00000020H
  0308d	83 e8 11	 sub	 eax, 17
  03090	0f b6 c8	 movzx	 ecx, al
  03093	8b 84 24 24 03
	00 00		 mov	 eax, DWORD PTR $T36880[rsp]
  0309a	d3 e0		 shl	 eax, cl
  0309c	44 8b 84 24 24
	03 00 00	 mov	 r8d, DWORD PTR $T36880[rsp]
  030a4	41 c1 e8 11	 shr	 r8d, 17
  030a8	44 0b c0	 or	 r8d, eax
  030ab	44 33 c2	 xor	 r8d, edx
  030ae	44 03 44 24 48	 add	 r8d, DWORD PTR W$[rsp+8]
  030b3	8b 54 24 68	 mov	 edx, DWORD PTR W$[rsp+40]
  030b7	c1 ea 03	 shr	 edx, 3
  030ba	b8 20 00 00 00	 mov	 eax, 32			; 00000020H
  030bf	83 e8 07	 sub	 eax, 7
  030c2	0f b6 c8	 movzx	 ecx, al
  030c5	8b 84 24 28 03
	00 00		 mov	 eax, DWORD PTR $T36887[rsp]
  030cc	d3 e0		 shl	 eax, cl
  030ce	8b c8		 mov	 ecx, eax
  030d0	8b 84 24 28 03
	00 00		 mov	 eax, DWORD PTR $T36887[rsp]
  030d7	c1 e8 07	 shr	 eax, 7
  030da	0b c1		 or	 eax, ecx
  030dc	33 c2		 xor	 eax, edx
  030de	03 44 24 64	 add	 eax, DWORD PTR W$[rsp+36]
  030e2	41 03 c0	 add	 eax, r8d
  030e5	89 44 24 64	 mov	 DWORD PTR W$[rsp+36], eax
  030e9	8b 54 24 2c	 mov	 edx, DWORD PTR T$[rsp+12]
  030ed	c1 ea 0e	 shr	 edx, 14
  030f0	b8 20 00 00 00	 mov	 eax, 32			; 00000020H
  030f5	83 e8 0e	 sub	 eax, 14
  030f8	0f b6 c8	 movzx	 ecx, al
  030fb	8b 44 24 2c	 mov	 eax, DWORD PTR T$[rsp+12]
  030ff	d3 e0		 shl	 eax, cl
  03101	8b c8		 mov	 ecx, eax
  03103	8b c2		 mov	 eax, edx
  03105	0b c1		 or	 eax, ecx
  03107	89 84 24 2c 03
	00 00		 mov	 DWORD PTR $T36891[rsp], eax
  0310e	8b 8c 24 2c 03
	00 00		 mov	 ecx, DWORD PTR $T36891[rsp]
  03115	8b 44 24 2c	 mov	 eax, DWORD PTR T$[rsp+12]
  03119	33 c1		 xor	 eax, ecx
  0311b	89 84 24 30 03
	00 00		 mov	 DWORD PTR $T36895[rsp], eax
  03122	b8 20 00 00 00	 mov	 eax, 32			; 00000020H
  03127	83 e8 05	 sub	 eax, 5
  0312a	0f b6 c8	 movzx	 ecx, al
  0312d	8b 84 24 30 03
	00 00		 mov	 eax, DWORD PTR $T36895[rsp]
  03134	d3 e0		 shl	 eax, cl
  03136	8b 8c 24 30 03
	00 00		 mov	 ecx, DWORD PTR $T36895[rsp]
  0313d	c1 e9 05	 shr	 ecx, 5
  03140	0b c8		 or	 ecx, eax
  03142	8b 44 24 2c	 mov	 eax, DWORD PTR T$[rsp+12]
  03146	33 c1		 xor	 eax, ecx
  03148	89 84 24 34 03
	00 00		 mov	 DWORD PTR $T36899[rsp], eax
  0314f	8b 84 24 80 00
	00 00		 mov	 eax, DWORD PTR j$32935[rsp]
  03156	83 c0 09	 add	 eax, 9
  03159	44 8b c8	 mov	 r9d, eax
  0315c	4c 8d 05 00 00
	00 00		 lea	 r8, OFFSET FLAT:SHA256_K
  03163	8b 44 24 34	 mov	 eax, DWORD PTR T$[rsp+20]
  03167	8b 4c 24 30	 mov	 ecx, DWORD PTR T$[rsp+16]
  0316b	33 c8		 xor	 ecx, eax
  0316d	8b 44 24 2c	 mov	 eax, DWORD PTR T$[rsp+12]
  03171	23 c1		 and	 eax, ecx
  03173	8b 54 24 34	 mov	 edx, DWORD PTR T$[rsp+20]
  03177	33 d0		 xor	 edx, eax
  03179	b8 20 00 00 00	 mov	 eax, 32			; 00000020H
  0317e	83 e8 06	 sub	 eax, 6
  03181	0f b6 c8	 movzx	 ecx, al
  03184	8b 84 24 34 03
	00 00		 mov	 eax, DWORD PTR $T36899[rsp]
  0318b	d3 e0		 shl	 eax, cl
  0318d	8b 8c 24 34 03
	00 00		 mov	 ecx, DWORD PTR $T36899[rsp]
  03194	c1 e9 06	 shr	 ecx, 6
  03197	0b c8		 or	 ecx, eax
  03199	03 ca		 add	 ecx, edx
  0319b	43 03 0c 88	 add	 ecx, DWORD PTR [r8+r9*4]
  0319f	03 4c 24 64	 add	 ecx, DWORD PTR W$[rsp+36]
  031a3	8b 44 24 38	 mov	 eax, DWORD PTR T$[rsp+24]
  031a7	03 c1		 add	 eax, ecx
  031a9	89 44 24 38	 mov	 DWORD PTR T$[rsp+24], eax
  031ad	8b 4c 24 38	 mov	 ecx, DWORD PTR T$[rsp+24]
  031b1	8b 44 24 28	 mov	 eax, DWORD PTR T$[rsp+8]
  031b5	03 c1		 add	 eax, ecx
  031b7	89 44 24 28	 mov	 DWORD PTR T$[rsp+8], eax
  031bb	8b 54 24 3c	 mov	 edx, DWORD PTR T$[rsp+28]
  031bf	c1 ea 09	 shr	 edx, 9
  031c2	b8 20 00 00 00	 mov	 eax, 32			; 00000020H
  031c7	83 e8 09	 sub	 eax, 9
  031ca	0f b6 c8	 movzx	 ecx, al
  031cd	8b 44 24 3c	 mov	 eax, DWORD PTR T$[rsp+28]
  031d1	d3 e0		 shl	 eax, cl
  031d3	8b c8		 mov	 ecx, eax
  031d5	8b c2		 mov	 eax, edx
  031d7	0b c1		 or	 eax, ecx
  031d9	89 84 24 38 03
	00 00		 mov	 DWORD PTR $T36903[rsp], eax
  031e0	8b 8c 24 38 03
	00 00		 mov	 ecx, DWORD PTR $T36903[rsp]
  031e7	8b 44 24 3c	 mov	 eax, DWORD PTR T$[rsp+28]
  031eb	33 c1		 xor	 eax, ecx
  031ed	89 84 24 3c 03
	00 00		 mov	 DWORD PTR $T36907[rsp], eax
  031f4	b8 20 00 00 00	 mov	 eax, 32			; 00000020H
  031f9	83 e8 0b	 sub	 eax, 11
  031fc	0f b6 c8	 movzx	 ecx, al
  031ff	8b 84 24 3c 03
	00 00		 mov	 eax, DWORD PTR $T36907[rsp]
  03206	d3 e0		 shl	 eax, cl
  03208	8b 8c 24 3c 03
	00 00		 mov	 ecx, DWORD PTR $T36907[rsp]
  0320f	c1 e9 0b	 shr	 ecx, 11
  03212	0b c8		 or	 ecx, eax
  03214	8b 44 24 3c	 mov	 eax, DWORD PTR T$[rsp+28]
  03218	33 c1		 xor	 eax, ecx
  0321a	89 84 24 40 03
	00 00		 mov	 DWORD PTR $T36911[rsp], eax
  03221	8b 4c 24 24	 mov	 ecx, DWORD PTR T$[rsp+4]
  03225	8b 44 24 20	 mov	 eax, DWORD PTR T$[rsp]
  03229	33 c1		 xor	 eax, ecx
  0322b	8b 54 24 3c	 mov	 edx, DWORD PTR T$[rsp+28]
  0322f	23 d0		 and	 edx, eax
  03231	8b 4c 24 24	 mov	 ecx, DWORD PTR T$[rsp+4]
  03235	8b 44 24 20	 mov	 eax, DWORD PTR T$[rsp]
  03239	23 c1		 and	 eax, ecx
  0323b	03 d0		 add	 edx, eax
  0323d	b8 20 00 00 00	 mov	 eax, 32			; 00000020H
  03242	83 e8 02	 sub	 eax, 2
  03245	0f b6 c8	 movzx	 ecx, al
  03248	8b 84 24 40 03
	00 00		 mov	 eax, DWORD PTR $T36911[rsp]
  0324f	d3 e0		 shl	 eax, cl
  03251	8b 8c 24 40 03
	00 00		 mov	 ecx, DWORD PTR $T36911[rsp]
  03258	c1 e9 02	 shr	 ecx, 2
  0325b	0b c8		 or	 ecx, eax
  0325d	8b c2		 mov	 eax, edx
  0325f	03 44 24 38	 add	 eax, DWORD PTR T$[rsp+24]
  03263	03 c1		 add	 eax, ecx
  03265	89 44 24 38	 mov	 DWORD PTR T$[rsp+24], eax
  03269	b8 20 00 00 00	 mov	 eax, 32			; 00000020H
  0326e	83 e8 02	 sub	 eax, 2
  03271	0f b6 c8	 movzx	 ecx, al
  03274	8b 44 24 60	 mov	 eax, DWORD PTR W$[rsp+32]
  03278	d3 e0		 shl	 eax, cl
  0327a	8b 4c 24 60	 mov	 ecx, DWORD PTR W$[rsp+32]
  0327e	c1 e9 02	 shr	 ecx, 2
  03281	0b c8		 or	 ecx, eax
  03283	8b 44 24 60	 mov	 eax, DWORD PTR W$[rsp+32]
  03287	33 c1		 xor	 eax, ecx
  03289	89 84 24 44 03
	00 00		 mov	 DWORD PTR $T36918[rsp], eax
  03290	b8 20 00 00 00	 mov	 eax, 32			; 00000020H
  03295	83 e8 0b	 sub	 eax, 11
  03298	0f b6 c8	 movzx	 ecx, al
  0329b	8b 44 24 6c	 mov	 eax, DWORD PTR W$[rsp+44]
  0329f	d3 e0		 shl	 eax, cl
  032a1	8b 4c 24 6c	 mov	 ecx, DWORD PTR W$[rsp+44]
  032a5	c1 e9 0b	 shr	 ecx, 11
  032a8	0b c8		 or	 ecx, eax
  032aa	8b 44 24 6c	 mov	 eax, DWORD PTR W$[rsp+44]
  032ae	33 c1		 xor	 eax, ecx
  032b0	89 84 24 48 03
	00 00		 mov	 DWORD PTR $T36925[rsp], eax
  032b7	8b 54 24 60	 mov	 edx, DWORD PTR W$[rsp+32]
  032bb	c1 ea 0a	 shr	 edx, 10
  032be	b8 20 00 00 00	 mov	 eax, 32			; 00000020H
  032c3	83 e8 11	 sub	 eax, 17
  032c6	0f b6 c8	 movzx	 ecx, al
  032c9	8b 84 24 44 03
	00 00		 mov	 eax, DWORD PTR $T36918[rsp]
  032d0	d3 e0		 shl	 eax, cl
  032d2	44 8b 84 24 44
	03 00 00	 mov	 r8d, DWORD PTR $T36918[rsp]
  032da	41 c1 e8 11	 shr	 r8d, 17
  032de	44 0b c0	 or	 r8d, eax
  032e1	44 33 c2	 xor	 r8d, edx
  032e4	44 03 44 24 4c	 add	 r8d, DWORD PTR W$[rsp+12]
  032e9	8b 54 24 6c	 mov	 edx, DWORD PTR W$[rsp+44]
  032ed	c1 ea 03	 shr	 edx, 3
  032f0	b8 20 00 00 00	 mov	 eax, 32			; 00000020H
  032f5	83 e8 07	 sub	 eax, 7
  032f8	0f b6 c8	 movzx	 ecx, al
  032fb	8b 84 24 48 03
	00 00		 mov	 eax, DWORD PTR $T36925[rsp]
  03302	d3 e0		 shl	 eax, cl
  03304	8b c8		 mov	 ecx, eax
  03306	8b 84 24 48 03
	00 00		 mov	 eax, DWORD PTR $T36925[rsp]
  0330d	c1 e8 07	 shr	 eax, 7
  03310	0b c1		 or	 eax, ecx
  03312	33 c2		 xor	 eax, edx
  03314	03 44 24 68	 add	 eax, DWORD PTR W$[rsp+40]
  03318	41 03 c0	 add	 eax, r8d
  0331b	89 44 24 68	 mov	 DWORD PTR W$[rsp+40], eax
  0331f	8b 54 24 28	 mov	 edx, DWORD PTR T$[rsp+8]
  03323	c1 ea 0e	 shr	 edx, 14
  03326	b8 20 00 00 00	 mov	 eax, 32			; 00000020H
  0332b	83 e8 0e	 sub	 eax, 14
  0332e	0f b6 c8	 movzx	 ecx, al
  03331	8b 44 24 28	 mov	 eax, DWORD PTR T$[rsp+8]
  03335	d3 e0		 shl	 eax, cl
  03337	8b c8		 mov	 ecx, eax
  03339	8b c2		 mov	 eax, edx
  0333b	0b c1		 or	 eax, ecx
  0333d	89 84 24 4c 03
	00 00		 mov	 DWORD PTR $T36929[rsp], eax
  03344	8b 8c 24 4c 03
	00 00		 mov	 ecx, DWORD PTR $T36929[rsp]
  0334b	8b 44 24 28	 mov	 eax, DWORD PTR T$[rsp+8]
  0334f	33 c1		 xor	 eax, ecx
  03351	89 84 24 50 03
	00 00		 mov	 DWORD PTR $T36933[rsp], eax
  03358	b8 20 00 00 00	 mov	 eax, 32			; 00000020H
  0335d	83 e8 05	 sub	 eax, 5
  03360	0f b6 c8	 movzx	 ecx, al
  03363	8b 84 24 50 03
	00 00		 mov	 eax, DWORD PTR $T36933[rsp]
  0336a	d3 e0		 shl	 eax, cl
  0336c	8b 8c 24 50 03
	00 00		 mov	 ecx, DWORD PTR $T36933[rsp]
  03373	c1 e9 05	 shr	 ecx, 5
  03376	0b c8		 or	 ecx, eax
  03378	8b 44 24 28	 mov	 eax, DWORD PTR T$[rsp+8]
  0337c	33 c1		 xor	 eax, ecx
  0337e	89 84 24 54 03
	00 00		 mov	 DWORD PTR $T36937[rsp], eax
  03385	8b 84 24 80 00
	00 00		 mov	 eax, DWORD PTR j$32935[rsp]
  0338c	83 c0 0a	 add	 eax, 10
  0338f	44 8b c8	 mov	 r9d, eax
  03392	4c 8d 05 00 00
	00 00		 lea	 r8, OFFSET FLAT:SHA256_K
  03399	8b 44 24 30	 mov	 eax, DWORD PTR T$[rsp+16]
  0339d	8b 4c 24 2c	 mov	 ecx, DWORD PTR T$[rsp+12]
  033a1	33 c8		 xor	 ecx, eax
  033a3	8b 44 24 28	 mov	 eax, DWORD PTR T$[rsp+8]
  033a7	23 c1		 and	 eax, ecx
  033a9	8b 54 24 30	 mov	 edx, DWORD PTR T$[rsp+16]
  033ad	33 d0		 xor	 edx, eax
  033af	b8 20 00 00 00	 mov	 eax, 32			; 00000020H
  033b4	83 e8 06	 sub	 eax, 6
  033b7	0f b6 c8	 movzx	 ecx, al
  033ba	8b 84 24 54 03
	00 00		 mov	 eax, DWORD PTR $T36937[rsp]
  033c1	d3 e0		 shl	 eax, cl
  033c3	8b 8c 24 54 03
	00 00		 mov	 ecx, DWORD PTR $T36937[rsp]
  033ca	c1 e9 06	 shr	 ecx, 6
  033cd	0b c8		 or	 ecx, eax
  033cf	03 ca		 add	 ecx, edx
  033d1	43 03 0c 88	 add	 ecx, DWORD PTR [r8+r9*4]
  033d5	03 4c 24 68	 add	 ecx, DWORD PTR W$[rsp+40]
  033d9	8b 44 24 34	 mov	 eax, DWORD PTR T$[rsp+20]
  033dd	03 c1		 add	 eax, ecx
  033df	89 44 24 34	 mov	 DWORD PTR T$[rsp+20], eax
  033e3	8b 4c 24 34	 mov	 ecx, DWORD PTR T$[rsp+20]
  033e7	8b 44 24 24	 mov	 eax, DWORD PTR T$[rsp+4]
  033eb	03 c1		 add	 eax, ecx
  033ed	89 44 24 24	 mov	 DWORD PTR T$[rsp+4], eax
  033f1	8b 54 24 38	 mov	 edx, DWORD PTR T$[rsp+24]
  033f5	c1 ea 09	 shr	 edx, 9
  033f8	b8 20 00 00 00	 mov	 eax, 32			; 00000020H
  033fd	83 e8 09	 sub	 eax, 9
  03400	0f b6 c8	 movzx	 ecx, al
  03403	8b 44 24 38	 mov	 eax, DWORD PTR T$[rsp+24]
  03407	d3 e0		 shl	 eax, cl
  03409	8b c8		 mov	 ecx, eax
  0340b	8b c2		 mov	 eax, edx
  0340d	0b c1		 or	 eax, ecx
  0340f	89 84 24 58 03
	00 00		 mov	 DWORD PTR $T36941[rsp], eax
  03416	8b 8c 24 58 03
	00 00		 mov	 ecx, DWORD PTR $T36941[rsp]
  0341d	8b 44 24 38	 mov	 eax, DWORD PTR T$[rsp+24]
  03421	33 c1		 xor	 eax, ecx
  03423	89 84 24 5c 03
	00 00		 mov	 DWORD PTR $T36945[rsp], eax
  0342a	b8 20 00 00 00	 mov	 eax, 32			; 00000020H
  0342f	83 e8 0b	 sub	 eax, 11
  03432	0f b6 c8	 movzx	 ecx, al
  03435	8b 84 24 5c 03
	00 00		 mov	 eax, DWORD PTR $T36945[rsp]
  0343c	d3 e0		 shl	 eax, cl
  0343e	8b 8c 24 5c 03
	00 00		 mov	 ecx, DWORD PTR $T36945[rsp]
  03445	c1 e9 0b	 shr	 ecx, 11
  03448	0b c8		 or	 ecx, eax
  0344a	8b 44 24 38	 mov	 eax, DWORD PTR T$[rsp+24]
  0344e	33 c1		 xor	 eax, ecx
  03450	89 84 24 60 03
	00 00		 mov	 DWORD PTR $T36949[rsp], eax
  03457	8b 4c 24 20	 mov	 ecx, DWORD PTR T$[rsp]
  0345b	8b 44 24 3c	 mov	 eax, DWORD PTR T$[rsp+28]
  0345f	33 c1		 xor	 eax, ecx
  03461	8b 54 24 38	 mov	 edx, DWORD PTR T$[rsp+24]
  03465	23 d0		 and	 edx, eax
  03467	8b 4c 24 20	 mov	 ecx, DWORD PTR T$[rsp]
  0346b	8b 44 24 3c	 mov	 eax, DWORD PTR T$[rsp+28]
  0346f	23 c1		 and	 eax, ecx
  03471	03 d0		 add	 edx, eax
  03473	b8 20 00 00 00	 mov	 eax, 32			; 00000020H
  03478	83 e8 02	 sub	 eax, 2
  0347b	0f b6 c8	 movzx	 ecx, al
  0347e	8b 84 24 60 03
	00 00		 mov	 eax, DWORD PTR $T36949[rsp]
  03485	d3 e0		 shl	 eax, cl
  03487	8b 8c 24 60 03
	00 00		 mov	 ecx, DWORD PTR $T36949[rsp]
  0348e	c1 e9 02	 shr	 ecx, 2
  03491	0b c8		 or	 ecx, eax
  03493	8b c2		 mov	 eax, edx
  03495	03 44 24 34	 add	 eax, DWORD PTR T$[rsp+20]
  03499	03 c1		 add	 eax, ecx
  0349b	89 44 24 34	 mov	 DWORD PTR T$[rsp+20], eax
  0349f	b8 20 00 00 00	 mov	 eax, 32			; 00000020H
  034a4	83 e8 02	 sub	 eax, 2
  034a7	0f b6 c8	 movzx	 ecx, al
  034aa	8b 44 24 64	 mov	 eax, DWORD PTR W$[rsp+36]
  034ae	d3 e0		 shl	 eax, cl
  034b0	8b 4c 24 64	 mov	 ecx, DWORD PTR W$[rsp+36]
  034b4	c1 e9 02	 shr	 ecx, 2
  034b7	0b c8		 or	 ecx, eax
  034b9	8b 44 24 64	 mov	 eax, DWORD PTR W$[rsp+36]
  034bd	33 c1		 xor	 eax, ecx
  034bf	89 84 24 64 03
	00 00		 mov	 DWORD PTR $T36956[rsp], eax
  034c6	b8 20 00 00 00	 mov	 eax, 32			; 00000020H
  034cb	83 e8 0b	 sub	 eax, 11
  034ce	0f b6 c8	 movzx	 ecx, al
  034d1	8b 44 24 70	 mov	 eax, DWORD PTR W$[rsp+48]
  034d5	d3 e0		 shl	 eax, cl
  034d7	8b 4c 24 70	 mov	 ecx, DWORD PTR W$[rsp+48]
  034db	c1 e9 0b	 shr	 ecx, 11
  034de	0b c8		 or	 ecx, eax
  034e0	8b 44 24 70	 mov	 eax, DWORD PTR W$[rsp+48]
  034e4	33 c1		 xor	 eax, ecx
  034e6	89 84 24 68 03
	00 00		 mov	 DWORD PTR $T36963[rsp], eax
  034ed	8b 54 24 64	 mov	 edx, DWORD PTR W$[rsp+36]
  034f1	c1 ea 0a	 shr	 edx, 10
  034f4	b8 20 00 00 00	 mov	 eax, 32			; 00000020H
  034f9	83 e8 11	 sub	 eax, 17
  034fc	0f b6 c8	 movzx	 ecx, al
  034ff	8b 84 24 64 03
	00 00		 mov	 eax, DWORD PTR $T36956[rsp]
  03506	d3 e0		 shl	 eax, cl
  03508	44 8b 84 24 64
	03 00 00	 mov	 r8d, DWORD PTR $T36956[rsp]
  03510	41 c1 e8 11	 shr	 r8d, 17
  03514	44 0b c0	 or	 r8d, eax
  03517	44 33 c2	 xor	 r8d, edx
  0351a	44 03 44 24 50	 add	 r8d, DWORD PTR W$[rsp+16]
  0351f	8b 54 24 70	 mov	 edx, DWORD PTR W$[rsp+48]
  03523	c1 ea 03	 shr	 edx, 3
  03526	b8 20 00 00 00	 mov	 eax, 32			; 00000020H
  0352b	83 e8 07	 sub	 eax, 7
  0352e	0f b6 c8	 movzx	 ecx, al
  03531	8b 84 24 68 03
	00 00		 mov	 eax, DWORD PTR $T36963[rsp]
  03538	d3 e0		 shl	 eax, cl
  0353a	8b c8		 mov	 ecx, eax
  0353c	8b 84 24 68 03
	00 00		 mov	 eax, DWORD PTR $T36963[rsp]
  03543	c1 e8 07	 shr	 eax, 7
  03546	0b c1		 or	 eax, ecx
  03548	33 c2		 xor	 eax, edx
  0354a	03 44 24 6c	 add	 eax, DWORD PTR W$[rsp+44]
  0354e	41 03 c0	 add	 eax, r8d
  03551	89 44 24 6c	 mov	 DWORD PTR W$[rsp+44], eax
  03555	8b 54 24 24	 mov	 edx, DWORD PTR T$[rsp+4]
  03559	c1 ea 0e	 shr	 edx, 14
  0355c	b8 20 00 00 00	 mov	 eax, 32			; 00000020H
  03561	83 e8 0e	 sub	 eax, 14
  03564	0f b6 c8	 movzx	 ecx, al
  03567	8b 44 24 24	 mov	 eax, DWORD PTR T$[rsp+4]
  0356b	d3 e0		 shl	 eax, cl
  0356d	8b c8		 mov	 ecx, eax
  0356f	8b c2		 mov	 eax, edx
  03571	0b c1		 or	 eax, ecx
  03573	89 84 24 6c 03
	00 00		 mov	 DWORD PTR $T36967[rsp], eax
  0357a	8b 8c 24 6c 03
	00 00		 mov	 ecx, DWORD PTR $T36967[rsp]
  03581	8b 44 24 24	 mov	 eax, DWORD PTR T$[rsp+4]
  03585	33 c1		 xor	 eax, ecx
  03587	89 84 24 70 03
	00 00		 mov	 DWORD PTR $T36971[rsp], eax
  0358e	b8 20 00 00 00	 mov	 eax, 32			; 00000020H
  03593	83 e8 05	 sub	 eax, 5
  03596	0f b6 c8	 movzx	 ecx, al
  03599	8b 84 24 70 03
	00 00		 mov	 eax, DWORD PTR $T36971[rsp]
  035a0	d3 e0		 shl	 eax, cl
  035a2	8b 8c 24 70 03
	00 00		 mov	 ecx, DWORD PTR $T36971[rsp]
  035a9	c1 e9 05	 shr	 ecx, 5
  035ac	0b c8		 or	 ecx, eax
  035ae	8b 44 24 24	 mov	 eax, DWORD PTR T$[rsp+4]
  035b2	33 c1		 xor	 eax, ecx
  035b4	89 84 24 74 03
	00 00		 mov	 DWORD PTR $T36975[rsp], eax
  035bb	8b 84 24 80 00
	00 00		 mov	 eax, DWORD PTR j$32935[rsp]
  035c2	83 c0 0b	 add	 eax, 11
  035c5	44 8b c8	 mov	 r9d, eax
  035c8	4c 8d 05 00 00
	00 00		 lea	 r8, OFFSET FLAT:SHA256_K
  035cf	8b 44 24 2c	 mov	 eax, DWORD PTR T$[rsp+12]
  035d3	8b 4c 24 28	 mov	 ecx, DWORD PTR T$[rsp+8]
  035d7	33 c8		 xor	 ecx, eax
  035d9	8b 44 24 24	 mov	 eax, DWORD PTR T$[rsp+4]
  035dd	23 c1		 and	 eax, ecx
  035df	8b 54 24 2c	 mov	 edx, DWORD PTR T$[rsp+12]
  035e3	33 d0		 xor	 edx, eax
  035e5	b8 20 00 00 00	 mov	 eax, 32			; 00000020H
  035ea	83 e8 06	 sub	 eax, 6
  035ed	0f b6 c8	 movzx	 ecx, al
  035f0	8b 84 24 74 03
	00 00		 mov	 eax, DWORD PTR $T36975[rsp]
  035f7	d3 e0		 shl	 eax, cl
  035f9	8b 8c 24 74 03
	00 00		 mov	 ecx, DWORD PTR $T36975[rsp]
  03600	c1 e9 06	 shr	 ecx, 6
  03603	0b c8		 or	 ecx, eax
  03605	03 ca		 add	 ecx, edx
  03607	43 03 0c 88	 add	 ecx, DWORD PTR [r8+r9*4]
  0360b	03 4c 24 6c	 add	 ecx, DWORD PTR W$[rsp+44]
  0360f	8b 44 24 30	 mov	 eax, DWORD PTR T$[rsp+16]
  03613	03 c1		 add	 eax, ecx
  03615	89 44 24 30	 mov	 DWORD PTR T$[rsp+16], eax
  03619	8b 4c 24 30	 mov	 ecx, DWORD PTR T$[rsp+16]
  0361d	8b 44 24 20	 mov	 eax, DWORD PTR T$[rsp]
  03621	03 c1		 add	 eax, ecx
  03623	89 44 24 20	 mov	 DWORD PTR T$[rsp], eax
  03627	8b 54 24 34	 mov	 edx, DWORD PTR T$[rsp+20]
  0362b	c1 ea 09	 shr	 edx, 9
  0362e	b8 20 00 00 00	 mov	 eax, 32			; 00000020H
  03633	83 e8 09	 sub	 eax, 9
  03636	0f b6 c8	 movzx	 ecx, al
  03639	8b 44 24 34	 mov	 eax, DWORD PTR T$[rsp+20]
  0363d	d3 e0		 shl	 eax, cl
  0363f	8b c8		 mov	 ecx, eax
  03641	8b c2		 mov	 eax, edx
  03643	0b c1		 or	 eax, ecx
  03645	89 84 24 78 03
	00 00		 mov	 DWORD PTR $T36979[rsp], eax
  0364c	8b 8c 24 78 03
	00 00		 mov	 ecx, DWORD PTR $T36979[rsp]
  03653	8b 44 24 34	 mov	 eax, DWORD PTR T$[rsp+20]
  03657	33 c1		 xor	 eax, ecx
  03659	89 84 24 7c 03
	00 00		 mov	 DWORD PTR $T36983[rsp], eax
  03660	b8 20 00 00 00	 mov	 eax, 32			; 00000020H
  03665	83 e8 0b	 sub	 eax, 11
  03668	0f b6 c8	 movzx	 ecx, al
  0366b	8b 84 24 7c 03
	00 00		 mov	 eax, DWORD PTR $T36983[rsp]
  03672	d3 e0		 shl	 eax, cl
  03674	8b 8c 24 7c 03
	00 00		 mov	 ecx, DWORD PTR $T36983[rsp]
  0367b	c1 e9 0b	 shr	 ecx, 11
  0367e	0b c8		 or	 ecx, eax
  03680	8b 44 24 34	 mov	 eax, DWORD PTR T$[rsp+20]
  03684	33 c1		 xor	 eax, ecx
  03686	89 84 24 80 03
	00 00		 mov	 DWORD PTR $T36987[rsp], eax
  0368d	8b 4c 24 3c	 mov	 ecx, DWORD PTR T$[rsp+28]
  03691	8b 44 24 38	 mov	 eax, DWORD PTR T$[rsp+24]
  03695	33 c1		 xor	 eax, ecx
  03697	8b 54 24 34	 mov	 edx, DWORD PTR T$[rsp+20]
  0369b	23 d0		 and	 edx, eax
  0369d	8b 4c 24 3c	 mov	 ecx, DWORD PTR T$[rsp+28]
  036a1	8b 44 24 38	 mov	 eax, DWORD PTR T$[rsp+24]
  036a5	23 c1		 and	 eax, ecx
  036a7	03 d0		 add	 edx, eax
  036a9	b8 20 00 00 00	 mov	 eax, 32			; 00000020H
  036ae	83 e8 02	 sub	 eax, 2
  036b1	0f b6 c8	 movzx	 ecx, al
  036b4	8b 84 24 80 03
	00 00		 mov	 eax, DWORD PTR $T36987[rsp]
  036bb	d3 e0		 shl	 eax, cl
  036bd	8b 8c 24 80 03
	00 00		 mov	 ecx, DWORD PTR $T36987[rsp]
  036c4	c1 e9 02	 shr	 ecx, 2
  036c7	0b c8		 or	 ecx, eax
  036c9	8b c2		 mov	 eax, edx
  036cb	03 44 24 30	 add	 eax, DWORD PTR T$[rsp+16]
  036cf	03 c1		 add	 eax, ecx
  036d1	89 44 24 30	 mov	 DWORD PTR T$[rsp+16], eax

; 105  : 		R2(12); R2(13); R2(14); R2(15);

  036d5	b8 20 00 00 00	 mov	 eax, 32			; 00000020H
  036da	83 e8 02	 sub	 eax, 2
  036dd	0f b6 c8	 movzx	 ecx, al
  036e0	8b 44 24 68	 mov	 eax, DWORD PTR W$[rsp+40]
  036e4	d3 e0		 shl	 eax, cl
  036e6	8b 4c 24 68	 mov	 ecx, DWORD PTR W$[rsp+40]
  036ea	c1 e9 02	 shr	 ecx, 2
  036ed	0b c8		 or	 ecx, eax
  036ef	8b 44 24 68	 mov	 eax, DWORD PTR W$[rsp+40]
  036f3	33 c1		 xor	 eax, ecx
  036f5	89 84 24 84 03
	00 00		 mov	 DWORD PTR $T36994[rsp], eax
  036fc	b8 20 00 00 00	 mov	 eax, 32			; 00000020H
  03701	83 e8 0b	 sub	 eax, 11
  03704	0f b6 c8	 movzx	 ecx, al
  03707	8b 44 24 74	 mov	 eax, DWORD PTR W$[rsp+52]
  0370b	d3 e0		 shl	 eax, cl
  0370d	8b 4c 24 74	 mov	 ecx, DWORD PTR W$[rsp+52]
  03711	c1 e9 0b	 shr	 ecx, 11
  03714	0b c8		 or	 ecx, eax
  03716	8b 44 24 74	 mov	 eax, DWORD PTR W$[rsp+52]
  0371a	33 c1		 xor	 eax, ecx
  0371c	89 84 24 88 03
	00 00		 mov	 DWORD PTR $T37001[rsp], eax
  03723	8b 54 24 68	 mov	 edx, DWORD PTR W$[rsp+40]
  03727	c1 ea 0a	 shr	 edx, 10
  0372a	b8 20 00 00 00	 mov	 eax, 32			; 00000020H
  0372f	83 e8 11	 sub	 eax, 17
  03732	0f b6 c8	 movzx	 ecx, al
  03735	8b 84 24 84 03
	00 00		 mov	 eax, DWORD PTR $T36994[rsp]
  0373c	d3 e0		 shl	 eax, cl
  0373e	44 8b 84 24 84
	03 00 00	 mov	 r8d, DWORD PTR $T36994[rsp]
  03746	41 c1 e8 11	 shr	 r8d, 17
  0374a	44 0b c0	 or	 r8d, eax
  0374d	44 33 c2	 xor	 r8d, edx
  03750	44 03 44 24 54	 add	 r8d, DWORD PTR W$[rsp+20]
  03755	8b 54 24 74	 mov	 edx, DWORD PTR W$[rsp+52]
  03759	c1 ea 03	 shr	 edx, 3
  0375c	b8 20 00 00 00	 mov	 eax, 32			; 00000020H
  03761	83 e8 07	 sub	 eax, 7
  03764	0f b6 c8	 movzx	 ecx, al
  03767	8b 84 24 88 03
	00 00		 mov	 eax, DWORD PTR $T37001[rsp]
  0376e	d3 e0		 shl	 eax, cl
  03770	8b c8		 mov	 ecx, eax
  03772	8b 84 24 88 03
	00 00		 mov	 eax, DWORD PTR $T37001[rsp]
  03779	c1 e8 07	 shr	 eax, 7
  0377c	0b c1		 or	 eax, ecx
  0377e	33 c2		 xor	 eax, edx
  03780	03 44 24 70	 add	 eax, DWORD PTR W$[rsp+48]
  03784	41 03 c0	 add	 eax, r8d
  03787	89 44 24 70	 mov	 DWORD PTR W$[rsp+48], eax
  0378b	8b 54 24 20	 mov	 edx, DWORD PTR T$[rsp]
  0378f	c1 ea 0e	 shr	 edx, 14
  03792	b8 20 00 00 00	 mov	 eax, 32			; 00000020H
  03797	83 e8 0e	 sub	 eax, 14
  0379a	0f b6 c8	 movzx	 ecx, al
  0379d	8b 44 24 20	 mov	 eax, DWORD PTR T$[rsp]
  037a1	d3 e0		 shl	 eax, cl
  037a3	8b c8		 mov	 ecx, eax
  037a5	8b c2		 mov	 eax, edx
  037a7	0b c1		 or	 eax, ecx
  037a9	89 84 24 8c 03
	00 00		 mov	 DWORD PTR $T37005[rsp], eax
  037b0	8b 8c 24 8c 03
	00 00		 mov	 ecx, DWORD PTR $T37005[rsp]
  037b7	8b 44 24 20	 mov	 eax, DWORD PTR T$[rsp]
  037bb	33 c1		 xor	 eax, ecx
  037bd	89 84 24 90 03
	00 00		 mov	 DWORD PTR $T37009[rsp], eax
  037c4	b8 20 00 00 00	 mov	 eax, 32			; 00000020H
  037c9	83 e8 05	 sub	 eax, 5
  037cc	0f b6 c8	 movzx	 ecx, al
  037cf	8b 84 24 90 03
	00 00		 mov	 eax, DWORD PTR $T37009[rsp]
  037d6	d3 e0		 shl	 eax, cl
  037d8	8b 8c 24 90 03
	00 00		 mov	 ecx, DWORD PTR $T37009[rsp]
  037df	c1 e9 05	 shr	 ecx, 5
  037e2	0b c8		 or	 ecx, eax
  037e4	8b 44 24 20	 mov	 eax, DWORD PTR T$[rsp]
  037e8	33 c1		 xor	 eax, ecx
  037ea	89 84 24 94 03
	00 00		 mov	 DWORD PTR $T37013[rsp], eax
  037f1	8b 84 24 80 00
	00 00		 mov	 eax, DWORD PTR j$32935[rsp]
  037f8	83 c0 0c	 add	 eax, 12
  037fb	44 8b c8	 mov	 r9d, eax
  037fe	4c 8d 05 00 00
	00 00		 lea	 r8, OFFSET FLAT:SHA256_K
  03805	8b 44 24 28	 mov	 eax, DWORD PTR T$[rsp+8]
  03809	8b 4c 24 24	 mov	 ecx, DWORD PTR T$[rsp+4]
  0380d	33 c8		 xor	 ecx, eax
  0380f	8b 44 24 20	 mov	 eax, DWORD PTR T$[rsp]
  03813	23 c1		 and	 eax, ecx
  03815	8b 54 24 28	 mov	 edx, DWORD PTR T$[rsp+8]
  03819	33 d0		 xor	 edx, eax
  0381b	b8 20 00 00 00	 mov	 eax, 32			; 00000020H
  03820	83 e8 06	 sub	 eax, 6
  03823	0f b6 c8	 movzx	 ecx, al
  03826	8b 84 24 94 03
	00 00		 mov	 eax, DWORD PTR $T37013[rsp]
  0382d	d3 e0		 shl	 eax, cl
  0382f	8b 8c 24 94 03
	00 00		 mov	 ecx, DWORD PTR $T37013[rsp]
  03836	c1 e9 06	 shr	 ecx, 6
  03839	0b c8		 or	 ecx, eax
  0383b	03 ca		 add	 ecx, edx
  0383d	43 03 0c 88	 add	 ecx, DWORD PTR [r8+r9*4]
  03841	03 4c 24 70	 add	 ecx, DWORD PTR W$[rsp+48]
  03845	8b 44 24 2c	 mov	 eax, DWORD PTR T$[rsp+12]
  03849	03 c1		 add	 eax, ecx
  0384b	89 44 24 2c	 mov	 DWORD PTR T$[rsp+12], eax
  0384f	8b 4c 24 2c	 mov	 ecx, DWORD PTR T$[rsp+12]
  03853	8b 44 24 3c	 mov	 eax, DWORD PTR T$[rsp+28]
  03857	03 c1		 add	 eax, ecx
  03859	89 44 24 3c	 mov	 DWORD PTR T$[rsp+28], eax
  0385d	8b 54 24 30	 mov	 edx, DWORD PTR T$[rsp+16]
  03861	c1 ea 09	 shr	 edx, 9
  03864	b8 20 00 00 00	 mov	 eax, 32			; 00000020H
  03869	83 e8 09	 sub	 eax, 9
  0386c	0f b6 c8	 movzx	 ecx, al
  0386f	8b 44 24 30	 mov	 eax, DWORD PTR T$[rsp+16]
  03873	d3 e0		 shl	 eax, cl
  03875	8b c8		 mov	 ecx, eax
  03877	8b c2		 mov	 eax, edx
  03879	0b c1		 or	 eax, ecx
  0387b	89 84 24 98 03
	00 00		 mov	 DWORD PTR $T37017[rsp], eax
  03882	8b 8c 24 98 03
	00 00		 mov	 ecx, DWORD PTR $T37017[rsp]
  03889	8b 44 24 30	 mov	 eax, DWORD PTR T$[rsp+16]
  0388d	33 c1		 xor	 eax, ecx
  0388f	89 84 24 9c 03
	00 00		 mov	 DWORD PTR $T37021[rsp], eax
  03896	b8 20 00 00 00	 mov	 eax, 32			; 00000020H
  0389b	83 e8 0b	 sub	 eax, 11
  0389e	0f b6 c8	 movzx	 ecx, al
  038a1	8b 84 24 9c 03
	00 00		 mov	 eax, DWORD PTR $T37021[rsp]
  038a8	d3 e0		 shl	 eax, cl
  038aa	8b 8c 24 9c 03
	00 00		 mov	 ecx, DWORD PTR $T37021[rsp]
  038b1	c1 e9 0b	 shr	 ecx, 11
  038b4	0b c8		 or	 ecx, eax
  038b6	8b 44 24 30	 mov	 eax, DWORD PTR T$[rsp+16]
  038ba	33 c1		 xor	 eax, ecx
  038bc	89 84 24 a0 03
	00 00		 mov	 DWORD PTR $T37025[rsp], eax
  038c3	8b 4c 24 38	 mov	 ecx, DWORD PTR T$[rsp+24]
  038c7	8b 44 24 34	 mov	 eax, DWORD PTR T$[rsp+20]
  038cb	33 c1		 xor	 eax, ecx
  038cd	8b 54 24 30	 mov	 edx, DWORD PTR T$[rsp+16]
  038d1	23 d0		 and	 edx, eax
  038d3	8b 4c 24 38	 mov	 ecx, DWORD PTR T$[rsp+24]
  038d7	8b 44 24 34	 mov	 eax, DWORD PTR T$[rsp+20]
  038db	23 c1		 and	 eax, ecx
  038dd	03 d0		 add	 edx, eax
  038df	b8 20 00 00 00	 mov	 eax, 32			; 00000020H
  038e4	83 e8 02	 sub	 eax, 2
  038e7	0f b6 c8	 movzx	 ecx, al
  038ea	8b 84 24 a0 03
	00 00		 mov	 eax, DWORD PTR $T37025[rsp]
  038f1	d3 e0		 shl	 eax, cl
  038f3	8b 8c 24 a0 03
	00 00		 mov	 ecx, DWORD PTR $T37025[rsp]
  038fa	c1 e9 02	 shr	 ecx, 2
  038fd	0b c8		 or	 ecx, eax
  038ff	8b c2		 mov	 eax, edx
  03901	03 44 24 2c	 add	 eax, DWORD PTR T$[rsp+12]
  03905	03 c1		 add	 eax, ecx
  03907	89 44 24 2c	 mov	 DWORD PTR T$[rsp+12], eax
  0390b	b8 20 00 00 00	 mov	 eax, 32			; 00000020H
  03910	83 e8 02	 sub	 eax, 2
  03913	0f b6 c8	 movzx	 ecx, al
  03916	8b 44 24 6c	 mov	 eax, DWORD PTR W$[rsp+44]
  0391a	d3 e0		 shl	 eax, cl
  0391c	8b 4c 24 6c	 mov	 ecx, DWORD PTR W$[rsp+44]
  03920	c1 e9 02	 shr	 ecx, 2
  03923	0b c8		 or	 ecx, eax
  03925	8b 44 24 6c	 mov	 eax, DWORD PTR W$[rsp+44]
  03929	33 c1		 xor	 eax, ecx
  0392b	89 84 24 a4 03
	00 00		 mov	 DWORD PTR $T37032[rsp], eax
  03932	b8 20 00 00 00	 mov	 eax, 32			; 00000020H
  03937	83 e8 0b	 sub	 eax, 11
  0393a	0f b6 c8	 movzx	 ecx, al
  0393d	8b 44 24 78	 mov	 eax, DWORD PTR W$[rsp+56]
  03941	d3 e0		 shl	 eax, cl
  03943	8b 4c 24 78	 mov	 ecx, DWORD PTR W$[rsp+56]
  03947	c1 e9 0b	 shr	 ecx, 11
  0394a	0b c8		 or	 ecx, eax
  0394c	8b 44 24 78	 mov	 eax, DWORD PTR W$[rsp+56]
  03950	33 c1		 xor	 eax, ecx
  03952	89 84 24 a8 03
	00 00		 mov	 DWORD PTR $T37039[rsp], eax
  03959	8b 54 24 6c	 mov	 edx, DWORD PTR W$[rsp+44]
  0395d	c1 ea 0a	 shr	 edx, 10
  03960	b8 20 00 00 00	 mov	 eax, 32			; 00000020H
  03965	83 e8 11	 sub	 eax, 17
  03968	0f b6 c8	 movzx	 ecx, al
  0396b	8b 84 24 a4 03
	00 00		 mov	 eax, DWORD PTR $T37032[rsp]
  03972	d3 e0		 shl	 eax, cl
  03974	44 8b 84 24 a4
	03 00 00	 mov	 r8d, DWORD PTR $T37032[rsp]
  0397c	41 c1 e8 11	 shr	 r8d, 17
  03980	44 0b c0	 or	 r8d, eax
  03983	44 33 c2	 xor	 r8d, edx
  03986	44 03 44 24 58	 add	 r8d, DWORD PTR W$[rsp+24]
  0398b	8b 54 24 78	 mov	 edx, DWORD PTR W$[rsp+56]
  0398f	c1 ea 03	 shr	 edx, 3
  03992	b8 20 00 00 00	 mov	 eax, 32			; 00000020H
  03997	83 e8 07	 sub	 eax, 7
  0399a	0f b6 c8	 movzx	 ecx, al
  0399d	8b 84 24 a8 03
	00 00		 mov	 eax, DWORD PTR $T37039[rsp]
  039a4	d3 e0		 shl	 eax, cl
  039a6	8b c8		 mov	 ecx, eax
  039a8	8b 84 24 a8 03
	00 00		 mov	 eax, DWORD PTR $T37039[rsp]
  039af	c1 e8 07	 shr	 eax, 7
  039b2	0b c1		 or	 eax, ecx
  039b4	33 c2		 xor	 eax, edx
  039b6	03 44 24 74	 add	 eax, DWORD PTR W$[rsp+52]
  039ba	41 03 c0	 add	 eax, r8d
  039bd	89 44 24 74	 mov	 DWORD PTR W$[rsp+52], eax
  039c1	8b 54 24 3c	 mov	 edx, DWORD PTR T$[rsp+28]
  039c5	c1 ea 0e	 shr	 edx, 14
  039c8	b8 20 00 00 00	 mov	 eax, 32			; 00000020H
  039cd	83 e8 0e	 sub	 eax, 14
  039d0	0f b6 c8	 movzx	 ecx, al
  039d3	8b 44 24 3c	 mov	 eax, DWORD PTR T$[rsp+28]
  039d7	d3 e0		 shl	 eax, cl
  039d9	8b c8		 mov	 ecx, eax
  039db	8b c2		 mov	 eax, edx
  039dd	0b c1		 or	 eax, ecx
  039df	89 84 24 ac 03
	00 00		 mov	 DWORD PTR $T37043[rsp], eax
  039e6	8b 8c 24 ac 03
	00 00		 mov	 ecx, DWORD PTR $T37043[rsp]
  039ed	8b 44 24 3c	 mov	 eax, DWORD PTR T$[rsp+28]
  039f1	33 c1		 xor	 eax, ecx
  039f3	89 84 24 b0 03
	00 00		 mov	 DWORD PTR $T37047[rsp], eax
  039fa	b8 20 00 00 00	 mov	 eax, 32			; 00000020H
  039ff	83 e8 05	 sub	 eax, 5
  03a02	0f b6 c8	 movzx	 ecx, al
  03a05	8b 84 24 b0 03
	00 00		 mov	 eax, DWORD PTR $T37047[rsp]
  03a0c	d3 e0		 shl	 eax, cl
  03a0e	8b 8c 24 b0 03
	00 00		 mov	 ecx, DWORD PTR $T37047[rsp]
  03a15	c1 e9 05	 shr	 ecx, 5
  03a18	0b c8		 or	 ecx, eax
  03a1a	8b 44 24 3c	 mov	 eax, DWORD PTR T$[rsp+28]
  03a1e	33 c1		 xor	 eax, ecx
  03a20	89 84 24 b4 03
	00 00		 mov	 DWORD PTR $T37051[rsp], eax
  03a27	8b 84 24 80 00
	00 00		 mov	 eax, DWORD PTR j$32935[rsp]
  03a2e	83 c0 0d	 add	 eax, 13
  03a31	44 8b c8	 mov	 r9d, eax
  03a34	4c 8d 05 00 00
	00 00		 lea	 r8, OFFSET FLAT:SHA256_K
  03a3b	8b 44 24 24	 mov	 eax, DWORD PTR T$[rsp+4]
  03a3f	8b 4c 24 20	 mov	 ecx, DWORD PTR T$[rsp]
  03a43	33 c8		 xor	 ecx, eax
  03a45	8b 44 24 3c	 mov	 eax, DWORD PTR T$[rsp+28]
  03a49	23 c1		 and	 eax, ecx
  03a4b	8b 54 24 24	 mov	 edx, DWORD PTR T$[rsp+4]
  03a4f	33 d0		 xor	 edx, eax
  03a51	b8 20 00 00 00	 mov	 eax, 32			; 00000020H
  03a56	83 e8 06	 sub	 eax, 6
  03a59	0f b6 c8	 movzx	 ecx, al
  03a5c	8b 84 24 b4 03
	00 00		 mov	 eax, DWORD PTR $T37051[rsp]
  03a63	d3 e0		 shl	 eax, cl
  03a65	8b 8c 24 b4 03
	00 00		 mov	 ecx, DWORD PTR $T37051[rsp]
  03a6c	c1 e9 06	 shr	 ecx, 6
  03a6f	0b c8		 or	 ecx, eax
  03a71	03 ca		 add	 ecx, edx
  03a73	43 03 0c 88	 add	 ecx, DWORD PTR [r8+r9*4]
  03a77	03 4c 24 74	 add	 ecx, DWORD PTR W$[rsp+52]
  03a7b	8b 44 24 28	 mov	 eax, DWORD PTR T$[rsp+8]
  03a7f	03 c1		 add	 eax, ecx
  03a81	89 44 24 28	 mov	 DWORD PTR T$[rsp+8], eax
  03a85	8b 4c 24 28	 mov	 ecx, DWORD PTR T$[rsp+8]
  03a89	8b 44 24 38	 mov	 eax, DWORD PTR T$[rsp+24]
  03a8d	03 c1		 add	 eax, ecx
  03a8f	89 44 24 38	 mov	 DWORD PTR T$[rsp+24], eax
  03a93	8b 54 24 2c	 mov	 edx, DWORD PTR T$[rsp+12]
  03a97	c1 ea 09	 shr	 edx, 9
  03a9a	b8 20 00 00 00	 mov	 eax, 32			; 00000020H
  03a9f	83 e8 09	 sub	 eax, 9
  03aa2	0f b6 c8	 movzx	 ecx, al
  03aa5	8b 44 24 2c	 mov	 eax, DWORD PTR T$[rsp+12]
  03aa9	d3 e0		 shl	 eax, cl
  03aab	8b c8		 mov	 ecx, eax
  03aad	8b c2		 mov	 eax, edx
  03aaf	0b c1		 or	 eax, ecx
  03ab1	89 84 24 b8 03
	00 00		 mov	 DWORD PTR $T37055[rsp], eax
  03ab8	8b 8c 24 b8 03
	00 00		 mov	 ecx, DWORD PTR $T37055[rsp]
  03abf	8b 44 24 2c	 mov	 eax, DWORD PTR T$[rsp+12]
  03ac3	33 c1		 xor	 eax, ecx
  03ac5	89 84 24 bc 03
	00 00		 mov	 DWORD PTR $T37059[rsp], eax
  03acc	b8 20 00 00 00	 mov	 eax, 32			; 00000020H
  03ad1	83 e8 0b	 sub	 eax, 11
  03ad4	0f b6 c8	 movzx	 ecx, al
  03ad7	8b 84 24 bc 03
	00 00		 mov	 eax, DWORD PTR $T37059[rsp]
  03ade	d3 e0		 shl	 eax, cl
  03ae0	8b 8c 24 bc 03
	00 00		 mov	 ecx, DWORD PTR $T37059[rsp]
  03ae7	c1 e9 0b	 shr	 ecx, 11
  03aea	0b c8		 or	 ecx, eax
  03aec	8b 44 24 2c	 mov	 eax, DWORD PTR T$[rsp+12]
  03af0	33 c1		 xor	 eax, ecx
  03af2	89 84 24 c0 03
	00 00		 mov	 DWORD PTR $T37063[rsp], eax
  03af9	8b 4c 24 34	 mov	 ecx, DWORD PTR T$[rsp+20]
  03afd	8b 44 24 30	 mov	 eax, DWORD PTR T$[rsp+16]
  03b01	33 c1		 xor	 eax, ecx
  03b03	8b 54 24 2c	 mov	 edx, DWORD PTR T$[rsp+12]
  03b07	23 d0		 and	 edx, eax
  03b09	8b 4c 24 34	 mov	 ecx, DWORD PTR T$[rsp+20]
  03b0d	8b 44 24 30	 mov	 eax, DWORD PTR T$[rsp+16]
  03b11	23 c1		 and	 eax, ecx
  03b13	03 d0		 add	 edx, eax
  03b15	b8 20 00 00 00	 mov	 eax, 32			; 00000020H
  03b1a	83 e8 02	 sub	 eax, 2
  03b1d	0f b6 c8	 movzx	 ecx, al
  03b20	8b 84 24 c0 03
	00 00		 mov	 eax, DWORD PTR $T37063[rsp]
  03b27	d3 e0		 shl	 eax, cl
  03b29	8b 8c 24 c0 03
	00 00		 mov	 ecx, DWORD PTR $T37063[rsp]
  03b30	c1 e9 02	 shr	 ecx, 2
  03b33	0b c8		 or	 ecx, eax
  03b35	8b c2		 mov	 eax, edx
  03b37	03 44 24 28	 add	 eax, DWORD PTR T$[rsp+8]
  03b3b	03 c1		 add	 eax, ecx
  03b3d	89 44 24 28	 mov	 DWORD PTR T$[rsp+8], eax
  03b41	b8 20 00 00 00	 mov	 eax, 32			; 00000020H
  03b46	83 e8 02	 sub	 eax, 2
  03b49	0f b6 c8	 movzx	 ecx, al
  03b4c	8b 44 24 70	 mov	 eax, DWORD PTR W$[rsp+48]
  03b50	d3 e0		 shl	 eax, cl
  03b52	8b 4c 24 70	 mov	 ecx, DWORD PTR W$[rsp+48]
  03b56	c1 e9 02	 shr	 ecx, 2
  03b59	0b c8		 or	 ecx, eax
  03b5b	8b 44 24 70	 mov	 eax, DWORD PTR W$[rsp+48]
  03b5f	33 c1		 xor	 eax, ecx
  03b61	89 84 24 c4 03
	00 00		 mov	 DWORD PTR $T37070[rsp], eax
  03b68	b8 20 00 00 00	 mov	 eax, 32			; 00000020H
  03b6d	83 e8 0b	 sub	 eax, 11
  03b70	0f b6 c8	 movzx	 ecx, al
  03b73	8b 44 24 7c	 mov	 eax, DWORD PTR W$[rsp+60]
  03b77	d3 e0		 shl	 eax, cl
  03b79	8b 4c 24 7c	 mov	 ecx, DWORD PTR W$[rsp+60]
  03b7d	c1 e9 0b	 shr	 ecx, 11
  03b80	0b c8		 or	 ecx, eax
  03b82	8b 44 24 7c	 mov	 eax, DWORD PTR W$[rsp+60]
  03b86	33 c1		 xor	 eax, ecx
  03b88	89 84 24 c8 03
	00 00		 mov	 DWORD PTR $T37077[rsp], eax
  03b8f	8b 54 24 70	 mov	 edx, DWORD PTR W$[rsp+48]
  03b93	c1 ea 0a	 shr	 edx, 10
  03b96	b8 20 00 00 00	 mov	 eax, 32			; 00000020H
  03b9b	83 e8 11	 sub	 eax, 17
  03b9e	0f b6 c8	 movzx	 ecx, al
  03ba1	8b 84 24 c4 03
	00 00		 mov	 eax, DWORD PTR $T37070[rsp]
  03ba8	d3 e0		 shl	 eax, cl
  03baa	44 8b 84 24 c4
	03 00 00	 mov	 r8d, DWORD PTR $T37070[rsp]
  03bb2	41 c1 e8 11	 shr	 r8d, 17
  03bb6	44 0b c0	 or	 r8d, eax
  03bb9	44 33 c2	 xor	 r8d, edx
  03bbc	44 03 44 24 5c	 add	 r8d, DWORD PTR W$[rsp+28]
  03bc1	8b 54 24 7c	 mov	 edx, DWORD PTR W$[rsp+60]
  03bc5	c1 ea 03	 shr	 edx, 3
  03bc8	b8 20 00 00 00	 mov	 eax, 32			; 00000020H
  03bcd	83 e8 07	 sub	 eax, 7
  03bd0	0f b6 c8	 movzx	 ecx, al
  03bd3	8b 84 24 c8 03
	00 00		 mov	 eax, DWORD PTR $T37077[rsp]
  03bda	d3 e0		 shl	 eax, cl
  03bdc	8b c8		 mov	 ecx, eax
  03bde	8b 84 24 c8 03
	00 00		 mov	 eax, DWORD PTR $T37077[rsp]
  03be5	c1 e8 07	 shr	 eax, 7
  03be8	0b c1		 or	 eax, ecx
  03bea	33 c2		 xor	 eax, edx
  03bec	03 44 24 78	 add	 eax, DWORD PTR W$[rsp+56]
  03bf0	41 03 c0	 add	 eax, r8d
  03bf3	89 44 24 78	 mov	 DWORD PTR W$[rsp+56], eax
  03bf7	8b 54 24 38	 mov	 edx, DWORD PTR T$[rsp+24]
  03bfb	c1 ea 0e	 shr	 edx, 14
  03bfe	b8 20 00 00 00	 mov	 eax, 32			; 00000020H
  03c03	83 e8 0e	 sub	 eax, 14
  03c06	0f b6 c8	 movzx	 ecx, al
  03c09	8b 44 24 38	 mov	 eax, DWORD PTR T$[rsp+24]
  03c0d	d3 e0		 shl	 eax, cl
  03c0f	8b c8		 mov	 ecx, eax
  03c11	8b c2		 mov	 eax, edx
  03c13	0b c1		 or	 eax, ecx
  03c15	89 84 24 cc 03
	00 00		 mov	 DWORD PTR $T37081[rsp], eax
  03c1c	8b 8c 24 cc 03
	00 00		 mov	 ecx, DWORD PTR $T37081[rsp]
  03c23	8b 44 24 38	 mov	 eax, DWORD PTR T$[rsp+24]
  03c27	33 c1		 xor	 eax, ecx
  03c29	89 84 24 d0 03
	00 00		 mov	 DWORD PTR $T37085[rsp], eax
  03c30	b8 20 00 00 00	 mov	 eax, 32			; 00000020H
  03c35	83 e8 05	 sub	 eax, 5
  03c38	0f b6 c8	 movzx	 ecx, al
  03c3b	8b 84 24 d0 03
	00 00		 mov	 eax, DWORD PTR $T37085[rsp]
  03c42	d3 e0		 shl	 eax, cl
  03c44	8b 8c 24 d0 03
	00 00		 mov	 ecx, DWORD PTR $T37085[rsp]
  03c4b	c1 e9 05	 shr	 ecx, 5
  03c4e	0b c8		 or	 ecx, eax
  03c50	8b 44 24 38	 mov	 eax, DWORD PTR T$[rsp+24]
  03c54	33 c1		 xor	 eax, ecx
  03c56	89 84 24 d4 03
	00 00		 mov	 DWORD PTR $T37089[rsp], eax
  03c5d	8b 84 24 80 00
	00 00		 mov	 eax, DWORD PTR j$32935[rsp]
  03c64	83 c0 0e	 add	 eax, 14
  03c67	44 8b c8	 mov	 r9d, eax
  03c6a	4c 8d 05 00 00
	00 00		 lea	 r8, OFFSET FLAT:SHA256_K
  03c71	8b 44 24 20	 mov	 eax, DWORD PTR T$[rsp]
  03c75	8b 4c 24 3c	 mov	 ecx, DWORD PTR T$[rsp+28]
  03c79	33 c8		 xor	 ecx, eax
  03c7b	8b 44 24 38	 mov	 eax, DWORD PTR T$[rsp+24]
  03c7f	23 c1		 and	 eax, ecx
  03c81	8b 54 24 20	 mov	 edx, DWORD PTR T$[rsp]
  03c85	33 d0		 xor	 edx, eax
  03c87	b8 20 00 00 00	 mov	 eax, 32			; 00000020H
  03c8c	83 e8 06	 sub	 eax, 6
  03c8f	0f b6 c8	 movzx	 ecx, al
  03c92	8b 84 24 d4 03
	00 00		 mov	 eax, DWORD PTR $T37089[rsp]
  03c99	d3 e0		 shl	 eax, cl
  03c9b	8b 8c 24 d4 03
	00 00		 mov	 ecx, DWORD PTR $T37089[rsp]
  03ca2	c1 e9 06	 shr	 ecx, 6
  03ca5	0b c8		 or	 ecx, eax
  03ca7	03 ca		 add	 ecx, edx
  03ca9	43 03 0c 88	 add	 ecx, DWORD PTR [r8+r9*4]
  03cad	03 4c 24 78	 add	 ecx, DWORD PTR W$[rsp+56]
  03cb1	8b 44 24 24	 mov	 eax, DWORD PTR T$[rsp+4]
  03cb5	03 c1		 add	 eax, ecx
  03cb7	89 44 24 24	 mov	 DWORD PTR T$[rsp+4], eax
  03cbb	8b 4c 24 24	 mov	 ecx, DWORD PTR T$[rsp+4]
  03cbf	8b 44 24 34	 mov	 eax, DWORD PTR T$[rsp+20]
  03cc3	03 c1		 add	 eax, ecx
  03cc5	89 44 24 34	 mov	 DWORD PTR T$[rsp+20], eax
  03cc9	8b 54 24 28	 mov	 edx, DWORD PTR T$[rsp+8]
  03ccd	c1 ea 09	 shr	 edx, 9
  03cd0	b8 20 00 00 00	 mov	 eax, 32			; 00000020H
  03cd5	83 e8 09	 sub	 eax, 9
  03cd8	0f b6 c8	 movzx	 ecx, al
  03cdb	8b 44 24 28	 mov	 eax, DWORD PTR T$[rsp+8]
  03cdf	d3 e0		 shl	 eax, cl
  03ce1	8b c8		 mov	 ecx, eax
  03ce3	8b c2		 mov	 eax, edx
  03ce5	0b c1		 or	 eax, ecx
  03ce7	89 84 24 d8 03
	00 00		 mov	 DWORD PTR $T37093[rsp], eax
  03cee	8b 8c 24 d8 03
	00 00		 mov	 ecx, DWORD PTR $T37093[rsp]
  03cf5	8b 44 24 28	 mov	 eax, DWORD PTR T$[rsp+8]
  03cf9	33 c1		 xor	 eax, ecx
  03cfb	89 84 24 dc 03
	00 00		 mov	 DWORD PTR $T37097[rsp], eax
  03d02	b8 20 00 00 00	 mov	 eax, 32			; 00000020H
  03d07	83 e8 0b	 sub	 eax, 11
  03d0a	0f b6 c8	 movzx	 ecx, al
  03d0d	8b 84 24 dc 03
	00 00		 mov	 eax, DWORD PTR $T37097[rsp]
  03d14	d3 e0		 shl	 eax, cl
  03d16	8b 8c 24 dc 03
	00 00		 mov	 ecx, DWORD PTR $T37097[rsp]
  03d1d	c1 e9 0b	 shr	 ecx, 11
  03d20	0b c8		 or	 ecx, eax
  03d22	8b 44 24 28	 mov	 eax, DWORD PTR T$[rsp+8]
  03d26	33 c1		 xor	 eax, ecx
  03d28	89 84 24 e0 03
	00 00		 mov	 DWORD PTR $T37101[rsp], eax
  03d2f	8b 4c 24 30	 mov	 ecx, DWORD PTR T$[rsp+16]
  03d33	8b 44 24 2c	 mov	 eax, DWORD PTR T$[rsp+12]
  03d37	33 c1		 xor	 eax, ecx
  03d39	8b 54 24 28	 mov	 edx, DWORD PTR T$[rsp+8]
  03d3d	23 d0		 and	 edx, eax
  03d3f	8b 4c 24 30	 mov	 ecx, DWORD PTR T$[rsp+16]
  03d43	8b 44 24 2c	 mov	 eax, DWORD PTR T$[rsp+12]
  03d47	23 c1		 and	 eax, ecx
  03d49	03 d0		 add	 edx, eax
  03d4b	b8 20 00 00 00	 mov	 eax, 32			; 00000020H
  03d50	83 e8 02	 sub	 eax, 2
  03d53	0f b6 c8	 movzx	 ecx, al
  03d56	8b 84 24 e0 03
	00 00		 mov	 eax, DWORD PTR $T37101[rsp]
  03d5d	d3 e0		 shl	 eax, cl
  03d5f	8b 8c 24 e0 03
	00 00		 mov	 ecx, DWORD PTR $T37101[rsp]
  03d66	c1 e9 02	 shr	 ecx, 2
  03d69	0b c8		 or	 ecx, eax
  03d6b	8b c2		 mov	 eax, edx
  03d6d	03 44 24 24	 add	 eax, DWORD PTR T$[rsp+4]
  03d71	03 c1		 add	 eax, ecx
  03d73	89 44 24 24	 mov	 DWORD PTR T$[rsp+4], eax
  03d77	b8 20 00 00 00	 mov	 eax, 32			; 00000020H
  03d7c	83 e8 02	 sub	 eax, 2
  03d7f	0f b6 c8	 movzx	 ecx, al
  03d82	8b 44 24 74	 mov	 eax, DWORD PTR W$[rsp+52]
  03d86	d3 e0		 shl	 eax, cl
  03d88	8b 4c 24 74	 mov	 ecx, DWORD PTR W$[rsp+52]
  03d8c	c1 e9 02	 shr	 ecx, 2
  03d8f	0b c8		 or	 ecx, eax
  03d91	8b 44 24 74	 mov	 eax, DWORD PTR W$[rsp+52]
  03d95	33 c1		 xor	 eax, ecx
  03d97	89 84 24 e4 03
	00 00		 mov	 DWORD PTR $T37108[rsp], eax
  03d9e	b8 20 00 00 00	 mov	 eax, 32			; 00000020H
  03da3	83 e8 0b	 sub	 eax, 11
  03da6	0f b6 c8	 movzx	 ecx, al
  03da9	8b 44 24 40	 mov	 eax, DWORD PTR W$[rsp]
  03dad	d3 e0		 shl	 eax, cl
  03daf	8b 4c 24 40	 mov	 ecx, DWORD PTR W$[rsp]
  03db3	c1 e9 0b	 shr	 ecx, 11
  03db6	0b c8		 or	 ecx, eax
  03db8	8b 44 24 40	 mov	 eax, DWORD PTR W$[rsp]
  03dbc	33 c1		 xor	 eax, ecx
  03dbe	89 84 24 e8 03
	00 00		 mov	 DWORD PTR $T37115[rsp], eax
  03dc5	8b 54 24 74	 mov	 edx, DWORD PTR W$[rsp+52]
  03dc9	c1 ea 0a	 shr	 edx, 10
  03dcc	b8 20 00 00 00	 mov	 eax, 32			; 00000020H
  03dd1	83 e8 11	 sub	 eax, 17
  03dd4	0f b6 c8	 movzx	 ecx, al
  03dd7	8b 84 24 e4 03
	00 00		 mov	 eax, DWORD PTR $T37108[rsp]
  03dde	d3 e0		 shl	 eax, cl
  03de0	44 8b 84 24 e4
	03 00 00	 mov	 r8d, DWORD PTR $T37108[rsp]
  03de8	41 c1 e8 11	 shr	 r8d, 17
  03dec	44 0b c0	 or	 r8d, eax
  03def	44 33 c2	 xor	 r8d, edx
  03df2	44 03 44 24 60	 add	 r8d, DWORD PTR W$[rsp+32]
  03df7	8b 54 24 40	 mov	 edx, DWORD PTR W$[rsp]
  03dfb	c1 ea 03	 shr	 edx, 3
  03dfe	b8 20 00 00 00	 mov	 eax, 32			; 00000020H
  03e03	83 e8 07	 sub	 eax, 7
  03e06	0f b6 c8	 movzx	 ecx, al
  03e09	8b 84 24 e8 03
	00 00		 mov	 eax, DWORD PTR $T37115[rsp]
  03e10	d3 e0		 shl	 eax, cl
  03e12	8b c8		 mov	 ecx, eax
  03e14	8b 84 24 e8 03
	00 00		 mov	 eax, DWORD PTR $T37115[rsp]
  03e1b	c1 e8 07	 shr	 eax, 7
  03e1e	0b c1		 or	 eax, ecx
  03e20	33 c2		 xor	 eax, edx
  03e22	03 44 24 7c	 add	 eax, DWORD PTR W$[rsp+60]
  03e26	41 03 c0	 add	 eax, r8d
  03e29	89 44 24 7c	 mov	 DWORD PTR W$[rsp+60], eax
  03e2d	8b 54 24 34	 mov	 edx, DWORD PTR T$[rsp+20]
  03e31	c1 ea 0e	 shr	 edx, 14
  03e34	b8 20 00 00 00	 mov	 eax, 32			; 00000020H
  03e39	83 e8 0e	 sub	 eax, 14
  03e3c	0f b6 c8	 movzx	 ecx, al
  03e3f	8b 44 24 34	 mov	 eax, DWORD PTR T$[rsp+20]
  03e43	d3 e0		 shl	 eax, cl
  03e45	8b c8		 mov	 ecx, eax
  03e47	8b c2		 mov	 eax, edx
  03e49	0b c1		 or	 eax, ecx
  03e4b	89 84 24 ec 03
	00 00		 mov	 DWORD PTR $T37119[rsp], eax
  03e52	8b 8c 24 ec 03
	00 00		 mov	 ecx, DWORD PTR $T37119[rsp]
  03e59	8b 44 24 34	 mov	 eax, DWORD PTR T$[rsp+20]
  03e5d	33 c1		 xor	 eax, ecx
  03e5f	89 84 24 f0 03
	00 00		 mov	 DWORD PTR $T37123[rsp], eax
  03e66	b8 20 00 00 00	 mov	 eax, 32			; 00000020H
  03e6b	83 e8 05	 sub	 eax, 5
  03e6e	0f b6 c8	 movzx	 ecx, al
  03e71	8b 84 24 f0 03
	00 00		 mov	 eax, DWORD PTR $T37123[rsp]
  03e78	d3 e0		 shl	 eax, cl
  03e7a	8b 8c 24 f0 03
	00 00		 mov	 ecx, DWORD PTR $T37123[rsp]
  03e81	c1 e9 05	 shr	 ecx, 5
  03e84	0b c8		 or	 ecx, eax
  03e86	8b 44 24 34	 mov	 eax, DWORD PTR T$[rsp+20]
  03e8a	33 c1		 xor	 eax, ecx
  03e8c	89 84 24 f4 03
	00 00		 mov	 DWORD PTR $T37127[rsp], eax
  03e93	8b 84 24 80 00
	00 00		 mov	 eax, DWORD PTR j$32935[rsp]
  03e9a	83 c0 0f	 add	 eax, 15
  03e9d	44 8b c8	 mov	 r9d, eax
  03ea0	4c 8d 05 00 00
	00 00		 lea	 r8, OFFSET FLAT:SHA256_K
  03ea7	8b 44 24 3c	 mov	 eax, DWORD PTR T$[rsp+28]
  03eab	8b 4c 24 38	 mov	 ecx, DWORD PTR T$[rsp+24]
  03eaf	33 c8		 xor	 ecx, eax
  03eb1	8b 44 24 34	 mov	 eax, DWORD PTR T$[rsp+20]
  03eb5	23 c1		 and	 eax, ecx
  03eb7	8b 54 24 3c	 mov	 edx, DWORD PTR T$[rsp+28]
  03ebb	33 d0		 xor	 edx, eax
  03ebd	b8 20 00 00 00	 mov	 eax, 32			; 00000020H
  03ec2	83 e8 06	 sub	 eax, 6
  03ec5	0f b6 c8	 movzx	 ecx, al
  03ec8	8b 84 24 f4 03
	00 00		 mov	 eax, DWORD PTR $T37127[rsp]
  03ecf	d3 e0		 shl	 eax, cl
  03ed1	8b 8c 24 f4 03
	00 00		 mov	 ecx, DWORD PTR $T37127[rsp]
  03ed8	c1 e9 06	 shr	 ecx, 6
  03edb	0b c8		 or	 ecx, eax
  03edd	03 ca		 add	 ecx, edx
  03edf	43 03 0c 88	 add	 ecx, DWORD PTR [r8+r9*4]
  03ee3	03 4c 24 7c	 add	 ecx, DWORD PTR W$[rsp+60]
  03ee7	8b 44 24 20	 mov	 eax, DWORD PTR T$[rsp]
  03eeb	03 c1		 add	 eax, ecx
  03eed	89 44 24 20	 mov	 DWORD PTR T$[rsp], eax
  03ef1	8b 4c 24 20	 mov	 ecx, DWORD PTR T$[rsp]
  03ef5	8b 44 24 30	 mov	 eax, DWORD PTR T$[rsp+16]
  03ef9	03 c1		 add	 eax, ecx
  03efb	89 44 24 30	 mov	 DWORD PTR T$[rsp+16], eax
  03eff	8b 54 24 24	 mov	 edx, DWORD PTR T$[rsp+4]
  03f03	c1 ea 09	 shr	 edx, 9
  03f06	b8 20 00 00 00	 mov	 eax, 32			; 00000020H
  03f0b	83 e8 09	 sub	 eax, 9
  03f0e	0f b6 c8	 movzx	 ecx, al
  03f11	8b 44 24 24	 mov	 eax, DWORD PTR T$[rsp+4]
  03f15	d3 e0		 shl	 eax, cl
  03f17	8b c8		 mov	 ecx, eax
  03f19	8b c2		 mov	 eax, edx
  03f1b	0b c1		 or	 eax, ecx
  03f1d	89 84 24 f8 03
	00 00		 mov	 DWORD PTR $T37131[rsp], eax
  03f24	8b 8c 24 f8 03
	00 00		 mov	 ecx, DWORD PTR $T37131[rsp]
  03f2b	8b 44 24 24	 mov	 eax, DWORD PTR T$[rsp+4]
  03f2f	33 c1		 xor	 eax, ecx
  03f31	89 84 24 fc 03
	00 00		 mov	 DWORD PTR $T37135[rsp], eax
  03f38	b8 20 00 00 00	 mov	 eax, 32			; 00000020H
  03f3d	83 e8 0b	 sub	 eax, 11
  03f40	0f b6 c8	 movzx	 ecx, al
  03f43	8b 84 24 fc 03
	00 00		 mov	 eax, DWORD PTR $T37135[rsp]
  03f4a	d3 e0		 shl	 eax, cl
  03f4c	8b 8c 24 fc 03
	00 00		 mov	 ecx, DWORD PTR $T37135[rsp]
  03f53	c1 e9 0b	 shr	 ecx, 11
  03f56	0b c8		 or	 ecx, eax
  03f58	8b 44 24 24	 mov	 eax, DWORD PTR T$[rsp+4]
  03f5c	33 c1		 xor	 eax, ecx
  03f5e	89 84 24 00 04
	00 00		 mov	 DWORD PTR $T37139[rsp], eax
  03f65	8b 4c 24 2c	 mov	 ecx, DWORD PTR T$[rsp+12]
  03f69	8b 44 24 28	 mov	 eax, DWORD PTR T$[rsp+8]
  03f6d	33 c1		 xor	 eax, ecx
  03f6f	8b 54 24 24	 mov	 edx, DWORD PTR T$[rsp+4]
  03f73	23 d0		 and	 edx, eax
  03f75	8b 4c 24 2c	 mov	 ecx, DWORD PTR T$[rsp+12]
  03f79	8b 44 24 28	 mov	 eax, DWORD PTR T$[rsp+8]
  03f7d	23 c1		 and	 eax, ecx
  03f7f	03 d0		 add	 edx, eax
  03f81	b8 20 00 00 00	 mov	 eax, 32			; 00000020H
  03f86	83 e8 02	 sub	 eax, 2
  03f89	0f b6 c8	 movzx	 ecx, al
  03f8c	8b 84 24 00 04
	00 00		 mov	 eax, DWORD PTR $T37139[rsp]
  03f93	d3 e0		 shl	 eax, cl
  03f95	8b 8c 24 00 04
	00 00		 mov	 ecx, DWORD PTR $T37139[rsp]
  03f9c	c1 e9 02	 shr	 ecx, 2
  03f9f	0b c8		 or	 ecx, eax
  03fa1	8b c2		 mov	 eax, edx
  03fa3	03 44 24 20	 add	 eax, DWORD PTR T$[rsp]
  03fa7	03 c1		 add	 eax, ecx
  03fa9	89 44 24 20	 mov	 DWORD PTR T$[rsp], eax

; 106  : 	}

  03fad	e9 81 dc ff ff	 jmp	 $LN2@transform
$LN1@transform:

; 107  :   }
; 108  : 
; 109  : 	// Add the working vars back into state[].
; 110  : 	state[0] += a(0);

  03fb2	48 8b 84 24 20
	04 00 00	 mov	 rax, QWORD PTR state$[rsp]
  03fba	8b 08		 mov	 ecx, DWORD PTR [rax]
  03fbc	03 4c 24 20	 add	 ecx, DWORD PTR T$[rsp]
  03fc0	48 8b 84 24 20
	04 00 00	 mov	 rax, QWORD PTR state$[rsp]
  03fc8	89 08		 mov	 DWORD PTR [rax], ecx

; 111  : 	state[1] += b(0);

  03fca	48 8b 84 24 20
	04 00 00	 mov	 rax, QWORD PTR state$[rsp]
  03fd2	8b 48 04	 mov	 ecx, DWORD PTR [rax+4]
  03fd5	03 4c 24 24	 add	 ecx, DWORD PTR T$[rsp+4]
  03fd9	48 8b 84 24 20
	04 00 00	 mov	 rax, QWORD PTR state$[rsp]
  03fe1	89 48 04	 mov	 DWORD PTR [rax+4], ecx

; 112  : 	state[2] += c(0);

  03fe4	48 8b 84 24 20
	04 00 00	 mov	 rax, QWORD PTR state$[rsp]
  03fec	8b 48 08	 mov	 ecx, DWORD PTR [rax+8]
  03fef	03 4c 24 28	 add	 ecx, DWORD PTR T$[rsp+8]
  03ff3	48 8b 84 24 20
	04 00 00	 mov	 rax, QWORD PTR state$[rsp]
  03ffb	89 48 08	 mov	 DWORD PTR [rax+8], ecx

; 113  : 	state[3] += d(0);

  03ffe	48 8b 84 24 20
	04 00 00	 mov	 rax, QWORD PTR state$[rsp]
  04006	8b 48 0c	 mov	 ecx, DWORD PTR [rax+12]
  04009	03 4c 24 2c	 add	 ecx, DWORD PTR T$[rsp+12]
  0400d	48 8b 84 24 20
	04 00 00	 mov	 rax, QWORD PTR state$[rsp]
  04015	89 48 0c	 mov	 DWORD PTR [rax+12], ecx

; 114  : 	state[4] += e(0);

  04018	48 8b 84 24 20
	04 00 00	 mov	 rax, QWORD PTR state$[rsp]
  04020	8b 48 10	 mov	 ecx, DWORD PTR [rax+16]
  04023	03 4c 24 30	 add	 ecx, DWORD PTR T$[rsp+16]
  04027	48 8b 84 24 20
	04 00 00	 mov	 rax, QWORD PTR state$[rsp]
  0402f	89 48 10	 mov	 DWORD PTR [rax+16], ecx

; 115  : 	state[5] += f(0);

  04032	48 8b 84 24 20
	04 00 00	 mov	 rax, QWORD PTR state$[rsp]
  0403a	8b 48 14	 mov	 ecx, DWORD PTR [rax+20]
  0403d	03 4c 24 34	 add	 ecx, DWORD PTR T$[rsp+20]
  04041	48 8b 84 24 20
	04 00 00	 mov	 rax, QWORD PTR state$[rsp]
  04049	89 48 14	 mov	 DWORD PTR [rax+20], ecx

; 116  : 	state[6] += g(0);

  0404c	48 8b 84 24 20
	04 00 00	 mov	 rax, QWORD PTR state$[rsp]
  04054	8b 48 18	 mov	 ecx, DWORD PTR [rax+24]
  04057	03 4c 24 38	 add	 ecx, DWORD PTR T$[rsp+24]
  0405b	48 8b 84 24 20
	04 00 00	 mov	 rax, QWORD PTR state$[rsp]
  04063	89 48 18	 mov	 DWORD PTR [rax+24], ecx

; 117  : 	state[7] += h(0);

  04066	48 8b 84 24 20
	04 00 00	 mov	 rax, QWORD PTR state$[rsp]
  0406e	8b 48 1c	 mov	 ecx, DWORD PTR [rax+28]
  04071	03 4c 24 3c	 add	 ecx, DWORD PTR T$[rsp+28]
  04075	48 8b 84 24 20
	04 00 00	 mov	 rax, QWORD PTR state$[rsp]
  0407d	89 48 1c	 mov	 DWORD PTR [rax+28], ecx

; 118  : }

  04080	48 81 c4 18 04
	00 00		 add	 rsp, 1048		; 00000418H
  04087	c3		 ret	 0
transform ENDP
;	COMDAT pdata
pdata	SEGMENT
$pdata$process DD imagerel process
	DD	imagerel process+33
	DD	imagerel $unwind$process
pdata	ENDS
;	COMDAT xdata
xdata	SEGMENT
$unwind$process DD 010901H
	DD	04209H
; Function compile flags: /Odtp
xdata	ENDS
;	COMDAT process
_TEXT	SEGMENT
check$ = 48
process	PROC						; COMDAT

; 123  : {

  00000	48 89 4c 24 08	 mov	 QWORD PTR [rsp+8], rcx
  00005	48 83 ec 28	 sub	 rsp, 40			; 00000028H

; 124  : 	transform(check->state.sha256.state, check->buffer.u32);

  00009	48 8b 4c 24 30	 mov	 rcx, QWORD PTR check$[rsp]
  0000e	48 83 c1 40	 add	 rcx, 64			; 00000040H
  00012	48 8b 54 24 30	 mov	 rdx, QWORD PTR check$[rsp]
  00017	e8 00 00 00 00	 call	 transform

; 125  : 	return;
; 126  : }

  0001c	48 83 c4 28	 add	 rsp, 40			; 00000028H
  00020	c3		 ret	 0
process	ENDP
PUBLIC	lzma_sha256_finish
;	COMDAT pdata
pdata	SEGMENT
$pdata$lzma_sha256_finish DD imagerel $LN9
	DD	imagerel $LN9+489
	DD	imagerel $unwind$lzma_sha256_finish
pdata	ENDS
;	COMDAT xdata
xdata	SEGMENT
$unwind$lzma_sha256_finish DD 010901H
	DD	06209H
; Function compile flags: /Odtp
xdata	ENDS
;	COMDAT lzma_sha256_finish
_TEXT	SEGMENT
pos$ = 32
i$32978 = 40
check$ = 64
lzma_sha256_finish PROC					; COMDAT

; 173  : {

$LN9:
  00000	48 89 4c 24 08	 mov	 QWORD PTR [rsp+8], rcx
  00005	48 83 ec 38	 sub	 rsp, 56			; 00000038H

; 174  : 	// Add padding as described in RFC 3174 (it describes SHA-1 but
; 175  : 	// the same padding style is used for SHA-256 too).
; 176  : 	size_t pos = check->state.sha256.size & 0x3F;

  00009	48 8b 44 24 40	 mov	 rax, QWORD PTR check$[rsp]
  0000e	48 8b 40 60	 mov	 rax, QWORD PTR [rax+96]
  00012	48 83 e0 3f	 and	 rax, 63			; 0000003fH
  00016	48 89 44 24 20	 mov	 QWORD PTR pos$[rsp], rax

; 177  : 	check->buffer.u8[pos++] = 0x80;

  0001b	48 8b 4c 24 20	 mov	 rcx, QWORD PTR pos$[rsp]
  00020	48 8b 44 24 40	 mov	 rax, QWORD PTR check$[rsp]
  00025	48 03 c1	 add	 rax, rcx
  00028	c6 00 80	 mov	 BYTE PTR [rax], 128	; 00000080H
  0002b	48 8b 44 24 20	 mov	 rax, QWORD PTR pos$[rsp]
  00030	48 83 c0 01	 add	 rax, 1
  00034	48 89 44 24 20	 mov	 QWORD PTR pos$[rsp], rax
$LN6@lzma_sha25:

; 178  : 
; 179  : 	while (pos != 64 - 8) {

  00039	48 83 7c 24 20
	38		 cmp	 QWORD PTR pos$[rsp], 56	; 00000038H
  0003f	74 3b		 je	 SHORT $LN5@lzma_sha25

; 180  : 		if (pos == 64) {

  00041	48 83 7c 24 20
	40		 cmp	 QWORD PTR pos$[rsp], 64	; 00000040H
  00047	75 13		 jne	 SHORT $LN4@lzma_sha25

; 181  : 			process(check);

  00049	48 8b 4c 24 40	 mov	 rcx, QWORD PTR check$[rsp]
  0004e	e8 00 00 00 00	 call	 process

; 182  : 			pos = 0;

  00053	48 c7 44 24 20
	00 00 00 00	 mov	 QWORD PTR pos$[rsp], 0
$LN4@lzma_sha25:

; 183  : 		}
; 184  : 
; 185  : 		check->buffer.u8[pos++] = 0x00;

  0005c	48 8b 4c 24 20	 mov	 rcx, QWORD PTR pos$[rsp]
  00061	48 8b 44 24 40	 mov	 rax, QWORD PTR check$[rsp]
  00066	48 03 c1	 add	 rax, rcx
  00069	c6 00 00	 mov	 BYTE PTR [rax], 0
  0006c	48 8b 44 24 20	 mov	 rax, QWORD PTR pos$[rsp]
  00071	48 83 c0 01	 add	 rax, 1
  00075	48 89 44 24 20	 mov	 QWORD PTR pos$[rsp], rax

; 186  : 	}

  0007a	eb bd		 jmp	 SHORT $LN6@lzma_sha25
$LN5@lzma_sha25:

; 187  : 
; 188  : 	// Convert the message size from bytes to bits.
; 189  : 	check->state.sha256.size *= 8;

  0007c	48 8b 4c 24 40	 mov	 rcx, QWORD PTR check$[rsp]
  00081	48 8b 49 60	 mov	 rcx, QWORD PTR [rcx+96]
  00085	48 c1 e1 03	 shl	 rcx, 3
  00089	48 8b 44 24 40	 mov	 rax, QWORD PTR check$[rsp]
  0008e	48 89 48 60	 mov	 QWORD PTR [rax+96], rcx

; 190  : 
; 191  : 	check->buffer.u64[(64 - 8) / 8] = conv64be(check->state.sha256.size);

  00092	48 8b 54 24 40	 mov	 rdx, QWORD PTR check$[rsp]
  00097	48 8b 52 60	 mov	 rdx, QWORD PTR [rdx+96]
  0009b	48 c1 e2 38	 shl	 rdx, 56			; 00000038H
  0009f	48 8b 44 24 40	 mov	 rax, QWORD PTR check$[rsp]
  000a4	48 8b 40 60	 mov	 rax, QWORD PTR [rax+96]
  000a8	48 c1 e0 28	 shl	 rax, 40			; 00000028H
  000ac	48 b9 00 00 00
	00 00 00 ff 00	 mov	 rcx, 71776119061217280	; 00ff000000000000H
  000b6	48 23 c1	 and	 rax, rcx
  000b9	48 0b d0	 or	 rdx, rax
  000bc	48 8b 44 24 40	 mov	 rax, QWORD PTR check$[rsp]
  000c1	48 8b 40 60	 mov	 rax, QWORD PTR [rax+96]
  000c5	48 c1 e0 18	 shl	 rax, 24
  000c9	48 b9 00 00 00
	00 00 ff 00 00	 mov	 rcx, 280375465082880	; 0000ff0000000000H
  000d3	48 23 c1	 and	 rax, rcx
  000d6	48 0b d0	 or	 rdx, rax
  000d9	48 8b 44 24 40	 mov	 rax, QWORD PTR check$[rsp]
  000de	48 8b 40 60	 mov	 rax, QWORD PTR [rax+96]
  000e2	48 c1 e0 08	 shl	 rax, 8
  000e6	48 b9 00 00 00
	00 ff 00 00 00	 mov	 rcx, 1095216660480	; 000000ff00000000H
  000f0	48 23 c1	 and	 rax, rcx
  000f3	48 0b d0	 or	 rdx, rax
  000f6	48 8b 44 24 40	 mov	 rax, QWORD PTR check$[rsp]
  000fb	48 8b 40 60	 mov	 rax, QWORD PTR [rax+96]
  000ff	48 c1 e8 08	 shr	 rax, 8
  00103	b9 00 00 00 ff	 mov	 ecx, -16777216		; ff000000H
  00108	48 23 c1	 and	 rax, rcx
  0010b	48 8b ca	 mov	 rcx, rdx
  0010e	48 0b c8	 or	 rcx, rax
  00111	48 8b 44 24 40	 mov	 rax, QWORD PTR check$[rsp]
  00116	48 8b 40 60	 mov	 rax, QWORD PTR [rax+96]
  0011a	48 c1 e8 18	 shr	 rax, 24
  0011e	48 25 00 00 ff
	00		 and	 rax, 16711680		; 00ff0000H
  00124	48 0b c8	 or	 rcx, rax
  00127	48 8b 44 24 40	 mov	 rax, QWORD PTR check$[rsp]
  0012c	48 8b 40 60	 mov	 rax, QWORD PTR [rax+96]
  00130	48 c1 e8 28	 shr	 rax, 40			; 00000028H
  00134	48 25 00 ff 00
	00		 and	 rax, 65280		; 0000ff00H
  0013a	48 0b c8	 or	 rcx, rax
  0013d	48 8b 44 24 40	 mov	 rax, QWORD PTR check$[rsp]
  00142	48 8b 40 60	 mov	 rax, QWORD PTR [rax+96]
  00146	48 c1 e8 38	 shr	 rax, 56			; 00000038H
  0014a	48 0b c8	 or	 rcx, rax
  0014d	48 8b 44 24 40	 mov	 rax, QWORD PTR check$[rsp]
  00152	48 89 48 38	 mov	 QWORD PTR [rax+56], rcx

; 192  : 
; 193  : 	process(check);

  00156	48 8b 4c 24 40	 mov	 rcx, QWORD PTR check$[rsp]
  0015b	e8 00 00 00 00	 call	 process

; 194  : 
; 195  :   { size_t i;
; 196  : 
; 197  : 	for (i = 0; i < 8; ++i)

  00160	48 c7 44 24 28
	00 00 00 00	 mov	 QWORD PTR i$32978[rsp], 0
  00169	eb 0e		 jmp	 SHORT $LN3@lzma_sha25
$LN2@lzma_sha25:
  0016b	48 8b 44 24 28	 mov	 rax, QWORD PTR i$32978[rsp]
  00170	48 83 c0 01	 add	 rax, 1
  00174	48 89 44 24 28	 mov	 QWORD PTR i$32978[rsp], rax
$LN3@lzma_sha25:
  00179	48 83 7c 24 28
	08		 cmp	 QWORD PTR i$32978[rsp], 8
  0017f	73 63		 jae	 SHORT $LN1@lzma_sha25

; 198  : 		check->buffer.u32[i] = conv32be(check->state.sha256.state[i]);

  00181	48 8b 4c 24 40	 mov	 rcx, QWORD PTR check$[rsp]
  00186	48 8b 44 24 28	 mov	 rax, QWORD PTR i$32978[rsp]
  0018b	8b 54 81 40	 mov	 edx, DWORD PTR [rcx+rax*4+64]
  0018f	c1 e2 18	 shl	 edx, 24
  00192	48 8b 4c 24 40	 mov	 rcx, QWORD PTR check$[rsp]
  00197	48 8b 44 24 28	 mov	 rax, QWORD PTR i$32978[rsp]
  0019c	8b 44 81 40	 mov	 eax, DWORD PTR [rcx+rax*4+64]
  001a0	c1 e0 08	 shl	 eax, 8
  001a3	25 00 00 ff 00	 and	 eax, 16711680		; 00ff0000H
  001a8	0b d0		 or	 edx, eax
  001aa	48 8b 4c 24 40	 mov	 rcx, QWORD PTR check$[rsp]
  001af	48 8b 44 24 28	 mov	 rax, QWORD PTR i$32978[rsp]
  001b4	8b 44 81 40	 mov	 eax, DWORD PTR [rcx+rax*4+64]
  001b8	c1 e8 08	 shr	 eax, 8
  001bb	25 00 ff 00 00	 and	 eax, 65280		; 0000ff00H
  001c0	0b d0		 or	 edx, eax
  001c2	48 8b 4c 24 40	 mov	 rcx, QWORD PTR check$[rsp]
  001c7	48 8b 44 24 28	 mov	 rax, QWORD PTR i$32978[rsp]
  001cc	8b 44 81 40	 mov	 eax, DWORD PTR [rcx+rax*4+64]
  001d0	c1 e8 18	 shr	 eax, 24
  001d3	0b d0		 or	 edx, eax
  001d5	48 8b 4c 24 40	 mov	 rcx, QWORD PTR check$[rsp]
  001da	48 8b 44 24 28	 mov	 rax, QWORD PTR i$32978[rsp]
  001df	89 14 81	 mov	 DWORD PTR [rcx+rax*4], edx
  001e2	eb 87		 jmp	 SHORT $LN2@lzma_sha25
$LN1@lzma_sha25:

; 199  :   }
; 200  : 
; 201  : 	return;
; 202  : }

  001e4	48 83 c4 38	 add	 rsp, 56			; 00000038H
  001e8	c3		 ret	 0
lzma_sha256_finish ENDP
_TEXT	ENDS
PUBLIC	lzma_sha256_update
;	COMDAT pdata
pdata	SEGMENT
$pdata$lzma_sha256_update DD imagerel $LN7
	DD	imagerel $LN7+211
	DD	imagerel $unwind$lzma_sha256_update
pdata	ENDS
;	COMDAT xdata
xdata	SEGMENT
$unwind$lzma_sha256_update DD 011301H
	DD	06213H
; Function compile flags: /Odtp
xdata	ENDS
;	COMDAT lzma_sha256_update
_TEXT	SEGMENT
copy_size$32959 = 32
copy_start$32958 = 40
buf$ = 64
size$ = 72
check$ = 80
lzma_sha256_update PROC					; COMDAT

; 146  : {

$LN7:
  00000	4c 89 44 24 18	 mov	 QWORD PTR [rsp+24], r8
  00005	48 89 54 24 10	 mov	 QWORD PTR [rsp+16], rdx
  0000a	48 89 4c 24 08	 mov	 QWORD PTR [rsp+8], rcx
  0000f	48 83 ec 38	 sub	 rsp, 56			; 00000038H
$LN4@lzma_sha25@2:

; 147  : 	// Copy the input data into a properly aligned temporary buffer.
; 148  : 	// This way we can be called with arbitrarily sized buffers
; 149  : 	// (no need to be multiple of 64 bytes), and the code works also
; 150  : 	// on architectures that don't allow unaligned memory access.
; 151  : 	while (size > 0) {

  00013	48 83 7c 24 48
	00		 cmp	 QWORD PTR size$[rsp], 0
  00019	0f 86 af 00 00
	00		 jbe	 $LN3@lzma_sha25@2

; 152  : 		const size_t copy_start = check->state.sha256.size & 0x3F;

  0001f	48 8b 44 24 50	 mov	 rax, QWORD PTR check$[rsp]
  00024	48 8b 40 60	 mov	 rax, QWORD PTR [rax+96]
  00028	48 83 e0 3f	 and	 rax, 63			; 0000003fH
  0002c	48 89 44 24 28	 mov	 QWORD PTR copy_start$32958[rsp], rax

; 153  : 		size_t copy_size = 64 - copy_start;

  00031	b8 40 00 00 00	 mov	 eax, 64			; 00000040H
  00036	48 2b 44 24 28	 sub	 rax, QWORD PTR copy_start$32958[rsp]
  0003b	48 89 44 24 20	 mov	 QWORD PTR copy_size$32959[rsp], rax

; 154  : 		if (copy_size > size)

  00040	48 8b 44 24 48	 mov	 rax, QWORD PTR size$[rsp]
  00045	48 39 44 24 20	 cmp	 QWORD PTR copy_size$32959[rsp], rax
  0004a	76 0a		 jbe	 SHORT $LN2@lzma_sha25@2

; 155  : 			copy_size = size;

  0004c	48 8b 44 24 48	 mov	 rax, QWORD PTR size$[rsp]
  00051	48 89 44 24 20	 mov	 QWORD PTR copy_size$32959[rsp], rax
$LN2@lzma_sha25@2:

; 156  : 
; 157  : 		memcpy(check->buffer.u8 + copy_start, buf, copy_size);

  00056	48 8b 44 24 28	 mov	 rax, QWORD PTR copy_start$32958[rsp]
  0005b	48 8b 4c 24 50	 mov	 rcx, QWORD PTR check$[rsp]
  00060	48 03 c8	 add	 rcx, rax
  00063	4c 8b 44 24 20	 mov	 r8, QWORD PTR copy_size$32959[rsp]
  00068	48 8b 54 24 40	 mov	 rdx, QWORD PTR buf$[rsp]
  0006d	e8 00 00 00 00	 call	 memcpy

; 158  : 
; 159  : 		buf += copy_size;

  00072	4c 8b 5c 24 20	 mov	 r11, QWORD PTR copy_size$32959[rsp]
  00077	48 8b 44 24 40	 mov	 rax, QWORD PTR buf$[rsp]
  0007c	49 03 c3	 add	 rax, r11
  0007f	48 89 44 24 40	 mov	 QWORD PTR buf$[rsp], rax

; 160  : 		size -= copy_size;

  00084	48 8b 4c 24 20	 mov	 rcx, QWORD PTR copy_size$32959[rsp]
  00089	48 8b 44 24 48	 mov	 rax, QWORD PTR size$[rsp]
  0008e	48 2b c1	 sub	 rax, rcx
  00091	48 89 44 24 48	 mov	 QWORD PTR size$[rsp], rax

; 161  : 		check->state.sha256.size += copy_size;

  00096	48 8b 4c 24 50	 mov	 rcx, QWORD PTR check$[rsp]
  0009b	48 8b 49 60	 mov	 rcx, QWORD PTR [rcx+96]
  0009f	48 03 4c 24 20	 add	 rcx, QWORD PTR copy_size$32959[rsp]
  000a4	48 8b 44 24 50	 mov	 rax, QWORD PTR check$[rsp]
  000a9	48 89 48 60	 mov	 QWORD PTR [rax+96], rcx

; 162  : 
; 163  : 		if ((check->state.sha256.size & 0x3F) == 0)

  000ad	48 8b 44 24 50	 mov	 rax, QWORD PTR check$[rsp]
  000b2	48 8b 40 60	 mov	 rax, QWORD PTR [rax+96]
  000b6	48 83 e0 3f	 and	 rax, 63			; 0000003fH
  000ba	48 85 c0	 test	 rax, rax
  000bd	75 0a		 jne	 SHORT $LN1@lzma_sha25@2

; 164  : 			process(check);

  000bf	48 8b 4c 24 50	 mov	 rcx, QWORD PTR check$[rsp]
  000c4	e8 00 00 00 00	 call	 process
$LN1@lzma_sha25@2:

; 165  : 	}

  000c9	e9 45 ff ff ff	 jmp	 $LN4@lzma_sha25@2
$LN3@lzma_sha25@2:

; 166  : 
; 167  : 	return;
; 168  : }

  000ce	48 83 c4 38	 add	 rsp, 56			; 00000038H
  000d2	c3		 ret	 0
lzma_sha256_update ENDP
END
