; Listing generated by Microsoft (R) Optimizing Compiler Version 15.00.30729.01 

	TITLE	d:\SDK\C\Library\Algorithms\Information theory and signal processing\Coding theory\Lossless compression algorithms\Dictionary coders\Lempel?Ziv\Lempel?Ziv?Markov chain (LZMA)\xz\src\c89\liblzma\check\crc64_table.c
	.686P
	.XMM
	include listing.inc
	.model	flat

INCLUDELIB OLDNAMES

PUBLIC	_lzma_crc64_table
_lzma_crc64_table DQ 0000000000000000H
	DQ	b32e4cbe03a75f6fH
	DQ	f4843657a840a05bH
	DQ	47aa7ae9abe7ff34H
	DQ	7bd0c384ff8f5e33H
	DQ	c8fe8f3afc28015cH
	DQ	8f54f5d357cffe68H
	DQ	3c7ab96d5468a107H
	DQ	f7a18709ff1ebc66H
	DQ	448fcbb7fcb9e309H
	DQ	0325b15e575e1c3dH
	DQ	b00bfde054f94352H
	DQ	8c71448d0091e255H
	DQ	3f5f08330336bd3aH
	DQ	78f572daa8d1420eH
	DQ	cbdb3e64ab761d61H
	DQ	7d9ba13851336649H
	DQ	ceb5ed8652943926H
	DQ	891f976ff973c612H
	DQ	3a31dbd1fad4997dH
	DQ	064b62bcaebc387aH
	DQ	b5652e02ad1b6715H
	DQ	f2cf54eb06fc9821H
	DQ	41e11855055bc74eH
	DQ	8a3a2631ae2dda2fH
	DQ	39146a8fad8a8540H
	DQ	7ebe1066066d7a74H
	DQ	cd905cd805ca251bH
	DQ	f1eae5b551a2841cH
	DQ	42c4a90b5205db73H
	DQ	056ed3e2f9e22447H
	DQ	b6409f5cfa457b28H
	DQ	fb374270a266cc92H
	DQ	48190ecea1c193fdH
	DQ	0fb374270a266cc9H
	DQ	bc9d3899098133a6H
	DQ	80e781f45de992a1H
	DQ	33c9cd4a5e4ecdceH
	DQ	7463b7a3f5a932faH
	DQ	c74dfb1df60e6d95H
	DQ	0c96c5795d7870f4H
	DQ	bfb889c75edf2f9bH
	DQ	f812f32ef538d0afH
	DQ	4b3cbf90f69f8fc0H
	DQ	774606fda2f72ec7H
	DQ	c4684a43a15071a8H
	DQ	83c230aa0ab78e9cH
	DQ	30ec7c140910d1f3H
	DQ	86ace348f355aadbH
	DQ	3582aff6f0f2f5b4H
	DQ	7228d51f5b150a80H
	DQ	c10699a158b255efH
	DQ	fd7c20cc0cdaf4e8H
	DQ	4e526c720f7dab87H
	DQ	09f8169ba49a54b3H
	DQ	bad65a25a73d0bdcH
	DQ	710d64410c4b16bdH
	DQ	c22328ff0fec49d2H
	DQ	85895216a40bb6e6H
	DQ	36a71ea8a7ace989H
	DQ	0adda7c5f3c4488eH
	DQ	b9f3eb7bf06317e1H
	DQ	fe5991925b84e8d5H
	DQ	4d77dd2c5823b7baH
	DQ	64b62bcaebc387a1H
	DQ	d7986774e864d8ceH
	DQ	90321d9d438327faH
	DQ	231c512340247895H
	DQ	1f66e84e144cd992H
	DQ	ac48a4f017eb86fdH
	DQ	ebe2de19bc0c79c9H
	DQ	58cc92a7bfab26a6H
	DQ	9317acc314dd3bc7H
	DQ	2039e07d177a64a8H
	DQ	67939a94bc9d9b9cH
	DQ	d4bdd62abf3ac4f3H
	DQ	e8c76f47eb5265f4H
	DQ	5be923f9e8f53a9bH
	DQ	1c4359104312c5afH
	DQ	af6d15ae40b59ac0H
	DQ	192d8af2baf0e1e8H
	DQ	aa03c64cb957be87H
	DQ	eda9bca512b041b3H
	DQ	5e87f01b11171edcH
	DQ	62fd4976457fbfdbH
	DQ	d1d305c846d8e0b4H
	DQ	96797f21ed3f1f80H
	DQ	2557339fee9840efH
	DQ	ee8c0dfb45ee5d8eH
	DQ	5da24145464902e1H
	DQ	1a083bacedaefdd5H
	DQ	a9267712ee09a2baH
	DQ	955cce7fba6103bdH
	DQ	267282c1b9c65cd2H
	DQ	61d8f8281221a3e6H
	DQ	d2f6b4961186fc89H
	DQ	9f8169ba49a54b33H
	DQ	2caf25044a02145cH
	DQ	6b055fede1e5eb68H
	DQ	d82b1353e242b407H
	DQ	e451aa3eb62a1500H
	DQ	577fe680b58d4a6fH
	DQ	10d59c691e6ab55bH
	DQ	a3fbd0d71dcdea34H
	DQ	6820eeb3b6bbf755H
	DQ	db0ea20db51ca83aH
	DQ	9ca4d8e41efb570eH
	DQ	2f8a945a1d5c0861H
	DQ	13f02d374934a966H
	DQ	a0de61894a93f609H
	DQ	e7741b60e174093dH
	DQ	545a57dee2d35652H
	DQ	e21ac88218962d7aH
	DQ	5134843c1b317215H
	DQ	169efed5b0d68d21H
	DQ	a5b0b26bb371d24eH
	DQ	99ca0b06e7197349H
	DQ	2ae447b8e4be2c26H
	DQ	6d4e3d514f59d312H
	DQ	de6071ef4cfe8c7dH
	DQ	15bb4f8be788911cH
	DQ	a6950335e42fce73H
	DQ	e13f79dc4fc83147H
	DQ	521135624c6f6e28H
	DQ	6e6b8c0f1807cf2fH
	DQ	dd45c0b11ba09040H
	DQ	9aefba58b0476f74H
	DQ	29c1f6e6b3e0301bH
	DQ	c96c5795d7870f42H
	DQ	7a421b2bd420502dH
	DQ	3de861c27fc7af19H
	DQ	8ec62d7c7c60f076H
	DQ	b2bc941128085171H
	DQ	0192d8af2baf0e1eH
	DQ	4638a2468048f12aH
	DQ	f516eef883efae45H
	DQ	3ecdd09c2899b324H
	DQ	8de39c222b3eec4bH
	DQ	ca49e6cb80d9137fH
	DQ	7967aa75837e4c10H
	DQ	451d1318d716ed17H
	DQ	f6335fa6d4b1b278H
	DQ	b199254f7f564d4cH
	DQ	02b769f17cf11223H
	DQ	b4f7f6ad86b4690bH
	DQ	07d9ba1385133664H
	DQ	4073c0fa2ef4c950H
	DQ	f35d8c442d53963fH
	DQ	cf273529793b3738H
	DQ	7c0979977a9c6857H
	DQ	3ba3037ed17b9763H
	DQ	888d4fc0d2dcc80cH
	DQ	435671a479aad56dH
	DQ	f0783d1a7a0d8a02H
	DQ	b7d247f3d1ea7536H
	DQ	04fc0b4dd24d2a59H
	DQ	3886b22086258b5eH
	DQ	8ba8fe9e8582d431H
	DQ	cc0284772e652b05H
	DQ	7f2cc8c92dc2746aH
	DQ	325b15e575e1c3d0H
	DQ	8175595b76469cbfH
	DQ	c6df23b2dda1638bH
	DQ	75f16f0cde063ce4H
	DQ	498bd6618a6e9de3H
	DQ	faa59adf89c9c28cH
	DQ	bd0fe036222e3db8H
	DQ	0e21ac88218962d7H
	DQ	c5fa92ec8aff7fb6H
	DQ	76d4de52895820d9H
	DQ	317ea4bb22bfdfedH
	DQ	8250e80521188082H
	DQ	be2a516875702185H
	DQ	0d041dd676d77eeaH
	DQ	4aae673fdd3081deH
	DQ	f9802b81de97deb1H
	DQ	4fc0b4dd24d2a599H
	DQ	fceef8632775faf6H
	DQ	bb44828a8c9205c2H
	DQ	086ace348f355aadH
	DQ	34107759db5dfbaaH
	DQ	873e3be7d8faa4c5H
	DQ	c094410e731d5bf1H
	DQ	73ba0db070ba049eH
	DQ	b86133d4dbcc19ffH
	DQ	0b4f7f6ad86b4690H
	DQ	4ce50583738cb9a4H
	DQ	ffcb493d702be6cbH
	DQ	c3b1f050244347ccH
	DQ	709fbcee27e418a3H
	DQ	3735c6078c03e797H
	DQ	841b8ab98fa4b8f8H
	DQ	adda7c5f3c4488e3H
	DQ	1ef430e13fe3d78cH
	DQ	595e4a08940428b8H
	DQ	ea7006b697a377d7H
	DQ	d60abfdbc3cbd6d0H
	DQ	6524f365c06c89bfH
	DQ	228e898c6b8b768bH
	DQ	91a0c532682c29e4H
	DQ	5a7bfb56c35a3485H
	DQ	e955b7e8c0fd6beaH
	DQ	aeffcd016b1a94deH
	DQ	1dd181bf68bdcbb1H
	DQ	21ab38d23cd56ab6H
	DQ	9285746c3f7235d9H
	DQ	d52f0e859495caedH
	DQ	6601423b97329582H
	DQ	d041dd676d77eeaaH
	DQ	636f91d96ed0b1c5H
	DQ	24c5eb30c5374ef1H
	DQ	97eba78ec690119eH
	DQ	ab911ee392f8b099H
	DQ	18bf525d915feff6H
	DQ	5f1528b43ab810c2H
	DQ	ec3b640a391f4fadH
	DQ	27e05a6e926952ccH
	DQ	94ce16d091ce0da3H
	DQ	d3646c393a29f297H
	DQ	604a2087398eadf8H
	DQ	5c3099ea6de60cffH
	DQ	ef1ed5546e415390H
	DQ	a8b4afbdc5a6aca4H
	DQ	1b9ae303c601f3cbH
	DQ	56ed3e2f9e224471H
	DQ	e5c372919d851b1eH
	DQ	a26908783662e42aH
	DQ	114744c635c5bb45H
	DQ	2d3dfdab61ad1a42H
	DQ	9e13b115620a452dH
	DQ	d9b9cbfcc9edba19H
	DQ	6a978742ca4ae576H
	DQ	a14cb926613cf817H
	DQ	1262f598629ba778H
	DQ	55c88f71c97c584cH
	DQ	e6e6c3cfcadb0723H
	DQ	da9c7aa29eb3a624H
	DQ	69b2361c9d14f94bH
	DQ	2e184cf536f3067fH
	DQ	9d36004b35545910H
	DQ	2b769f17cf112238H
	DQ	9858d3a9ccb67d57H
	DQ	dff2a94067518263H
	DQ	6cdce5fe64f6dd0cH
	DQ	50a65c93309e7c0bH
	DQ	e388102d33392364H
	DQ	a4226ac498dedc50H
	DQ	170c267a9b79833fH
	DQ	dcd7181e300f9e5eH
	DQ	6ff954a033a8c131H
	DQ	28532e49984f3e05H
	DQ	9b7d62f79be8616aH
	DQ	a707db9acf80c06dH
	DQ	14299724cc279f02H
	DQ	5383edcd67c06036H
	DQ	e0ada17364673f59H
	DQ	0000000000000000H
	DQ	54e979925cd0f10dH
	DQ	a9d2f324b9a1e21aH
	DQ	fd3b8ab6e5711317H
	DQ	c17d4962dc4ddab1H
	DQ	959430f0809d2bbcH
	DQ	68afba4665ec38abH
	DQ	3c46c3d4393cc9a6H
	DQ	10223dee1795abe7H
	DQ	44cb447c4b455aeaH
	DQ	b9f0cecaae3449fdH
	DQ	ed19b758f2e4b8f0H
	DQ	d15f748ccbd87156H
	DQ	85b60d1e9708805bH
	DQ	788d87a87279934cH
	DQ	2c64fe3a2ea96241H
	DQ	20447bdc2f2b57ceH
	DQ	74ad024e73fba6c3H
	DQ	899688f8968ab5d4H
	DQ	dd7ff16aca5a44d9H
	DQ	e13932bef3668d7fH
	DQ	b5d04b2cafb67c72H
	DQ	48ebc19a4ac76f65H
	DQ	1c02b80816179e68H
	DQ	3066463238befc29H
	DQ	648f3fa0646e0d24H
	DQ	99b4b516811f1e33H
	DQ	cd5dcc84ddcfef3eH
	DQ	f11b0f50e4f32698H
	DQ	a5f276c2b823d795H
	DQ	58c9fc745d52c482H
	DQ	0c2085e60182358fH
	DQ	4088f7b85e56af9cH
	DQ	14618e2a02865e91H
	DQ	e95a049ce7f74d86H
	DQ	bdb37d0ebb27bc8bH
	DQ	81f5beda821b752dH
	DQ	d51cc748decb8420H
	DQ	28274dfe3bba9737H
	DQ	7cce346c676a663aH
	DQ	50aaca5649c3047bH
	DQ	0443b3c41513f576H
	DQ	f9783972f062e661H
	DQ	ad9140e0acb2176cH
	DQ	91d78334958edecaH
	DQ	c53efaa6c95e2fc7H
	DQ	380570102c2f3cd0H
	DQ	6cec098270ffcdddH
	DQ	60cc8c64717df852H
	DQ	3425f5f62dad095fH
	DQ	c91e7f40c8dc1a48H
	DQ	9df706d2940ceb45H
	DQ	a1b1c506ad3022e3H
	DQ	f558bc94f1e0d3eeH
	DQ	086336221491c0f9H
	DQ	5c8a4fb0484131f4H
	DQ	70eeb18a66e853b5H
	DQ	2407c8183a38a2b8H
	DQ	d93c42aedf49b1afH
	DQ	8dd53b3c839940a2H
	DQ	b193f8e8baa58904H
	DQ	e57a817ae6757809H
	DQ	18410bcc03046b1eH
	DQ	4ca8725e5fd49a13H
	DQ	8111ef70bcad5f38H
	DQ	d5f896e2e07dae35H
	DQ	28c31c54050cbd22H
	DQ	7c2a65c659dc4c2fH
	DQ	406ca61260e08589H
	DQ	1485df803c307484H
	DQ	e9be5536d9416793H
	DQ	bd572ca48591969eH
	DQ	9133d29eab38f4dfH
	DQ	c5daab0cf7e805d2H
	DQ	38e121ba129916c5H
	DQ	6c0858284e49e7c8H
	DQ	504e9bfc77752e6eH
	DQ	04a7e26e2ba5df63H
	DQ	f99c68d8ced4cc74H
	DQ	ad75114a92043d79H
	DQ	a15594ac938608f6H
	DQ	f5bced3ecf56f9fbH
	DQ	088767882a27eaecH
	DQ	5c6e1e1a76f71be1H
	DQ	6028ddce4fcbd247H
	DQ	34c1a45c131b234aH
	DQ	c9fa2eeaf66a305dH
	DQ	9d135778aabac150H
	DQ	b177a9428413a311H
	DQ	e59ed0d0d8c3521cH
	DQ	18a55a663db2410bH
	DQ	4c4c23f46162b006H
	DQ	700ae020585e79a0H
	DQ	24e399b2048e88adH
	DQ	d9d81304e1ff9bbaH
	DQ	8d316a96bd2f6ab7H
	DQ	c19918c8e2fbf0a4H
	DQ	9570615abe2b01a9H
	DQ	684bebec5b5a12beH
	DQ	3ca2927e078ae3b3H
	DQ	00e451aa3eb62a15H
	DQ	540d28386266db18H
	DQ	a936a28e8717c80fH
	DQ	fddfdb1cdbc73902H
	DQ	d1bb2526f56e5b43H
	DQ	85525cb4a9beaa4eH
	DQ	7869d6024ccfb959H
	DQ	2c80af90101f4854H
	DQ	10c66c44292381f2H
	DQ	442f15d675f370ffH
	DQ	b9149f60908263e8H
	DQ	edfde6f2cc5292e5H
	DQ	e1dd6314cdd0a76aH
	DQ	b5341a8691005667H
	DQ	480f903074714570H
	DQ	1ce6e9a228a1b47dH
	DQ	20a02a76119d7ddbH
	DQ	744953e44d4d8cd6H
	DQ	8972d952a83c9fc1H
	DQ	dd9ba0c0f4ec6eccH
	DQ	f1ff5efada450c8dH
	DQ	a51627688695fd80H
	DQ	582dadde63e4ee97H
	DQ	0cc4d44c3f341f9aH
	DQ	308217980608d63cH
	DQ	646b6e0a5ad82731H
	DQ	9950e4bcbfa93426H
	DQ	cdb99d2ee379c52bH
	DQ	90fb71cad654a0f5H
	DQ	c41208588a8451f8H
	DQ	392982ee6ff542efH
	DQ	6dc0fb7c3325b3e2H
	DQ	518638a80a197a44H
	DQ	056f413a56c98b49H
	DQ	f854cb8cb3b8985eH
	DQ	acbdb21eef686953H
	DQ	80d94c24c1c10b12H
	DQ	d43035b69d11fa1fH
	DQ	290bbf007860e908H
	DQ	7de2c69224b01805H
	DQ	41a405461d8cd1a3H
	DQ	154d7cd4415c20aeH
	DQ	e876f662a42d33b9H
	DQ	bc9f8ff0f8fdc2b4H
	DQ	b0bf0a16f97ff73bH
	DQ	e4567384a5af0636H
	DQ	196df93240de1521H
	DQ	4d8480a01c0ee42cH
	DQ	71c2437425322d8aH
	DQ	252b3ae679e2dc87H
	DQ	d810b0509c93cf90H
	DQ	8cf9c9c2c0433e9dH
	DQ	a09d37f8eeea5cdcH
	DQ	f4744e6ab23aadd1H
	DQ	094fc4dc574bbec6H
	DQ	5da6bd4e0b9b4fcbH
	DQ	61e07e9a32a7866dH
	DQ	350907086e777760H
	DQ	c8328dbe8b066477H
	DQ	9cdbf42cd7d6957aH
	DQ	d073867288020f69H
	DQ	849affe0d4d2fe64H
	DQ	79a1755631a3ed73H
	DQ	2d480cc46d731c7eH
	DQ	110ecf10544fd5d8H
	DQ	45e7b682089f24d5H
	DQ	b8dc3c34edee37c2H
	DQ	ec3545a6b13ec6cfH
	DQ	c051bb9c9f97a48eH
	DQ	94b8c20ec3475583H
	DQ	698348b826364694H
	DQ	3d6a312a7ae6b799H
	DQ	012cf2fe43da7e3fH
	DQ	55c58b6c1f0a8f32H
	DQ	a8fe01dafa7b9c25H
	DQ	fc177848a6ab6d28H
	DQ	f037fdaea72958a7H
	DQ	a4de843cfbf9a9aaH
	DQ	59e50e8a1e88babdH
	DQ	0d0c771842584bb0H
	DQ	314ab4cc7b648216H
	DQ	65a3cd5e27b4731bH
	DQ	989847e8c2c5600cH
	DQ	cc713e7a9e159101H
	DQ	e015c040b0bcf340H
	DQ	b4fcb9d2ec6c024dH
	DQ	49c73364091d115aH
	DQ	1d2e4af655cde057H
	DQ	216889226cf129f1H
	DQ	7581f0b03021d8fcH
	DQ	88ba7a06d550cbebH
	DQ	dc53039489803ae6H
	DQ	11ea9eba6af9ffcdH
	DQ	4503e72836290ec0H
	DQ	b8386d9ed3581dd7H
	DQ	ecd1140c8f88ecdaH
	DQ	d097d7d8b6b4257cH
	DQ	847eae4aea64d471H
	DQ	794524fc0f15c766H
	DQ	2dac5d6e53c5366bH
	DQ	01c8a3547d6c542aH
	DQ	5521dac621bca527H
	DQ	a81a5070c4cdb630H
	DQ	fcf329e2981d473dH
	DQ	c0b5ea36a1218e9bH
	DQ	945c93a4fdf17f96H
	DQ	6967191218806c81H
	DQ	3d8e608044509d8cH
	DQ	31aee56645d2a803H
	DQ	65479cf41902590eH
	DQ	987c1642fc734a19H
	DQ	cc956fd0a0a3bb14H
	DQ	f0d3ac04999f72b2H
	DQ	a43ad596c54f83bfH
	DQ	59015f20203e90a8H
	DQ	0de826b27cee61a5H
	DQ	218cd888524703e4H
	DQ	7565a11a0e97f2e9H
	DQ	885e2bacebe6e1feH
	DQ	dcb7523eb73610f3H
	DQ	e0f191ea8e0ad955H
	DQ	b418e878d2da2858H
	DQ	492362ce37ab3b4fH
	DQ	1dca1b5c6b7bca42H
	DQ	5162690234af5051H
	DQ	058b1090687fa15cH
	DQ	f8b09a268d0eb24bH
	DQ	ac59e3b4d1de4346H
	DQ	901f2060e8e28ae0H
	DQ	c4f659f2b4327bedH
	DQ	39cdd344514368faH
	DQ	6d24aad60d9399f7H
	DQ	414054ec233afbb6H
	DQ	15a92d7e7fea0abbH
	DQ	e892a7c89a9b19acH
	DQ	bc7bde5ac64be8a1H
	DQ	803d1d8eff772107H
	DQ	d4d4641ca3a7d00aH
	DQ	29efeeaa46d6c31dH
	DQ	7d0697381a063210H
	DQ	712612de1b84079fH
	DQ	25cf6b4c4754f692H
	DQ	d8f4e1faa225e585H
	DQ	8c1d9868fef51488H
	DQ	b05b5bbcc7c9dd2eH
	DQ	e4b2222e9b192c23H
	DQ	1989a8987e683f34H
	DQ	4d60d10a22b8ce39H
	DQ	61042f300c11ac78H
	DQ	35ed56a250c15d75H
	DQ	c8d6dc14b5b04e62H
	DQ	9c3fa586e960bf6fH
	DQ	a0796652d05c76c9H
	DQ	f4901fc08c8c87c4H
	DQ	09ab957669fd94d3H
	DQ	5d42ece4352d65deH
	DQ	0000000000000000H
	DQ	3f0be14a916a6dcbH
	DQ	7e17c29522d4db96H
	DQ	411c23dfb3beb65dH
	DQ	fc2f852a45a9b72cH
	DQ	c3246460d4c3dae7H
	DQ	823847bf677d6cbaH
	DQ	bd33a6f5f6170171H
	DQ	6a87a57f245d70ddH
	DQ	558c4435b5371d16H
	DQ	149067ea0689ab4bH
	DQ	2b9b86a097e3c680H
	DQ	96a8205561f4c7f1H
	DQ	a9a3c11ff09eaa3aH
	DQ	e8bfe2c043201c67H
	DQ	d7b4038ad24a71acH
	DQ	d50f4afe48bae1baH
	DQ	ea04abb4d9d08c71H
	DQ	ab18886b6a6e3a2cH
	DQ	94136921fb0457e7H
	DQ	2920cfd40d135696H
	DQ	162b2e9e9c793b5dH
	DQ	57370d412fc78d00H
	DQ	683cec0bbeade0cbH
	DQ	bf88ef816ce79167H
	DQ	80830ecbfd8dfcacH
	DQ	c19f2d144e334af1H
	DQ	fe94cc5edf59273aH
	DQ	43a76aab294e264bH
	DQ	7cac8be1b8244b80H
	DQ	3db0a83e0b9afdddH
	DQ	02bb49749af09016H
	DQ	38c63ad73e7bddf1H
	DQ	07cddb9daf11b03aH
	DQ	46d1f8421caf0667H
	DQ	79da19088dc56bacH
	DQ	c4e9bffd7bd26addH
	DQ	fbe25eb7eab80716H
	DQ	bafe7d685906b14bH
	DQ	85f59c22c86cdc80H
	DQ	52419fa81a26ad2cH
	DQ	6d4a7ee28b4cc0e7H
	DQ	2c565d3d38f276baH
	DQ	135dbc77a9981b71H
	DQ	ae6e1a825f8f1a00H
	DQ	9165fbc8cee577cbH
	DQ	d079d8177d5bc196H
	DQ	ef72395dec31ac5dH
	DQ	edc9702976c13c4bH
	DQ	d2c29163e7ab5180H
	DQ	93deb2bc5415e7ddH
	DQ	acd553f6c57f8a16H
	DQ	11e6f50333688b67H
	DQ	2eed1449a202e6acH
	DQ	6ff1379611bc50f1H
	DQ	50fad6dc80d63d3aH
	DQ	874ed556529c4c96H
	DQ	b845341cc3f6215dH
	DQ	f95917c370489700H
	DQ	c652f689e122facbH
	DQ	7b61507c1735fbbaH
	DQ	446ab136865f9671H
	DQ	057692e935e1202cH
	DQ	3a7d73a3a48b4de7H
	DQ	718c75ae7cf7bbe2H
	DQ	4e8794e4ed9dd629H
	DQ	0f9bb73b5e236074H
	DQ	30905671cf490dbfH
	DQ	8da3f084395e0cceH
	DQ	b2a811cea8346105H
	DQ	f3b432111b8ad758H
	DQ	ccbfd35b8ae0ba93H
	DQ	1b0bd0d158aacb3fH
	DQ	2400319bc9c0a6f4H
	DQ	651c12447a7e10a9H
	DQ	5a17f30eeb147d62H
	DQ	e72455fb1d037c13H
	DQ	d82fb4b18c6911d8H
	DQ	9933976e3fd7a785H
	DQ	a6387624aebdca4eH
	DQ	a4833f50344d5a58H
	DQ	9b88de1aa5273793H
	DQ	da94fdc5169981ceH
	DQ	e59f1c8f87f3ec05H
	DQ	58acba7a71e4ed74H
	DQ	67a75b30e08e80bfH
	DQ	26bb78ef533036e2H
	DQ	19b099a5c25a5b29H
	DQ	ce049a2f10102a85H
	DQ	f10f7b65817a474eH
	DQ	b01358ba32c4f113H
	DQ	8f18b9f0a3ae9cd8H
	DQ	322b1f0555b99da9H
	DQ	0d20fe4fc4d3f062H
	DQ	4c3cdd90776d463fH
	DQ	73373cdae6072bf4H
	DQ	494a4f79428c6613H
	DQ	7641ae33d3e60bd8H
	DQ	375d8dec6058bd85H
	DQ	08566ca6f132d04eH
	DQ	b565ca530725d13fH
	DQ	8a6e2b19964fbcf4H
	DQ	cb7208c625f10aa9H
	DQ	f479e98cb49b6762H
	DQ	23cdea0666d116ceH
	DQ	1cc60b4cf7bb7b05H
	DQ	5dda28934405cd58H
	DQ	62d1c9d9d56fa093H
	DQ	dfe26f2c2378a1e2H
	DQ	e0e98e66b212cc29H
	DQ	a1f5adb901ac7a74H
	DQ	9efe4cf390c617bfH
	DQ	9c4505870a3687a9H
	DQ	a34ee4cd9b5cea62H
	DQ	e252c71228e25c3fH
	DQ	dd592658b98831f4H
	DQ	606a80ad4f9f3085H
	DQ	5f6161e7def55d4eH
	DQ	1e7d42386d4beb13H
	DQ	2176a372fc2186d8H
	DQ	f6c2a0f82e6bf774H
	DQ	c9c941b2bf019abfH
	DQ	88d5626d0cbf2ce2H
	DQ	b7de83279dd54129H
	DQ	0aed25d26bc24058H
	DQ	35e6c498faa82d93H
	DQ	74fae74749169bceH
	DQ	4bf1060dd87cf605H
	DQ	e318eb5cf9ef77c4H
	DQ	dc130a1668851a0fH
	DQ	9d0f29c9db3bac52H
	DQ	a204c8834a51c199H
	DQ	1f376e76bc46c0e8H
	DQ	203c8f3c2d2cad23H
	DQ	6120ace39e921b7eH
	DQ	5e2b4da90ff876b5H
	DQ	899f4e23ddb20719H
	DQ	b694af694cd86ad2H
	DQ	f7888cb6ff66dc8fH
	DQ	c8836dfc6e0cb144H
	DQ	75b0cb09981bb035H
	DQ	4abb2a430971ddfeH
	DQ	0ba7099cbacf6ba3H
	DQ	34ace8d62ba50668H
	DQ	3617a1a2b155967eH
	DQ	091c40e8203ffbb5H
	DQ	4800633793814de8H
	DQ	770b827d02eb2023H
	DQ	ca382488f4fc2152H
	DQ	f533c5c265964c99H
	DQ	b42fe61dd628fac4H
	DQ	8b2407574742970fH
	DQ	5c9004dd9508e6a3H
	DQ	639be59704628b68H
	DQ	2287c648b7dc3d35H
	DQ	1d8c270226b650feH
	DQ	a0bf81f7d0a1518fH
	DQ	9fb460bd41cb3c44H
	DQ	dea84362f2758a19H
	DQ	e1a3a228631fe7d2H
	DQ	dbded18bc794aa35H
	DQ	e4d530c156fec7feH
	DQ	a5c9131ee54071a3H
	DQ	9ac2f254742a1c68H
	DQ	27f154a1823d1d19H
	DQ	18fab5eb135770d2H
	DQ	59e69634a0e9c68fH
	DQ	66ed777e3183ab44H
	DQ	b15974f4e3c9dae8H
	DQ	8e5295be72a3b723H
	DQ	cf4eb661c11d017eH
	DQ	f045572b50776cb5H
	DQ	4d76f1dea6606dc4H
	DQ	727d1094370a000fH
	DQ	3361334b84b4b652H
	DQ	0c6ad20115dedb99H
	DQ	0ed19b758f2e4b8fH
	DQ	31da7a3f1e442644H
	DQ	70c659e0adfa9019H
	DQ	4fcdb8aa3c90fdd2H
	DQ	f2fe1e5fca87fca3H
	DQ	cdf5ff155bed9168H
	DQ	8ce9dccae8532735H
	DQ	b3e23d8079394afeH
	DQ	64563e0aab733b52H
	DQ	5b5ddf403a195699H
	DQ	1a41fc9f89a7e0c4H
	DQ	254a1dd518cd8d0fH
	DQ	9879bb20eeda8c7eH
	DQ	a7725a6a7fb0e1b5H
	DQ	e66e79b5cc0e57e8H
	DQ	d96598ff5d643a23H
	DQ	92949ef28518cc26H
	DQ	ad9f7fb81472a1edH
	DQ	ec835c67a7cc17b0H
	DQ	d388bd2d36a67a7bH
	DQ	6ebb1bd8c0b17b0aH
	DQ	51b0fa9251db16c1H
	DQ	10acd94de265a09cH
	DQ	2fa73807730fcd57H
	DQ	f8133b8da145bcfbH
	DQ	c718dac7302fd130H
	DQ	8604f9188391676dH
	DQ	b90f185212fb0aa6H
	DQ	043cbea7e4ec0bd7H
	DQ	3b375fed7586661cH
	DQ	7a2b7c32c638d041H
	DQ	45209d785752bd8aH
	DQ	479bd40ccda22d9cH
	DQ	789035465cc84057H
	DQ	398c1699ef76f60aH
	DQ	0687f7d37e1c9bc1H
	DQ	bbb45126880b9ab0H
	DQ	84bfb06c1961f77bH
	DQ	c5a393b3aadf4126H
	DQ	faa872f93bb52cedH
	DQ	2d1c7173e9ff5d41H
	DQ	121790397895308aH
	DQ	530bb3e6cb2b86d7H
	DQ	6c0052ac5a41eb1cH
	DQ	d133f459ac56ea6dH
	DQ	ee3815133d3c87a6H
	DQ	af2436cc8e8231fbH
	DQ	902fd7861fe85c30H
	DQ	aa52a425bb6311d7H
	DQ	9559456f2a097c1cH
	DQ	d44566b099b7ca41H
	DQ	eb4e87fa08dda78aH
	DQ	567d210ffecaa6fbH
	DQ	6976c0456fa0cb30H
	DQ	286ae39adc1e7d6dH
	DQ	176102d04d7410a6H
	DQ	c0d5015a9f3e610aH
	DQ	ffdee0100e540cc1H
	DQ	bec2c3cfbdeaba9cH
	DQ	81c922852c80d757H
	DQ	3cfa8470da97d626H
	DQ	03f1653a4bfdbbedH
	DQ	42ed46e5f8430db0H
	DQ	7de6a7af6929607bH
	DQ	7f5deedbf3d9f06dH
	DQ	40560f9162b39da6H
	DQ	014a2c4ed10d2bfbH
	DQ	3e41cd0440674630H
	DQ	83726bf1b6704741H
	DQ	bc798abb271a2a8aH
	DQ	fd65a96494a49cd7H
	DQ	c26e482e05cef11cH
	DQ	15da4ba4d78480b0H
	DQ	2ad1aaee46eeed7bH
	DQ	6bcd8931f5505b26H
	DQ	54c6687b643a36edH
	DQ	e9f5ce8e922d379cH
	DQ	d6fe2fc403475a57H
	DQ	97e20c1bb0f9ec0aH
	DQ	a8e9ed51219381c1H
	DQ	0000000000000000H
	DQ	1dee8a5e222ca1dcH
	DQ	3bdd14bc445943b8H
	DQ	26339ee26675e264H
	DQ	77ba297888b28770H
	DQ	6a54a326aa9e26acH
	DQ	4c673dc4ccebc4c8H
	DQ	5189b79aeec76514H
	DQ	ef7452f111650ee0H
	DQ	f29ad8af3349af3cH
	DQ	d4a9464d553c4d58H
	DQ	c947cc137710ec84H
	DQ	98ce7b8999d78990H
	DQ	8520f1d7bbfb284cH
	DQ	a3136f35dd8eca28H
	DQ	befde56bffa26bf4H
	DQ	4c300ac98dc40345H
	DQ	51de8097afe8a299H
	DQ	77ed1e75c99d40fdH
	DQ	6a03942bebb1e121H
	DQ	3b8a23b105768435H
	DQ	2664a9ef275a25e9H
	DQ	0057370d412fc78dH
	DQ	1db9bd5363036651H
	DQ	a34458389ca10da5H
	DQ	beaad266be8dac79H
	DQ	98994c84d8f84e1dH
	DQ	8577c6dafad4efc1H
	DQ	d4fe714014138ad5H
	DQ	c910fb1e363f2b09H
	DQ	ef2365fc504ac96dH
	DQ	f2cdefa2726668b1H
	DQ	986015931b88068aH
	DQ	858e9fcd39a4a756H
	DQ	a3bd012f5fd14532H
	DQ	be538b717dfde4eeH
	DQ	efda3ceb933a81faH
	DQ	f234b6b5b1162026H
	DQ	d4072857d763c242H
	DQ	c9e9a209f54f639eH
	DQ	771447620aed086aH
	DQ	6afacd3c28c1a9b6H
	DQ	4cc953de4eb44bd2H
	DQ	5127d9806c98ea0eH
	DQ	00ae6e1a825f8f1aH
	DQ	1d40e444a0732ec6H
	DQ	3b737aa6c606cca2H
	DQ	269df0f8e42a6d7eH
	DQ	d4501f5a964c05cfH
	DQ	c9be9504b460a413H
	DQ	ef8d0be6d2154677H
	DQ	f26381b8f039e7abH
	DQ	a3ea36221efe82bfH
	DQ	be04bc7c3cd22363H
	DQ	9837229e5aa7c107H
	DQ	85d9a8c0788b60dbH
	DQ	3b244dab87290b2fH
	DQ	26cac7f5a505aaf3H
	DQ	00f95917c3704897H
	DQ	1d17d349e15ce94bH
	DQ	4c9e64d30f9b8c5fH
	DQ	5170ee8d2db72d83H
	DQ	7743706f4bc2cfe7H
	DQ	6aadfa3169ee6e3bH
	DQ	a218840d981e1391H
	DQ	bff60e53ba32b24dH
	DQ	99c590b1dc475029H
	DQ	842b1aeffe6bf1f5H
	DQ	d5a2ad7510ac94e1H
	DQ	c84c272b3280353dH
	DQ	ee7fb9c954f5d759H
	DQ	f391339776d97685H
	DQ	4d6cd6fc897b1d71H
	DQ	50825ca2ab57bcadH
	DQ	76b1c240cd225ec9H
	DQ	6b5f481eef0eff15H
	DQ	3ad6ff8401c99a01H
	DQ	273875da23e53bddH
	DQ	010beb384590d9b9H
	DQ	1ce5616667bc7865H
	DQ	ee288ec415da10d4H
	DQ	f3c6049a37f6b108H
	DQ	d5f59a785183536cH
	DQ	c81b102673aff2b0H
	DQ	9992a7bc9d6897a4H
	DQ	847c2de2bf443678H
	DQ	a24fb300d931d41cH
	DQ	bfa1395efb1d75c0H
	DQ	015cdc3504bf1e34H
	DQ	1cb2566b2693bfe8H
	DQ	3a81c88940e65d8cH
	DQ	276f42d762cafc50H
	DQ	76e6f54d8c0d9944H
	DQ	6b087f13ae213898H
	DQ	4d3be1f1c854dafcH
	DQ	50d56bafea787b20H
	DQ	3a78919e8396151bH
	DQ	27961bc0a1bab4c7H
	DQ	01a58522c7cf56a3H
	DQ	1c4b0f7ce5e3f77fH
	DQ	4dc2b8e60b24926bH
	DQ	502c32b8290833b7H
	DQ	761fac5a4f7dd1d3H
	DQ	6bf126046d51700fH
	DQ	d50cc36f92f31bfbH
	DQ	c8e24931b0dfba27H
	DQ	eed1d7d3d6aa5843H
	DQ	f33f5d8df486f99fH
	DQ	a2b6ea171a419c8bH
	DQ	bf586049386d3d57H
	DQ	996bfeab5e18df33H
	DQ	848574f57c347eefH
	DQ	76489b570e52165eH
	DQ	6ba611092c7eb782H
	DQ	4d958feb4a0b55e6H
	DQ	507b05b56827f43aH
	DQ	01f2b22f86e0912eH
	DQ	1c1c3871a4cc30f2H
	DQ	3a2fa693c2b9d296H
	DQ	27c12ccde095734aH
	DQ	993cc9a61f3718beH
	DQ	84d243f83d1bb962H
	DQ	a2e1dd1a5b6e5b06H
	DQ	bf0f57447942fadaH
	DQ	ee86e0de97859fceH
	DQ	f3686a80b5a93e12H
	DQ	d55bf462d3dcdc76H
	DQ	c8b57e3cf1f07daaH
	DQ	d6e9a7309f3239a7H
	DQ	cb072d6ebd1e987bH
	DQ	ed34b38cdb6b7a1fH
	DQ	f0da39d2f947dbc3H
	DQ	a1538e481780bed7H
	DQ	bcbd041635ac1f0bH
	DQ	9a8e9af453d9fd6fH
	DQ	876010aa71f55cb3H
	DQ	399df5c18e573747H
	DQ	24737f9fac7b969bH
	DQ	0240e17dca0e74ffH
	DQ	1fae6b23e822d523H
	DQ	4e27dcb906e5b037H
	DQ	53c956e724c911ebH
	DQ	75fac80542bcf38fH
	DQ	6814425b60905253H
	DQ	9ad9adf912f63ae2H
	DQ	873727a730da9b3eH
	DQ	a104b94556af795aH
	DQ	bcea331b7483d886H
	DQ	ed6384819a44bd92H
	DQ	f08d0edfb8681c4eH
	DQ	d6be903dde1dfe2aH
	DQ	cb501a63fc315ff6H
	DQ	75adff0803933402H
	DQ	6843755621bf95deH
	DQ	4e70ebb447ca77baH
	DQ	539e61ea65e6d666H
	DQ	0217d6708b21b372H
	DQ	1ff95c2ea90d12aeH
	DQ	39cac2cccf78f0caH
	DQ	24244892ed545116H
	DQ	4e89b2a384ba3f2dH
	DQ	536738fda6969ef1H
	DQ	7554a61fc0e37c95H
	DQ	68ba2c41e2cfdd49H
	DQ	39339bdb0c08b85dH
	DQ	24dd11852e241981H
	DQ	02ee8f674851fbe5H
	DQ	1f0005396a7d5a39H
	DQ	a1fde05295df31cdH
	DQ	bc136a0cb7f39011H
	DQ	9a20f4eed1867275H
	DQ	87ce7eb0f3aad3a9H
	DQ	d647c92a1d6db6bdH
	DQ	cba943743f411761H
	DQ	ed9add965934f505H
	DQ	f07457c87b1854d9H
	DQ	02b9b86a097e3c68H
	DQ	1f5732342b529db4H
	DQ	3964acd64d277fd0H
	DQ	248a26886f0bde0cH
	DQ	7503911281ccbb18H
	DQ	68ed1b4ca3e01ac4H
	DQ	4ede85aec595f8a0H
	DQ	53300ff0e7b9597cH
	DQ	edcdea9b181b3288H
	DQ	f02360c53a379354H
	DQ	d610fe275c427130H
	DQ	cbfe74797e6ed0ecH
	DQ	9a77c3e390a9b5f8H
	DQ	879949bdb2851424H
	DQ	a1aad75fd4f0f640H
	DQ	bc445d01f6dc579cH
	DQ	74f1233d072c2a36H
	DQ	691fa96325008beaH
	DQ	4f2c37814375698eH
	DQ	52c2bddf6159c852H
	DQ	034b0a458f9ead46H
	DQ	1ea5801badb20c9aH
	DQ	38961ef9cbc7eefeH
	DQ	257894a7e9eb4f22H
	DQ	9b8571cc164924d6H
	DQ	866bfb923465850aH
	DQ	a05865705210676eH
	DQ	bdb6ef2e703cc6b2H
	DQ	ec3f58b49efba3a6H
	DQ	f1d1d2eabcd7027aH
	DQ	d7e24c08daa2e01eH
	DQ	ca0cc656f88e41c2H
	DQ	38c129f48ae82973H
	DQ	252fa3aaa8c488afH
	DQ	031c3d48ceb16acbH
	DQ	1ef2b716ec9dcb17H
	DQ	4f7b008c025aae03H
	DQ	52958ad220760fdfH
	DQ	74a614304603edbbH
	DQ	69489e6e642f4c67H
	DQ	d7b57b059b8d2793H
	DQ	ca5bf15bb9a1864fH
	DQ	ec686fb9dfd4642bH
	DQ	f186e5e7fdf8c5f7H
	DQ	a00f527d133fa0e3H
	DQ	bde1d8233113013fH
	DQ	9bd246c15766e35bH
	DQ	863ccc9f754a4287H
	DQ	ec9136ae1ca42cbcH
	DQ	f17fbcf03e888d60H
	DQ	d74c221258fd6f04H
	DQ	caa2a84c7ad1ced8H
	DQ	9b2b1fd69416abccH
	DQ	86c59588b63a0a10H
	DQ	a0f60b6ad04fe874H
	DQ	bd188134f26349a8H
	DQ	03e5645f0dc1225cH
	DQ	1e0bee012fed8380H
	DQ	383870e3499861e4H
	DQ	25d6fabd6bb4c038H
	DQ	745f4d278573a52cH
	DQ	69b1c779a75f04f0H
	DQ	4f82599bc12ae694H
	DQ	526cd3c5e3064748H
	DQ	a0a13c6791602ff9H
	DQ	bd4fb639b34c8e25H
	DQ	9b7c28dbd5396c41H
	DQ	8692a285f715cd9dH
	DQ	d71b151f19d2a889H
	DQ	caf59f413bfe0955H
	DQ	ecc601a35d8beb31H
	DQ	f1288bfd7fa74aedH
	DQ	4fd56e9680052119H
	DQ	523be4c8a22980c5H
	DQ	74087a2ac45c62a1H
	DQ	69e6f074e670c37dH
	DQ	386f47ee08b7a669H
	DQ	2581cdb02a9b07b5H
	DQ	03b253524ceee5d1H
	DQ	1e5cd90c6ec2440dH
END
