; Listing generated by Microsoft (R) Optimizing Compiler Version 15.00.30729.01 

	TITLE	d:\Projects\MPython\cpython89\externals\xz-5.2.3\src\c89\liblzma\common\easy_encoder.c
	.686P
	.XMM
	include listing.inc
	.model	flat

INCLUDELIB OLDNAMES

PUBLIC	_lzma_easy_encoder
; Function compile flags: /Odtp
; File d:\projects\mpython\cpython89\externals\xz-5.2.3\src\c89\liblzma\common\easy_encoder.c
;	COMDAT _lzma_easy_encoder
_TEXT	SEGMENT
_opt_easy$ = -176					; size = 176
_strm$ = 8						; size = 4
_preset$ = 12						; size = 4
_check$ = 16						; size = 4
_lzma_easy_encoder PROC					; COMDAT

; 18   : {

  00000	55		 push	 ebp
  00001	8b ec		 mov	 ebp, esp
  00003	81 ec b0 00 00
	00		 sub	 esp, 176		; 000000b0H

; 19   : 	lzma_options_easy opt_easy;
; 20   : 	if (lzma_easy_preset(&opt_easy, preset))

  00009	8b 45 0c	 mov	 eax, DWORD PTR _preset$[ebp]
  0000c	50		 push	 eax
  0000d	8d 8d 50 ff ff
	ff		 lea	 ecx, DWORD PTR _opt_easy$[ebp]
  00013	51		 push	 ecx
  00014	e8 00 00 00 00	 call	 _lzma_easy_preset
  00019	83 c4 08	 add	 esp, 8
  0001c	0f b6 d0	 movzx	 edx, al
  0001f	85 d2		 test	 edx, edx
  00021	74 07		 je	 SHORT $LN1@lzma_easy_@2

; 21   : 		return LZMA_OPTIONS_ERROR;

  00023	b8 08 00 00 00	 mov	 eax, 8
  00028	eb 17		 jmp	 SHORT $LN2@lzma_easy_@2
$LN1@lzma_easy_@2:

; 22   : 
; 23   : 	return lzma_stream_encoder(strm, opt_easy.filters, check);

  0002a	8b 45 10	 mov	 eax, DWORD PTR _check$[ebp]
  0002d	50		 push	 eax
  0002e	8d 8d 50 ff ff
	ff		 lea	 ecx, DWORD PTR _opt_easy$[ebp]
  00034	51		 push	 ecx
  00035	8b 55 08	 mov	 edx, DWORD PTR _strm$[ebp]
  00038	52		 push	 edx
  00039	e8 00 00 00 00	 call	 _lzma_stream_encoder
  0003e	83 c4 0c	 add	 esp, 12			; 0000000cH
$LN2@lzma_easy_@2:

; 24   : }

  00041	8b e5		 mov	 esp, ebp
  00043	5d		 pop	 ebp
  00044	c3		 ret	 0
_lzma_easy_encoder ENDP
END
