; Listing generated by Microsoft (R) Optimizing Compiler Version 15.00.30729.01 

	TITLE	d:\SDK\C\Library\Algorithms\Information theory and signal processing\Coding theory\Lossless compression algorithms\Dictionary coders\Lempel?Ziv\Lempel?Ziv?Markov chain (LZMA)\xz\src\c89\liblzma\common\easy_preset.c
	.686P
	.XMM
	include listing.inc
	.model	flat

INCLUDELIB OLDNAMES

PUBLIC	_lzma_easy_preset
; Function compile flags: /Odtp
; File d:\sdk\c\library\algorithms\information theory and signal processing\coding theory\lossless compression algorithms\dictionary coders\lempel–ziv\lempel–ziv–markov chain (lzma)\xz\src\c89\liblzma\common\easy_preset.c
;	COMDAT _lzma_easy_preset
_TEXT	SEGMENT
_opt_easy$ = 8						; size = 4
_preset$ = 12						; size = 4
_lzma_easy_preset PROC					; COMDAT

; 18   : {

  00000	55		 push	 ebp
  00001	8b ec		 mov	 ebp, esp

; 19   : 	if (lzma_lzma_preset(&opt_easy->opt_lzma, preset))

  00003	8b 45 0c	 mov	 eax, DWORD PTR _preset$[ebp]
  00006	50		 push	 eax
  00007	8b 4d 08	 mov	 ecx, DWORD PTR _opt_easy$[ebp]
  0000a	83 c1 50	 add	 ecx, 80			; 00000050H
  0000d	51		 push	 ecx
  0000e	e8 00 00 00 00	 call	 _lzma_lzma_preset
  00013	83 c4 08	 add	 esp, 8
  00016	0f b6 d0	 movzx	 edx, al
  00019	85 d2		 test	 edx, edx
  0001b	74 04		 je	 SHORT $LN1@lzma_easy_

; 20   : 		return true;

  0001d	b0 01		 mov	 al, 1
  0001f	eb 2f		 jmp	 SHORT $LN2@lzma_easy_
$LN1@lzma_easy_:

; 21   : 
; 22   : 	opt_easy->filters[0].id = LZMA_FILTER_LZMA2;

  00021	8b 45 08	 mov	 eax, DWORD PTR _opt_easy$[ebp]
  00024	c7 00 21 00 00
	00		 mov	 DWORD PTR [eax], 33	; 00000021H
  0002a	c7 40 04 00 00
	00 00		 mov	 DWORD PTR [eax+4], 0

; 23   : 	opt_easy->filters[0].options = &opt_easy->opt_lzma;

  00031	8b 4d 08	 mov	 ecx, DWORD PTR _opt_easy$[ebp]
  00034	83 c1 50	 add	 ecx, 80			; 00000050H
  00037	8b 55 08	 mov	 edx, DWORD PTR _opt_easy$[ebp]
  0003a	89 4a 08	 mov	 DWORD PTR [edx+8], ecx

; 24   : 	opt_easy->filters[1].id = LZMA_VLI_UNKNOWN;

  0003d	8b 45 08	 mov	 eax, DWORD PTR _opt_easy$[ebp]
  00040	c7 40 10 ff ff
	ff ff		 mov	 DWORD PTR [eax+16], -1
  00047	c7 40 14 ff ff
	ff ff		 mov	 DWORD PTR [eax+20], -1

; 25   : 
; 26   : 	return false;

  0004e	32 c0		 xor	 al, al
$LN2@lzma_easy_:

; 27   : }

  00050	5d		 pop	 ebp
  00051	c3		 ret	 0
_lzma_easy_preset ENDP
END
