; Listing generated by Microsoft (R) Optimizing Compiler Version 15.00.30729.01 

	TITLE	d:\SDK\C\Library\Algorithms\Information theory and signal processing\Coding theory\Lossless compression algorithms\Dictionary coders\Lempel?Ziv\Lempel?Ziv?Markov chain (LZMA)\xz\src\c89\liblzma\check\sha256.c
	.686P
	.XMM
	include listing.inc
	.model	flat

INCLUDELIB OLDNAMES

_SHA256_K DD	0428a2f98H
	DD	071374491H
	DD	0b5c0fbcfH
	DD	0e9b5dba5H
	DD	03956c25bH
	DD	059f111f1H
	DD	0923f82a4H
	DD	0ab1c5ed5H
	DD	0d807aa98H
	DD	012835b01H
	DD	0243185beH
	DD	0550c7dc3H
	DD	072be5d74H
	DD	080deb1feH
	DD	09bdc06a7H
	DD	0c19bf174H
	DD	0e49b69c1H
	DD	0efbe4786H
	DD	0fc19dc6H
	DD	0240ca1ccH
	DD	02de92c6fH
	DD	04a7484aaH
	DD	05cb0a9dcH
	DD	076f988daH
	DD	0983e5152H
	DD	0a831c66dH
	DD	0b00327c8H
	DD	0bf597fc7H
	DD	0c6e00bf3H
	DD	0d5a79147H
	DD	06ca6351H
	DD	014292967H
	DD	027b70a85H
	DD	02e1b2138H
	DD	04d2c6dfcH
	DD	053380d13H
	DD	0650a7354H
	DD	0766a0abbH
	DD	081c2c92eH
	DD	092722c85H
	DD	0a2bfe8a1H
	DD	0a81a664bH
	DD	0c24b8b70H
	DD	0c76c51a3H
	DD	0d192e819H
	DD	0d6990624H
	DD	0f40e3585H
	DD	0106aa070H
	DD	019a4c116H
	DD	01e376c08H
	DD	02748774cH
	DD	034b0bcb5H
	DD	0391c0cb3H
	DD	04ed8aa4aH
	DD	05b9cca4fH
	DD	0682e6ff3H
	DD	0748f82eeH
	DD	078a5636fH
	DD	084c87814H
	DD	08cc70208H
	DD	090befffaH
	DD	0a4506cebH
	DD	0bef9a3f7H
	DD	0c67178f2H
?s@?1??lzma_sha256_init@@9@9 DD 06a09e667H		; `lzma_sha256_init'::`2'::s
	DD	0bb67ae85H
	DD	03c6ef372H
	DD	0a54ff53aH
	DD	0510e527fH
	DD	09b05688cH
	DD	01f83d9abH
	DD	05be0cd19H
PUBLIC	_lzma_sha256_init
; Function compile flags: /Odtp
; File d:\sdk\c\library\algorithms\information theory and signal processing\coding theory\lossless compression algorithms\dictionary coders\lempel–ziv\lempel–ziv–markov chain (lzma)\xz\src\c89\liblzma\check\sha256.c
;	COMDAT _lzma_sha256_init
_TEXT	SEGMENT
_check$ = 8						; size = 4
_lzma_sha256_init PROC					; COMDAT

; 131  : {

  00000	55		 push	 ebp
  00001	8b ec		 mov	 ebp, esp

; 132  : 	static const uint32_t s[8] = {
; 133  : 		0x6A09E667, 0xBB67AE85, 0x3C6EF372, 0xA54FF53A,
; 134  : 		0x510E527F, 0x9B05688C, 0x1F83D9AB, 0x5BE0CD19,
; 135  : 	};
; 136  : 
; 137  : 	memcpy(check->state.sha256.state, s, sizeof(s));

  00003	6a 20		 push	 32			; 00000020H
  00005	68 00 00 00 00	 push	 OFFSET ?s@?1??lzma_sha256_init@@9@9
  0000a	8b 45 08	 mov	 eax, DWORD PTR _check$[ebp]
  0000d	83 c0 40	 add	 eax, 64			; 00000040H
  00010	50		 push	 eax
  00011	e8 00 00 00 00	 call	 _memcpy
  00016	83 c4 0c	 add	 esp, 12			; 0000000cH

; 138  : 	check->state.sha256.size = 0;

  00019	8b 4d 08	 mov	 ecx, DWORD PTR _check$[ebp]
  0001c	c7 41 60 00 00
	00 00		 mov	 DWORD PTR [ecx+96], 0
  00023	c7 41 64 00 00
	00 00		 mov	 DWORD PTR [ecx+100], 0

; 139  : 
; 140  : 	return;
; 141  : }

  0002a	5d		 pop	 ebp
  0002b	c3		 ret	 0
_lzma_sha256_init ENDP
; Function compile flags: /Odtp
_TEXT	ENDS
;	COMDAT _rotr_32
_TEXT	SEGMENT
_num$ = 8						; size = 4
_amount$ = 12						; size = 4
_rotr_32 PROC						; COMDAT

; 30   : {

  00000	55		 push	 ebp
  00001	8b ec		 mov	 ebp, esp

; 31   :         return (num >> amount) | (num << (32 - amount));

  00003	8b 45 08	 mov	 eax, DWORD PTR _num$[ebp]
  00006	8b 4d 0c	 mov	 ecx, DWORD PTR _amount$[ebp]
  00009	d3 e8		 shr	 eax, cl
  0000b	b9 20 00 00 00	 mov	 ecx, 32			; 00000020H
  00010	2b 4d 0c	 sub	 ecx, DWORD PTR _amount$[ebp]
  00013	8b 55 08	 mov	 edx, DWORD PTR _num$[ebp]
  00016	d3 e2		 shl	 edx, cl
  00018	0b c2		 or	 eax, edx

; 32   : }

  0001a	5d		 pop	 ebp
  0001b	c3		 ret	 0
_rotr_32 ENDP
; Function compile flags: /Odtp
;	COMDAT _transform
_TEXT	SEGMENT
$T35889 = -996						; size = 4
$T35885 = -992						; size = 4
$T35881 = -988						; size = 4
$T35877 = -984						; size = 4
$T35873 = -980						; size = 4
$T35869 = -976						; size = 4
$T35865 = -972						; size = 4
$T35858 = -968						; size = 4
$T35851 = -964						; size = 4
$T35847 = -960						; size = 4
$T35843 = -956						; size = 4
$T35839 = -952						; size = 4
$T35835 = -948						; size = 4
$T35831 = -944						; size = 4
$T35827 = -940						; size = 4
$T35820 = -936						; size = 4
$T35813 = -932						; size = 4
$T35809 = -928						; size = 4
$T35805 = -924						; size = 4
$T35801 = -920						; size = 4
$T35797 = -916						; size = 4
$T35793 = -912						; size = 4
$T35789 = -908						; size = 4
$T35782 = -904						; size = 4
$T35775 = -900						; size = 4
$T35771 = -896						; size = 4
$T35767 = -892						; size = 4
$T35763 = -888						; size = 4
$T35759 = -884						; size = 4
$T35755 = -880						; size = 4
$T35751 = -876						; size = 4
$T35744 = -872						; size = 4
$T35737 = -868						; size = 4
$T35733 = -864						; size = 4
$T35729 = -860						; size = 4
$T35725 = -856						; size = 4
$T35721 = -852						; size = 4
$T35717 = -848						; size = 4
$T35713 = -844						; size = 4
$T35706 = -840						; size = 4
$T35699 = -836						; size = 4
$T35695 = -832						; size = 4
$T35691 = -828						; size = 4
$T35687 = -824						; size = 4
$T35683 = -820						; size = 4
$T35679 = -816						; size = 4
$T35675 = -812						; size = 4
$T35668 = -808						; size = 4
$T35661 = -804						; size = 4
$T35657 = -800						; size = 4
$T35653 = -796						; size = 4
$T35649 = -792						; size = 4
$T35645 = -788						; size = 4
$T35641 = -784						; size = 4
$T35637 = -780						; size = 4
$T35630 = -776						; size = 4
$T35623 = -772						; size = 4
$T35619 = -768						; size = 4
$T35615 = -764						; size = 4
$T35611 = -760						; size = 4
$T35607 = -756						; size = 4
$T35603 = -752						; size = 4
$T35599 = -748						; size = 4
$T35592 = -744						; size = 4
$T35585 = -740						; size = 4
$T35581 = -736						; size = 4
$T35577 = -732						; size = 4
$T35573 = -728						; size = 4
$T35569 = -724						; size = 4
$T35565 = -720						; size = 4
$T35561 = -716						; size = 4
$T35554 = -712						; size = 4
$T35547 = -708						; size = 4
$T35543 = -704						; size = 4
$T35539 = -700						; size = 4
$T35535 = -696						; size = 4
$T35531 = -692						; size = 4
$T35527 = -688						; size = 4
$T35523 = -684						; size = 4
$T35516 = -680						; size = 4
$T35509 = -676						; size = 4
$T35505 = -672						; size = 4
$T35501 = -668						; size = 4
$T35497 = -664						; size = 4
$T35493 = -660						; size = 4
$T35489 = -656						; size = 4
$T35485 = -652						; size = 4
$T35478 = -648						; size = 4
$T35471 = -644						; size = 4
$T35467 = -640						; size = 4
$T35463 = -636						; size = 4
$T35459 = -632						; size = 4
$T35455 = -628						; size = 4
$T35451 = -624						; size = 4
$T35447 = -620						; size = 4
$T35440 = -616						; size = 4
$T35433 = -612						; size = 4
$T35429 = -608						; size = 4
$T35425 = -604						; size = 4
$T35421 = -600						; size = 4
$T35417 = -596						; size = 4
$T35413 = -592						; size = 4
$T35409 = -588						; size = 4
$T35402 = -584						; size = 4
$T35395 = -580						; size = 4
$T35391 = -576						; size = 4
$T35387 = -572						; size = 4
$T35383 = -568						; size = 4
$T35379 = -564						; size = 4
$T35375 = -560						; size = 4
$T35371 = -556						; size = 4
$T35364 = -552						; size = 4
$T35357 = -548						; size = 4
$T35353 = -544						; size = 4
$T35349 = -540						; size = 4
$T35345 = -536						; size = 4
$T35341 = -532						; size = 4
$T35337 = -528						; size = 4
$T35333 = -524						; size = 4
$T35326 = -520						; size = 4
$T35319 = -516						; size = 4
$T35315 = -512						; size = 4
$T35311 = -508						; size = 4
$T35307 = -504						; size = 4
$T35303 = -500						; size = 4
$T35299 = -496						; size = 4
$T35295 = -492						; size = 4
$T35288 = -488						; size = 4
$T35281 = -484						; size = 4
$T35277 = -480						; size = 4
$T35273 = -476						; size = 4
$T35269 = -472						; size = 4
$T35265 = -468						; size = 4
$T35261 = -464						; size = 4
$T35257 = -460						; size = 4
$T35253 = -456						; size = 4
$T35249 = -452						; size = 4
$T35245 = -448						; size = 4
$T35241 = -444						; size = 4
$T35237 = -440						; size = 4
$T35233 = -436						; size = 4
$T35229 = -432						; size = 4
$T35225 = -428						; size = 4
$T35221 = -424						; size = 4
$T35217 = -420						; size = 4
$T35213 = -416						; size = 4
$T35209 = -412						; size = 4
$T35205 = -408						; size = 4
$T35201 = -404						; size = 4
$T35197 = -400						; size = 4
$T35193 = -396						; size = 4
$T35189 = -392						; size = 4
$T35185 = -388						; size = 4
$T35181 = -384						; size = 4
$T35177 = -380						; size = 4
$T35173 = -376						; size = 4
$T35169 = -372						; size = 4
$T35165 = -368						; size = 4
$T35161 = -364						; size = 4
$T35157 = -360						; size = 4
$T35153 = -356						; size = 4
$T35149 = -352						; size = 4
$T35145 = -348						; size = 4
$T35141 = -344						; size = 4
$T35137 = -340						; size = 4
$T35133 = -336						; size = 4
$T35129 = -332						; size = 4
$T35125 = -328						; size = 4
$T35121 = -324						; size = 4
$T35117 = -320						; size = 4
$T35113 = -316						; size = 4
$T35109 = -312						; size = 4
$T35105 = -308						; size = 4
$T35101 = -304						; size = 4
$T35097 = -300						; size = 4
$T35093 = -296						; size = 4
$T35089 = -292						; size = 4
$T35085 = -288						; size = 4
$T35081 = -284						; size = 4
$T35077 = -280						; size = 4
$T35073 = -276						; size = 4
$T35069 = -272						; size = 4
$T35065 = -268						; size = 4
$T35061 = -264						; size = 4
$T35057 = -260						; size = 4
$T35053 = -256						; size = 4
$T35049 = -252						; size = 4
$T35045 = -248						; size = 4
$T35041 = -244						; size = 4
$T35037 = -240						; size = 4
$T35033 = -236						; size = 4
$T35029 = -232						; size = 4
$T35025 = -228						; size = 4
$T35021 = -224						; size = 4
$T35017 = -220						; size = 4
$T35013 = -216						; size = 4
$T35009 = -212						; size = 4
$T35005 = -208						; size = 4
$T35001 = -204						; size = 4
$T34997 = -200						; size = 4
$T34993 = -196						; size = 4
$T34989 = -192						; size = 4
$T34985 = -188						; size = 4
$T34981 = -184						; size = 4
$T34977 = -180						; size = 4
$T34973 = -176						; size = 4
$T34969 = -172						; size = 4
$T34965 = -168						; size = 4
$T34961 = -164						; size = 4
$T34957 = -160						; size = 4
$T34953 = -156						; size = 4
$T34949 = -152						; size = 4
$T34945 = -148						; size = 4
$T34941 = -144						; size = 4
$T34937 = -140						; size = 4
$T34933 = -136						; size = 4
$T34929 = -132						; size = 4
$T34925 = -128						; size = 4
$T34921 = -124						; size = 4
$T34917 = -120						; size = 4
$T34913 = -116						; size = 4
$T34909 = -112						; size = 4
$T34905 = -108						; size = 4
$T34901 = -104						; size = 4
_j$32344 = -100						; size = 4
_W$ = -96						; size = 64
_T$ = -32						; size = 32
_state$ = 8						; size = 4
_data$ = 12						; size = 4
_transform PROC						; COMDAT

; 85   : {

  00000	55		 push	 ebp
  00001	8b ec		 mov	 ebp, esp
  00003	81 ec e4 03 00
	00		 sub	 esp, 996		; 000003e4H
  00009	56		 push	 esi

; 86   : 	uint32_t W[16];
; 87   : 	uint32_t T[8];
; 88   : 
; 89   : 	// Copy state[] to working vars.
; 90   : 	memcpy(T, state, sizeof(T));

  0000a	6a 20		 push	 32			; 00000020H
  0000c	8b 45 08	 mov	 eax, DWORD PTR _state$[ebp]
  0000f	50		 push	 eax
  00010	8d 4d e0	 lea	 ecx, DWORD PTR _T$[ebp]
  00013	51		 push	 ecx
  00014	e8 00 00 00 00	 call	 _memcpy
  00019	83 c4 0c	 add	 esp, 12			; 0000000cH

; 91   : 
; 92   : 	// The first 16 operations unrolled
; 93   : 	R0( 0); R0( 1); R0( 2); R0( 3);

  0001c	8b 55 0c	 mov	 edx, DWORD PTR _data$[ebp]
  0001f	8b 02		 mov	 eax, DWORD PTR [edx]
  00021	c1 e0 18	 shl	 eax, 24			; 00000018H
  00024	8b 4d 0c	 mov	 ecx, DWORD PTR _data$[ebp]
  00027	8b 11		 mov	 edx, DWORD PTR [ecx]
  00029	c1 e2 08	 shl	 edx, 8
  0002c	81 e2 00 00 ff
	00		 and	 edx, 16711680		; 00ff0000H
  00032	0b c2		 or	 eax, edx
  00034	8b 4d 0c	 mov	 ecx, DWORD PTR _data$[ebp]
  00037	8b 11		 mov	 edx, DWORD PTR [ecx]
  00039	c1 ea 08	 shr	 edx, 8
  0003c	81 e2 00 ff 00
	00		 and	 edx, 65280		; 0000ff00H
  00042	0b c2		 or	 eax, edx
  00044	8b 4d 0c	 mov	 ecx, DWORD PTR _data$[ebp]
  00047	8b 11		 mov	 edx, DWORD PTR [ecx]
  00049	c1 ea 18	 shr	 edx, 24			; 00000018H
  0004c	0b c2		 or	 eax, edx
  0004e	89 45 a0	 mov	 DWORD PTR _W$[ebp], eax
  00051	8b 45 f0	 mov	 eax, DWORD PTR _T$[ebp+16]
  00054	c1 e8 0e	 shr	 eax, 14			; 0000000eH
  00057	b9 20 00 00 00	 mov	 ecx, 32			; 00000020H
  0005c	83 e9 0e	 sub	 ecx, 14			; 0000000eH
  0005f	8b 55 f0	 mov	 edx, DWORD PTR _T$[ebp+16]
  00062	d3 e2		 shl	 edx, cl
  00064	0b c2		 or	 eax, edx
  00066	89 45 98	 mov	 DWORD PTR $T34901[ebp], eax
  00069	8b 45 f0	 mov	 eax, DWORD PTR _T$[ebp+16]
  0006c	33 45 98	 xor	 eax, DWORD PTR $T34901[ebp]
  0006f	89 45 94	 mov	 DWORD PTR $T34905[ebp], eax
  00072	b9 20 00 00 00	 mov	 ecx, 32			; 00000020H
  00077	83 e9 05	 sub	 ecx, 5
  0007a	8b 55 94	 mov	 edx, DWORD PTR $T34905[ebp]
  0007d	d3 e2		 shl	 edx, cl
  0007f	8b 45 94	 mov	 eax, DWORD PTR $T34905[ebp]
  00082	c1 e8 05	 shr	 eax, 5
  00085	0b c2		 or	 eax, edx
  00087	33 45 f0	 xor	 eax, DWORD PTR _T$[ebp+16]
  0008a	89 45 90	 mov	 DWORD PTR $T34909[ebp], eax
  0008d	8b 55 f4	 mov	 edx, DWORD PTR _T$[ebp+20]
  00090	33 55 f8	 xor	 edx, DWORD PTR _T$[ebp+24]
  00093	23 55 f0	 and	 edx, DWORD PTR _T$[ebp+16]
  00096	33 55 f8	 xor	 edx, DWORD PTR _T$[ebp+24]
  00099	b9 20 00 00 00	 mov	 ecx, 32			; 00000020H
  0009e	83 e9 06	 sub	 ecx, 6
  000a1	8b 45 90	 mov	 eax, DWORD PTR $T34909[ebp]
  000a4	d3 e0		 shl	 eax, cl
  000a6	8b 4d 90	 mov	 ecx, DWORD PTR $T34909[ebp]
  000a9	c1 e9 06	 shr	 ecx, 6
  000ac	0b c8		 or	 ecx, eax
  000ae	03 0d 00 00 00
	00		 add	 ecx, DWORD PTR _SHA256_K
  000b4	03 d1		 add	 edx, ecx
  000b6	03 55 a0	 add	 edx, DWORD PTR _W$[ebp]
  000b9	03 55 fc	 add	 edx, DWORD PTR _T$[ebp+28]
  000bc	89 55 fc	 mov	 DWORD PTR _T$[ebp+28], edx
  000bf	8b 55 ec	 mov	 edx, DWORD PTR _T$[ebp+12]
  000c2	03 55 fc	 add	 edx, DWORD PTR _T$[ebp+28]
  000c5	89 55 ec	 mov	 DWORD PTR _T$[ebp+12], edx
  000c8	8b 45 e0	 mov	 eax, DWORD PTR _T$[ebp]
  000cb	c1 e8 09	 shr	 eax, 9
  000ce	b9 20 00 00 00	 mov	 ecx, 32			; 00000020H
  000d3	83 e9 09	 sub	 ecx, 9
  000d6	8b 55 e0	 mov	 edx, DWORD PTR _T$[ebp]
  000d9	d3 e2		 shl	 edx, cl
  000db	0b c2		 or	 eax, edx
  000dd	89 45 8c	 mov	 DWORD PTR $T34913[ebp], eax
  000e0	8b 45 e0	 mov	 eax, DWORD PTR _T$[ebp]
  000e3	33 45 8c	 xor	 eax, DWORD PTR $T34913[ebp]
  000e6	89 45 88	 mov	 DWORD PTR $T34917[ebp], eax
  000e9	b9 20 00 00 00	 mov	 ecx, 32			; 00000020H
  000ee	83 e9 0b	 sub	 ecx, 11			; 0000000bH
  000f1	8b 55 88	 mov	 edx, DWORD PTR $T34917[ebp]
  000f4	d3 e2		 shl	 edx, cl
  000f6	8b 45 88	 mov	 eax, DWORD PTR $T34917[ebp]
  000f9	c1 e8 0b	 shr	 eax, 11			; 0000000bH
  000fc	0b c2		 or	 eax, edx
  000fe	33 45 e0	 xor	 eax, DWORD PTR _T$[ebp]
  00101	89 45 84	 mov	 DWORD PTR $T34921[ebp], eax
  00104	8b 55 e4	 mov	 edx, DWORD PTR _T$[ebp+4]
  00107	33 55 e8	 xor	 edx, DWORD PTR _T$[ebp+8]
  0010a	23 55 e0	 and	 edx, DWORD PTR _T$[ebp]
  0010d	8b 45 e4	 mov	 eax, DWORD PTR _T$[ebp+4]
  00110	23 45 e8	 and	 eax, DWORD PTR _T$[ebp+8]
  00113	03 d0		 add	 edx, eax
  00115	b9 20 00 00 00	 mov	 ecx, 32			; 00000020H
  0011a	83 e9 02	 sub	 ecx, 2
  0011d	8b 45 84	 mov	 eax, DWORD PTR $T34921[ebp]
  00120	d3 e0		 shl	 eax, cl
  00122	8b 4d 84	 mov	 ecx, DWORD PTR $T34921[ebp]
  00125	c1 e9 02	 shr	 ecx, 2
  00128	0b c8		 or	 ecx, eax
  0012a	03 55 fc	 add	 edx, DWORD PTR _T$[ebp+28]
  0012d	03 d1		 add	 edx, ecx
  0012f	89 55 fc	 mov	 DWORD PTR _T$[ebp+28], edx
  00132	8b 55 0c	 mov	 edx, DWORD PTR _data$[ebp]
  00135	8b 42 04	 mov	 eax, DWORD PTR [edx+4]
  00138	c1 e0 18	 shl	 eax, 24			; 00000018H
  0013b	8b 4d 0c	 mov	 ecx, DWORD PTR _data$[ebp]
  0013e	8b 51 04	 mov	 edx, DWORD PTR [ecx+4]
  00141	c1 e2 08	 shl	 edx, 8
  00144	81 e2 00 00 ff
	00		 and	 edx, 16711680		; 00ff0000H
  0014a	0b c2		 or	 eax, edx
  0014c	8b 4d 0c	 mov	 ecx, DWORD PTR _data$[ebp]
  0014f	8b 51 04	 mov	 edx, DWORD PTR [ecx+4]
  00152	c1 ea 08	 shr	 edx, 8
  00155	81 e2 00 ff 00
	00		 and	 edx, 65280		; 0000ff00H
  0015b	0b c2		 or	 eax, edx
  0015d	8b 4d 0c	 mov	 ecx, DWORD PTR _data$[ebp]
  00160	8b 51 04	 mov	 edx, DWORD PTR [ecx+4]
  00163	c1 ea 18	 shr	 edx, 24			; 00000018H
  00166	0b c2		 or	 eax, edx
  00168	89 45 a4	 mov	 DWORD PTR _W$[ebp+4], eax
  0016b	8b 45 ec	 mov	 eax, DWORD PTR _T$[ebp+12]
  0016e	c1 e8 0e	 shr	 eax, 14			; 0000000eH
  00171	b9 20 00 00 00	 mov	 ecx, 32			; 00000020H
  00176	83 e9 0e	 sub	 ecx, 14			; 0000000eH
  00179	8b 55 ec	 mov	 edx, DWORD PTR _T$[ebp+12]
  0017c	d3 e2		 shl	 edx, cl
  0017e	0b c2		 or	 eax, edx
  00180	89 45 80	 mov	 DWORD PTR $T34925[ebp], eax
  00183	8b 45 ec	 mov	 eax, DWORD PTR _T$[ebp+12]
  00186	33 45 80	 xor	 eax, DWORD PTR $T34925[ebp]
  00189	89 85 7c ff ff
	ff		 mov	 DWORD PTR $T34929[ebp], eax
  0018f	b9 20 00 00 00	 mov	 ecx, 32			; 00000020H
  00194	83 e9 05	 sub	 ecx, 5
  00197	8b 95 7c ff ff
	ff		 mov	 edx, DWORD PTR $T34929[ebp]
  0019d	d3 e2		 shl	 edx, cl
  0019f	8b 85 7c ff ff
	ff		 mov	 eax, DWORD PTR $T34929[ebp]
  001a5	c1 e8 05	 shr	 eax, 5
  001a8	0b c2		 or	 eax, edx
  001aa	33 45 ec	 xor	 eax, DWORD PTR _T$[ebp+12]
  001ad	89 85 78 ff ff
	ff		 mov	 DWORD PTR $T34933[ebp], eax
  001b3	8b 55 f0	 mov	 edx, DWORD PTR _T$[ebp+16]
  001b6	33 55 f4	 xor	 edx, DWORD PTR _T$[ebp+20]
  001b9	23 55 ec	 and	 edx, DWORD PTR _T$[ebp+12]
  001bc	33 55 f4	 xor	 edx, DWORD PTR _T$[ebp+20]
  001bf	b9 20 00 00 00	 mov	 ecx, 32			; 00000020H
  001c4	83 e9 06	 sub	 ecx, 6
  001c7	8b 85 78 ff ff
	ff		 mov	 eax, DWORD PTR $T34933[ebp]
  001cd	d3 e0		 shl	 eax, cl
  001cf	8b 8d 78 ff ff
	ff		 mov	 ecx, DWORD PTR $T34933[ebp]
  001d5	c1 e9 06	 shr	 ecx, 6
  001d8	0b c8		 or	 ecx, eax
  001da	03 0d 04 00 00
	00		 add	 ecx, DWORD PTR _SHA256_K+4
  001e0	03 d1		 add	 edx, ecx
  001e2	03 55 a4	 add	 edx, DWORD PTR _W$[ebp+4]
  001e5	03 55 f8	 add	 edx, DWORD PTR _T$[ebp+24]
  001e8	89 55 f8	 mov	 DWORD PTR _T$[ebp+24], edx
  001eb	8b 55 e8	 mov	 edx, DWORD PTR _T$[ebp+8]
  001ee	03 55 f8	 add	 edx, DWORD PTR _T$[ebp+24]
  001f1	89 55 e8	 mov	 DWORD PTR _T$[ebp+8], edx
  001f4	8b 45 fc	 mov	 eax, DWORD PTR _T$[ebp+28]
  001f7	c1 e8 09	 shr	 eax, 9
  001fa	b9 20 00 00 00	 mov	 ecx, 32			; 00000020H
  001ff	83 e9 09	 sub	 ecx, 9
  00202	8b 55 fc	 mov	 edx, DWORD PTR _T$[ebp+28]
  00205	d3 e2		 shl	 edx, cl
  00207	0b c2		 or	 eax, edx
  00209	89 85 74 ff ff
	ff		 mov	 DWORD PTR $T34937[ebp], eax
  0020f	8b 45 fc	 mov	 eax, DWORD PTR _T$[ebp+28]
  00212	33 85 74 ff ff
	ff		 xor	 eax, DWORD PTR $T34937[ebp]
  00218	89 85 70 ff ff
	ff		 mov	 DWORD PTR $T34941[ebp], eax
  0021e	b9 20 00 00 00	 mov	 ecx, 32			; 00000020H
  00223	83 e9 0b	 sub	 ecx, 11			; 0000000bH
  00226	8b 95 70 ff ff
	ff		 mov	 edx, DWORD PTR $T34941[ebp]
  0022c	d3 e2		 shl	 edx, cl
  0022e	8b 85 70 ff ff
	ff		 mov	 eax, DWORD PTR $T34941[ebp]
  00234	c1 e8 0b	 shr	 eax, 11			; 0000000bH
  00237	0b c2		 or	 eax, edx
  00239	33 45 fc	 xor	 eax, DWORD PTR _T$[ebp+28]
  0023c	89 85 6c ff ff
	ff		 mov	 DWORD PTR $T34945[ebp], eax
  00242	8b 55 e0	 mov	 edx, DWORD PTR _T$[ebp]
  00245	33 55 e4	 xor	 edx, DWORD PTR _T$[ebp+4]
  00248	23 55 fc	 and	 edx, DWORD PTR _T$[ebp+28]
  0024b	8b 45 e0	 mov	 eax, DWORD PTR _T$[ebp]
  0024e	23 45 e4	 and	 eax, DWORD PTR _T$[ebp+4]
  00251	03 d0		 add	 edx, eax
  00253	b9 20 00 00 00	 mov	 ecx, 32			; 00000020H
  00258	83 e9 02	 sub	 ecx, 2
  0025b	8b 85 6c ff ff
	ff		 mov	 eax, DWORD PTR $T34945[ebp]
  00261	d3 e0		 shl	 eax, cl
  00263	8b 8d 6c ff ff
	ff		 mov	 ecx, DWORD PTR $T34945[ebp]
  00269	c1 e9 02	 shr	 ecx, 2
  0026c	0b c8		 or	 ecx, eax
  0026e	03 55 f8	 add	 edx, DWORD PTR _T$[ebp+24]
  00271	03 d1		 add	 edx, ecx
  00273	89 55 f8	 mov	 DWORD PTR _T$[ebp+24], edx
  00276	8b 55 0c	 mov	 edx, DWORD PTR _data$[ebp]
  00279	8b 42 08	 mov	 eax, DWORD PTR [edx+8]
  0027c	c1 e0 18	 shl	 eax, 24			; 00000018H
  0027f	8b 4d 0c	 mov	 ecx, DWORD PTR _data$[ebp]
  00282	8b 51 08	 mov	 edx, DWORD PTR [ecx+8]
  00285	c1 e2 08	 shl	 edx, 8
  00288	81 e2 00 00 ff
	00		 and	 edx, 16711680		; 00ff0000H
  0028e	0b c2		 or	 eax, edx
  00290	8b 4d 0c	 mov	 ecx, DWORD PTR _data$[ebp]
  00293	8b 51 08	 mov	 edx, DWORD PTR [ecx+8]
  00296	c1 ea 08	 shr	 edx, 8
  00299	81 e2 00 ff 00
	00		 and	 edx, 65280		; 0000ff00H
  0029f	0b c2		 or	 eax, edx
  002a1	8b 4d 0c	 mov	 ecx, DWORD PTR _data$[ebp]
  002a4	8b 51 08	 mov	 edx, DWORD PTR [ecx+8]
  002a7	c1 ea 18	 shr	 edx, 24			; 00000018H
  002aa	0b c2		 or	 eax, edx
  002ac	89 45 a8	 mov	 DWORD PTR _W$[ebp+8], eax
  002af	8b 45 e8	 mov	 eax, DWORD PTR _T$[ebp+8]
  002b2	c1 e8 0e	 shr	 eax, 14			; 0000000eH
  002b5	b9 20 00 00 00	 mov	 ecx, 32			; 00000020H
  002ba	83 e9 0e	 sub	 ecx, 14			; 0000000eH
  002bd	8b 55 e8	 mov	 edx, DWORD PTR _T$[ebp+8]
  002c0	d3 e2		 shl	 edx, cl
  002c2	0b c2		 or	 eax, edx
  002c4	89 85 68 ff ff
	ff		 mov	 DWORD PTR $T34949[ebp], eax
  002ca	8b 45 e8	 mov	 eax, DWORD PTR _T$[ebp+8]
  002cd	33 85 68 ff ff
	ff		 xor	 eax, DWORD PTR $T34949[ebp]
  002d3	89 85 64 ff ff
	ff		 mov	 DWORD PTR $T34953[ebp], eax
  002d9	b9 20 00 00 00	 mov	 ecx, 32			; 00000020H
  002de	83 e9 05	 sub	 ecx, 5
  002e1	8b 95 64 ff ff
	ff		 mov	 edx, DWORD PTR $T34953[ebp]
  002e7	d3 e2		 shl	 edx, cl
  002e9	8b 85 64 ff ff
	ff		 mov	 eax, DWORD PTR $T34953[ebp]
  002ef	c1 e8 05	 shr	 eax, 5
  002f2	0b c2		 or	 eax, edx
  002f4	33 45 e8	 xor	 eax, DWORD PTR _T$[ebp+8]
  002f7	89 85 60 ff ff
	ff		 mov	 DWORD PTR $T34957[ebp], eax
  002fd	8b 55 ec	 mov	 edx, DWORD PTR _T$[ebp+12]
  00300	33 55 f0	 xor	 edx, DWORD PTR _T$[ebp+16]
  00303	23 55 e8	 and	 edx, DWORD PTR _T$[ebp+8]
  00306	33 55 f0	 xor	 edx, DWORD PTR _T$[ebp+16]
  00309	b9 20 00 00 00	 mov	 ecx, 32			; 00000020H
  0030e	83 e9 06	 sub	 ecx, 6
  00311	8b 85 60 ff ff
	ff		 mov	 eax, DWORD PTR $T34957[ebp]
  00317	d3 e0		 shl	 eax, cl
  00319	8b 8d 60 ff ff
	ff		 mov	 ecx, DWORD PTR $T34957[ebp]
  0031f	c1 e9 06	 shr	 ecx, 6
  00322	0b c8		 or	 ecx, eax
  00324	03 0d 08 00 00
	00		 add	 ecx, DWORD PTR _SHA256_K+8
  0032a	03 d1		 add	 edx, ecx
  0032c	03 55 a8	 add	 edx, DWORD PTR _W$[ebp+8]
  0032f	03 55 f4	 add	 edx, DWORD PTR _T$[ebp+20]
  00332	89 55 f4	 mov	 DWORD PTR _T$[ebp+20], edx
  00335	8b 55 e4	 mov	 edx, DWORD PTR _T$[ebp+4]
  00338	03 55 f4	 add	 edx, DWORD PTR _T$[ebp+20]
  0033b	89 55 e4	 mov	 DWORD PTR _T$[ebp+4], edx
  0033e	8b 45 f8	 mov	 eax, DWORD PTR _T$[ebp+24]
  00341	c1 e8 09	 shr	 eax, 9
  00344	b9 20 00 00 00	 mov	 ecx, 32			; 00000020H
  00349	83 e9 09	 sub	 ecx, 9
  0034c	8b 55 f8	 mov	 edx, DWORD PTR _T$[ebp+24]
  0034f	d3 e2		 shl	 edx, cl
  00351	0b c2		 or	 eax, edx
  00353	89 85 5c ff ff
	ff		 mov	 DWORD PTR $T34961[ebp], eax
  00359	8b 45 f8	 mov	 eax, DWORD PTR _T$[ebp+24]
  0035c	33 85 5c ff ff
	ff		 xor	 eax, DWORD PTR $T34961[ebp]
  00362	89 85 58 ff ff
	ff		 mov	 DWORD PTR $T34965[ebp], eax
  00368	b9 20 00 00 00	 mov	 ecx, 32			; 00000020H
  0036d	83 e9 0b	 sub	 ecx, 11			; 0000000bH
  00370	8b 95 58 ff ff
	ff		 mov	 edx, DWORD PTR $T34965[ebp]
  00376	d3 e2		 shl	 edx, cl
  00378	8b 85 58 ff ff
	ff		 mov	 eax, DWORD PTR $T34965[ebp]
  0037e	c1 e8 0b	 shr	 eax, 11			; 0000000bH
  00381	0b c2		 or	 eax, edx
  00383	33 45 f8	 xor	 eax, DWORD PTR _T$[ebp+24]
  00386	89 85 54 ff ff
	ff		 mov	 DWORD PTR $T34969[ebp], eax
  0038c	8b 55 fc	 mov	 edx, DWORD PTR _T$[ebp+28]
  0038f	33 55 e0	 xor	 edx, DWORD PTR _T$[ebp]
  00392	23 55 f8	 and	 edx, DWORD PTR _T$[ebp+24]
  00395	8b 45 fc	 mov	 eax, DWORD PTR _T$[ebp+28]
  00398	23 45 e0	 and	 eax, DWORD PTR _T$[ebp]
  0039b	03 d0		 add	 edx, eax
  0039d	b9 20 00 00 00	 mov	 ecx, 32			; 00000020H
  003a2	83 e9 02	 sub	 ecx, 2
  003a5	8b 85 54 ff ff
	ff		 mov	 eax, DWORD PTR $T34969[ebp]
  003ab	d3 e0		 shl	 eax, cl
  003ad	8b 8d 54 ff ff
	ff		 mov	 ecx, DWORD PTR $T34969[ebp]
  003b3	c1 e9 02	 shr	 ecx, 2
  003b6	0b c8		 or	 ecx, eax
  003b8	03 55 f4	 add	 edx, DWORD PTR _T$[ebp+20]
  003bb	03 d1		 add	 edx, ecx
  003bd	89 55 f4	 mov	 DWORD PTR _T$[ebp+20], edx
  003c0	8b 55 0c	 mov	 edx, DWORD PTR _data$[ebp]
  003c3	8b 42 0c	 mov	 eax, DWORD PTR [edx+12]
  003c6	c1 e0 18	 shl	 eax, 24			; 00000018H
  003c9	8b 4d 0c	 mov	 ecx, DWORD PTR _data$[ebp]
  003cc	8b 51 0c	 mov	 edx, DWORD PTR [ecx+12]
  003cf	c1 e2 08	 shl	 edx, 8
  003d2	81 e2 00 00 ff
	00		 and	 edx, 16711680		; 00ff0000H
  003d8	0b c2		 or	 eax, edx
  003da	8b 4d 0c	 mov	 ecx, DWORD PTR _data$[ebp]
  003dd	8b 51 0c	 mov	 edx, DWORD PTR [ecx+12]
  003e0	c1 ea 08	 shr	 edx, 8
  003e3	81 e2 00 ff 00
	00		 and	 edx, 65280		; 0000ff00H
  003e9	0b c2		 or	 eax, edx
  003eb	8b 4d 0c	 mov	 ecx, DWORD PTR _data$[ebp]
  003ee	8b 51 0c	 mov	 edx, DWORD PTR [ecx+12]
  003f1	c1 ea 18	 shr	 edx, 24			; 00000018H
  003f4	0b c2		 or	 eax, edx
  003f6	89 45 ac	 mov	 DWORD PTR _W$[ebp+12], eax
  003f9	8b 45 e4	 mov	 eax, DWORD PTR _T$[ebp+4]
  003fc	c1 e8 0e	 shr	 eax, 14			; 0000000eH
  003ff	b9 20 00 00 00	 mov	 ecx, 32			; 00000020H
  00404	83 e9 0e	 sub	 ecx, 14			; 0000000eH
  00407	8b 55 e4	 mov	 edx, DWORD PTR _T$[ebp+4]
  0040a	d3 e2		 shl	 edx, cl
  0040c	0b c2		 or	 eax, edx
  0040e	89 85 50 ff ff
	ff		 mov	 DWORD PTR $T34973[ebp], eax
  00414	8b 45 e4	 mov	 eax, DWORD PTR _T$[ebp+4]
  00417	33 85 50 ff ff
	ff		 xor	 eax, DWORD PTR $T34973[ebp]
  0041d	89 85 4c ff ff
	ff		 mov	 DWORD PTR $T34977[ebp], eax
  00423	b9 20 00 00 00	 mov	 ecx, 32			; 00000020H
  00428	83 e9 05	 sub	 ecx, 5
  0042b	8b 95 4c ff ff
	ff		 mov	 edx, DWORD PTR $T34977[ebp]
  00431	d3 e2		 shl	 edx, cl
  00433	8b 85 4c ff ff
	ff		 mov	 eax, DWORD PTR $T34977[ebp]
  00439	c1 e8 05	 shr	 eax, 5
  0043c	0b c2		 or	 eax, edx
  0043e	33 45 e4	 xor	 eax, DWORD PTR _T$[ebp+4]
  00441	89 85 48 ff ff
	ff		 mov	 DWORD PTR $T34981[ebp], eax
  00447	8b 55 e8	 mov	 edx, DWORD PTR _T$[ebp+8]
  0044a	33 55 ec	 xor	 edx, DWORD PTR _T$[ebp+12]
  0044d	23 55 e4	 and	 edx, DWORD PTR _T$[ebp+4]
  00450	33 55 ec	 xor	 edx, DWORD PTR _T$[ebp+12]
  00453	b9 20 00 00 00	 mov	 ecx, 32			; 00000020H
  00458	83 e9 06	 sub	 ecx, 6
  0045b	8b 85 48 ff ff
	ff		 mov	 eax, DWORD PTR $T34981[ebp]
  00461	d3 e0		 shl	 eax, cl
  00463	8b 8d 48 ff ff
	ff		 mov	 ecx, DWORD PTR $T34981[ebp]
  00469	c1 e9 06	 shr	 ecx, 6
  0046c	0b c8		 or	 ecx, eax
  0046e	03 0d 0c 00 00
	00		 add	 ecx, DWORD PTR _SHA256_K+12
  00474	03 d1		 add	 edx, ecx
  00476	03 55 ac	 add	 edx, DWORD PTR _W$[ebp+12]
  00479	03 55 f0	 add	 edx, DWORD PTR _T$[ebp+16]
  0047c	89 55 f0	 mov	 DWORD PTR _T$[ebp+16], edx
  0047f	8b 55 e0	 mov	 edx, DWORD PTR _T$[ebp]
  00482	03 55 f0	 add	 edx, DWORD PTR _T$[ebp+16]
  00485	89 55 e0	 mov	 DWORD PTR _T$[ebp], edx
  00488	8b 45 f4	 mov	 eax, DWORD PTR _T$[ebp+20]
  0048b	c1 e8 09	 shr	 eax, 9
  0048e	b9 20 00 00 00	 mov	 ecx, 32			; 00000020H
  00493	83 e9 09	 sub	 ecx, 9
  00496	8b 55 f4	 mov	 edx, DWORD PTR _T$[ebp+20]
  00499	d3 e2		 shl	 edx, cl
  0049b	0b c2		 or	 eax, edx
  0049d	89 85 44 ff ff
	ff		 mov	 DWORD PTR $T34985[ebp], eax
  004a3	8b 45 f4	 mov	 eax, DWORD PTR _T$[ebp+20]
  004a6	33 85 44 ff ff
	ff		 xor	 eax, DWORD PTR $T34985[ebp]
  004ac	89 85 40 ff ff
	ff		 mov	 DWORD PTR $T34989[ebp], eax
  004b2	b9 20 00 00 00	 mov	 ecx, 32			; 00000020H
  004b7	83 e9 0b	 sub	 ecx, 11			; 0000000bH
  004ba	8b 95 40 ff ff
	ff		 mov	 edx, DWORD PTR $T34989[ebp]
  004c0	d3 e2		 shl	 edx, cl
  004c2	8b 85 40 ff ff
	ff		 mov	 eax, DWORD PTR $T34989[ebp]
  004c8	c1 e8 0b	 shr	 eax, 11			; 0000000bH
  004cb	0b c2		 or	 eax, edx
  004cd	33 45 f4	 xor	 eax, DWORD PTR _T$[ebp+20]
  004d0	89 85 3c ff ff
	ff		 mov	 DWORD PTR $T34993[ebp], eax
  004d6	8b 55 f8	 mov	 edx, DWORD PTR _T$[ebp+24]
  004d9	33 55 fc	 xor	 edx, DWORD PTR _T$[ebp+28]
  004dc	23 55 f4	 and	 edx, DWORD PTR _T$[ebp+20]
  004df	8b 45 f8	 mov	 eax, DWORD PTR _T$[ebp+24]
  004e2	23 45 fc	 and	 eax, DWORD PTR _T$[ebp+28]
  004e5	03 d0		 add	 edx, eax
  004e7	b9 20 00 00 00	 mov	 ecx, 32			; 00000020H
  004ec	83 e9 02	 sub	 ecx, 2
  004ef	8b 85 3c ff ff
	ff		 mov	 eax, DWORD PTR $T34993[ebp]
  004f5	d3 e0		 shl	 eax, cl
  004f7	8b 8d 3c ff ff
	ff		 mov	 ecx, DWORD PTR $T34993[ebp]
  004fd	c1 e9 02	 shr	 ecx, 2
  00500	0b c8		 or	 ecx, eax
  00502	03 55 f0	 add	 edx, DWORD PTR _T$[ebp+16]
  00505	03 d1		 add	 edx, ecx
  00507	89 55 f0	 mov	 DWORD PTR _T$[ebp+16], edx

; 94   : 	R0( 4); R0( 5); R0( 6); R0( 7);

  0050a	8b 55 0c	 mov	 edx, DWORD PTR _data$[ebp]
  0050d	8b 42 10	 mov	 eax, DWORD PTR [edx+16]
  00510	c1 e0 18	 shl	 eax, 24			; 00000018H
  00513	8b 4d 0c	 mov	 ecx, DWORD PTR _data$[ebp]
  00516	8b 51 10	 mov	 edx, DWORD PTR [ecx+16]
  00519	c1 e2 08	 shl	 edx, 8
  0051c	81 e2 00 00 ff
	00		 and	 edx, 16711680		; 00ff0000H
  00522	0b c2		 or	 eax, edx
  00524	8b 4d 0c	 mov	 ecx, DWORD PTR _data$[ebp]
  00527	8b 51 10	 mov	 edx, DWORD PTR [ecx+16]
  0052a	c1 ea 08	 shr	 edx, 8
  0052d	81 e2 00 ff 00
	00		 and	 edx, 65280		; 0000ff00H
  00533	0b c2		 or	 eax, edx
  00535	8b 4d 0c	 mov	 ecx, DWORD PTR _data$[ebp]
  00538	8b 51 10	 mov	 edx, DWORD PTR [ecx+16]
  0053b	c1 ea 18	 shr	 edx, 24			; 00000018H
  0053e	0b c2		 or	 eax, edx
  00540	89 45 b0	 mov	 DWORD PTR _W$[ebp+16], eax
  00543	8b 45 e0	 mov	 eax, DWORD PTR _T$[ebp]
  00546	c1 e8 0e	 shr	 eax, 14			; 0000000eH
  00549	b9 20 00 00 00	 mov	 ecx, 32			; 00000020H
  0054e	83 e9 0e	 sub	 ecx, 14			; 0000000eH
  00551	8b 55 e0	 mov	 edx, DWORD PTR _T$[ebp]
  00554	d3 e2		 shl	 edx, cl
  00556	0b c2		 or	 eax, edx
  00558	89 85 38 ff ff
	ff		 mov	 DWORD PTR $T34997[ebp], eax
  0055e	8b 45 e0	 mov	 eax, DWORD PTR _T$[ebp]
  00561	33 85 38 ff ff
	ff		 xor	 eax, DWORD PTR $T34997[ebp]
  00567	89 85 34 ff ff
	ff		 mov	 DWORD PTR $T35001[ebp], eax
  0056d	b9 20 00 00 00	 mov	 ecx, 32			; 00000020H
  00572	83 e9 05	 sub	 ecx, 5
  00575	8b 95 34 ff ff
	ff		 mov	 edx, DWORD PTR $T35001[ebp]
  0057b	d3 e2		 shl	 edx, cl
  0057d	8b 85 34 ff ff
	ff		 mov	 eax, DWORD PTR $T35001[ebp]
  00583	c1 e8 05	 shr	 eax, 5
  00586	0b c2		 or	 eax, edx
  00588	33 45 e0	 xor	 eax, DWORD PTR _T$[ebp]
  0058b	89 85 30 ff ff
	ff		 mov	 DWORD PTR $T35005[ebp], eax
  00591	8b 55 e4	 mov	 edx, DWORD PTR _T$[ebp+4]
  00594	33 55 e8	 xor	 edx, DWORD PTR _T$[ebp+8]
  00597	23 55 e0	 and	 edx, DWORD PTR _T$[ebp]
  0059a	33 55 e8	 xor	 edx, DWORD PTR _T$[ebp+8]
  0059d	b9 20 00 00 00	 mov	 ecx, 32			; 00000020H
  005a2	83 e9 06	 sub	 ecx, 6
  005a5	8b 85 30 ff ff
	ff		 mov	 eax, DWORD PTR $T35005[ebp]
  005ab	d3 e0		 shl	 eax, cl
  005ad	8b 8d 30 ff ff
	ff		 mov	 ecx, DWORD PTR $T35005[ebp]
  005b3	c1 e9 06	 shr	 ecx, 6
  005b6	0b c8		 or	 ecx, eax
  005b8	03 0d 10 00 00
	00		 add	 ecx, DWORD PTR _SHA256_K+16
  005be	03 d1		 add	 edx, ecx
  005c0	03 55 b0	 add	 edx, DWORD PTR _W$[ebp+16]
  005c3	03 55 ec	 add	 edx, DWORD PTR _T$[ebp+12]
  005c6	89 55 ec	 mov	 DWORD PTR _T$[ebp+12], edx
  005c9	8b 55 fc	 mov	 edx, DWORD PTR _T$[ebp+28]
  005cc	03 55 ec	 add	 edx, DWORD PTR _T$[ebp+12]
  005cf	89 55 fc	 mov	 DWORD PTR _T$[ebp+28], edx
  005d2	8b 45 f0	 mov	 eax, DWORD PTR _T$[ebp+16]
  005d5	c1 e8 09	 shr	 eax, 9
  005d8	b9 20 00 00 00	 mov	 ecx, 32			; 00000020H
  005dd	83 e9 09	 sub	 ecx, 9
  005e0	8b 55 f0	 mov	 edx, DWORD PTR _T$[ebp+16]
  005e3	d3 e2		 shl	 edx, cl
  005e5	0b c2		 or	 eax, edx
  005e7	89 85 2c ff ff
	ff		 mov	 DWORD PTR $T35009[ebp], eax
  005ed	8b 45 f0	 mov	 eax, DWORD PTR _T$[ebp+16]
  005f0	33 85 2c ff ff
	ff		 xor	 eax, DWORD PTR $T35009[ebp]
  005f6	89 85 28 ff ff
	ff		 mov	 DWORD PTR $T35013[ebp], eax
  005fc	b9 20 00 00 00	 mov	 ecx, 32			; 00000020H
  00601	83 e9 0b	 sub	 ecx, 11			; 0000000bH
  00604	8b 95 28 ff ff
	ff		 mov	 edx, DWORD PTR $T35013[ebp]
  0060a	d3 e2		 shl	 edx, cl
  0060c	8b 85 28 ff ff
	ff		 mov	 eax, DWORD PTR $T35013[ebp]
  00612	c1 e8 0b	 shr	 eax, 11			; 0000000bH
  00615	0b c2		 or	 eax, edx
  00617	33 45 f0	 xor	 eax, DWORD PTR _T$[ebp+16]
  0061a	89 85 24 ff ff
	ff		 mov	 DWORD PTR $T35017[ebp], eax
  00620	8b 55 f4	 mov	 edx, DWORD PTR _T$[ebp+20]
  00623	33 55 f8	 xor	 edx, DWORD PTR _T$[ebp+24]
  00626	23 55 f0	 and	 edx, DWORD PTR _T$[ebp+16]
  00629	8b 45 f4	 mov	 eax, DWORD PTR _T$[ebp+20]
  0062c	23 45 f8	 and	 eax, DWORD PTR _T$[ebp+24]
  0062f	03 d0		 add	 edx, eax
  00631	b9 20 00 00 00	 mov	 ecx, 32			; 00000020H
  00636	83 e9 02	 sub	 ecx, 2
  00639	8b 85 24 ff ff
	ff		 mov	 eax, DWORD PTR $T35017[ebp]
  0063f	d3 e0		 shl	 eax, cl
  00641	8b 8d 24 ff ff
	ff		 mov	 ecx, DWORD PTR $T35017[ebp]
  00647	c1 e9 02	 shr	 ecx, 2
  0064a	0b c8		 or	 ecx, eax
  0064c	03 55 ec	 add	 edx, DWORD PTR _T$[ebp+12]
  0064f	03 d1		 add	 edx, ecx
  00651	89 55 ec	 mov	 DWORD PTR _T$[ebp+12], edx
  00654	8b 55 0c	 mov	 edx, DWORD PTR _data$[ebp]
  00657	8b 42 14	 mov	 eax, DWORD PTR [edx+20]
  0065a	c1 e0 18	 shl	 eax, 24			; 00000018H
  0065d	8b 4d 0c	 mov	 ecx, DWORD PTR _data$[ebp]
  00660	8b 51 14	 mov	 edx, DWORD PTR [ecx+20]
  00663	c1 e2 08	 shl	 edx, 8
  00666	81 e2 00 00 ff
	00		 and	 edx, 16711680		; 00ff0000H
  0066c	0b c2		 or	 eax, edx
  0066e	8b 4d 0c	 mov	 ecx, DWORD PTR _data$[ebp]
  00671	8b 51 14	 mov	 edx, DWORD PTR [ecx+20]
  00674	c1 ea 08	 shr	 edx, 8
  00677	81 e2 00 ff 00
	00		 and	 edx, 65280		; 0000ff00H
  0067d	0b c2		 or	 eax, edx
  0067f	8b 4d 0c	 mov	 ecx, DWORD PTR _data$[ebp]
  00682	8b 51 14	 mov	 edx, DWORD PTR [ecx+20]
  00685	c1 ea 18	 shr	 edx, 24			; 00000018H
  00688	0b c2		 or	 eax, edx
  0068a	89 45 b4	 mov	 DWORD PTR _W$[ebp+20], eax
  0068d	8b 45 fc	 mov	 eax, DWORD PTR _T$[ebp+28]
  00690	c1 e8 0e	 shr	 eax, 14			; 0000000eH
  00693	b9 20 00 00 00	 mov	 ecx, 32			; 00000020H
  00698	83 e9 0e	 sub	 ecx, 14			; 0000000eH
  0069b	8b 55 fc	 mov	 edx, DWORD PTR _T$[ebp+28]
  0069e	d3 e2		 shl	 edx, cl
  006a0	0b c2		 or	 eax, edx
  006a2	89 85 20 ff ff
	ff		 mov	 DWORD PTR $T35021[ebp], eax
  006a8	8b 45 fc	 mov	 eax, DWORD PTR _T$[ebp+28]
  006ab	33 85 20 ff ff
	ff		 xor	 eax, DWORD PTR $T35021[ebp]
  006b1	89 85 1c ff ff
	ff		 mov	 DWORD PTR $T35025[ebp], eax
  006b7	b9 20 00 00 00	 mov	 ecx, 32			; 00000020H
  006bc	83 e9 05	 sub	 ecx, 5
  006bf	8b 95 1c ff ff
	ff		 mov	 edx, DWORD PTR $T35025[ebp]
  006c5	d3 e2		 shl	 edx, cl
  006c7	8b 85 1c ff ff
	ff		 mov	 eax, DWORD PTR $T35025[ebp]
  006cd	c1 e8 05	 shr	 eax, 5
  006d0	0b c2		 or	 eax, edx
  006d2	33 45 fc	 xor	 eax, DWORD PTR _T$[ebp+28]
  006d5	89 85 18 ff ff
	ff		 mov	 DWORD PTR $T35029[ebp], eax
  006db	8b 55 e0	 mov	 edx, DWORD PTR _T$[ebp]
  006de	33 55 e4	 xor	 edx, DWORD PTR _T$[ebp+4]
  006e1	23 55 fc	 and	 edx, DWORD PTR _T$[ebp+28]
  006e4	33 55 e4	 xor	 edx, DWORD PTR _T$[ebp+4]
  006e7	b9 20 00 00 00	 mov	 ecx, 32			; 00000020H
  006ec	83 e9 06	 sub	 ecx, 6
  006ef	8b 85 18 ff ff
	ff		 mov	 eax, DWORD PTR $T35029[ebp]
  006f5	d3 e0		 shl	 eax, cl
  006f7	8b 8d 18 ff ff
	ff		 mov	 ecx, DWORD PTR $T35029[ebp]
  006fd	c1 e9 06	 shr	 ecx, 6
  00700	0b c8		 or	 ecx, eax
  00702	03 0d 14 00 00
	00		 add	 ecx, DWORD PTR _SHA256_K+20
  00708	03 d1		 add	 edx, ecx
  0070a	03 55 b4	 add	 edx, DWORD PTR _W$[ebp+20]
  0070d	03 55 e8	 add	 edx, DWORD PTR _T$[ebp+8]
  00710	89 55 e8	 mov	 DWORD PTR _T$[ebp+8], edx
  00713	8b 55 f8	 mov	 edx, DWORD PTR _T$[ebp+24]
  00716	03 55 e8	 add	 edx, DWORD PTR _T$[ebp+8]
  00719	89 55 f8	 mov	 DWORD PTR _T$[ebp+24], edx
  0071c	8b 45 ec	 mov	 eax, DWORD PTR _T$[ebp+12]
  0071f	c1 e8 09	 shr	 eax, 9
  00722	b9 20 00 00 00	 mov	 ecx, 32			; 00000020H
  00727	83 e9 09	 sub	 ecx, 9
  0072a	8b 55 ec	 mov	 edx, DWORD PTR _T$[ebp+12]
  0072d	d3 e2		 shl	 edx, cl
  0072f	0b c2		 or	 eax, edx
  00731	89 85 14 ff ff
	ff		 mov	 DWORD PTR $T35033[ebp], eax
  00737	8b 45 ec	 mov	 eax, DWORD PTR _T$[ebp+12]
  0073a	33 85 14 ff ff
	ff		 xor	 eax, DWORD PTR $T35033[ebp]
  00740	89 85 10 ff ff
	ff		 mov	 DWORD PTR $T35037[ebp], eax
  00746	b9 20 00 00 00	 mov	 ecx, 32			; 00000020H
  0074b	83 e9 0b	 sub	 ecx, 11			; 0000000bH
  0074e	8b 95 10 ff ff
	ff		 mov	 edx, DWORD PTR $T35037[ebp]
  00754	d3 e2		 shl	 edx, cl
  00756	8b 85 10 ff ff
	ff		 mov	 eax, DWORD PTR $T35037[ebp]
  0075c	c1 e8 0b	 shr	 eax, 11			; 0000000bH
  0075f	0b c2		 or	 eax, edx
  00761	33 45 ec	 xor	 eax, DWORD PTR _T$[ebp+12]
  00764	89 85 0c ff ff
	ff		 mov	 DWORD PTR $T35041[ebp], eax
  0076a	8b 55 f0	 mov	 edx, DWORD PTR _T$[ebp+16]
  0076d	33 55 f4	 xor	 edx, DWORD PTR _T$[ebp+20]
  00770	23 55 ec	 and	 edx, DWORD PTR _T$[ebp+12]
  00773	8b 45 f0	 mov	 eax, DWORD PTR _T$[ebp+16]
  00776	23 45 f4	 and	 eax, DWORD PTR _T$[ebp+20]
  00779	03 d0		 add	 edx, eax
  0077b	b9 20 00 00 00	 mov	 ecx, 32			; 00000020H
  00780	83 e9 02	 sub	 ecx, 2
  00783	8b 85 0c ff ff
	ff		 mov	 eax, DWORD PTR $T35041[ebp]
  00789	d3 e0		 shl	 eax, cl
  0078b	8b 8d 0c ff ff
	ff		 mov	 ecx, DWORD PTR $T35041[ebp]
  00791	c1 e9 02	 shr	 ecx, 2
  00794	0b c8		 or	 ecx, eax
  00796	03 55 e8	 add	 edx, DWORD PTR _T$[ebp+8]
  00799	03 d1		 add	 edx, ecx
  0079b	89 55 e8	 mov	 DWORD PTR _T$[ebp+8], edx
  0079e	8b 55 0c	 mov	 edx, DWORD PTR _data$[ebp]
  007a1	8b 42 18	 mov	 eax, DWORD PTR [edx+24]
  007a4	c1 e0 18	 shl	 eax, 24			; 00000018H
  007a7	8b 4d 0c	 mov	 ecx, DWORD PTR _data$[ebp]
  007aa	8b 51 18	 mov	 edx, DWORD PTR [ecx+24]
  007ad	c1 e2 08	 shl	 edx, 8
  007b0	81 e2 00 00 ff
	00		 and	 edx, 16711680		; 00ff0000H
  007b6	0b c2		 or	 eax, edx
  007b8	8b 4d 0c	 mov	 ecx, DWORD PTR _data$[ebp]
  007bb	8b 51 18	 mov	 edx, DWORD PTR [ecx+24]
  007be	c1 ea 08	 shr	 edx, 8
  007c1	81 e2 00 ff 00
	00		 and	 edx, 65280		; 0000ff00H
  007c7	0b c2		 or	 eax, edx
  007c9	8b 4d 0c	 mov	 ecx, DWORD PTR _data$[ebp]
  007cc	8b 51 18	 mov	 edx, DWORD PTR [ecx+24]
  007cf	c1 ea 18	 shr	 edx, 24			; 00000018H
  007d2	0b c2		 or	 eax, edx
  007d4	89 45 b8	 mov	 DWORD PTR _W$[ebp+24], eax
  007d7	8b 45 f8	 mov	 eax, DWORD PTR _T$[ebp+24]
  007da	c1 e8 0e	 shr	 eax, 14			; 0000000eH
  007dd	b9 20 00 00 00	 mov	 ecx, 32			; 00000020H
  007e2	83 e9 0e	 sub	 ecx, 14			; 0000000eH
  007e5	8b 55 f8	 mov	 edx, DWORD PTR _T$[ebp+24]
  007e8	d3 e2		 shl	 edx, cl
  007ea	0b c2		 or	 eax, edx
  007ec	89 85 08 ff ff
	ff		 mov	 DWORD PTR $T35045[ebp], eax
  007f2	8b 45 f8	 mov	 eax, DWORD PTR _T$[ebp+24]
  007f5	33 85 08 ff ff
	ff		 xor	 eax, DWORD PTR $T35045[ebp]
  007fb	89 85 04 ff ff
	ff		 mov	 DWORD PTR $T35049[ebp], eax
  00801	b9 20 00 00 00	 mov	 ecx, 32			; 00000020H
  00806	83 e9 05	 sub	 ecx, 5
  00809	8b 95 04 ff ff
	ff		 mov	 edx, DWORD PTR $T35049[ebp]
  0080f	d3 e2		 shl	 edx, cl
  00811	8b 85 04 ff ff
	ff		 mov	 eax, DWORD PTR $T35049[ebp]
  00817	c1 e8 05	 shr	 eax, 5
  0081a	0b c2		 or	 eax, edx
  0081c	33 45 f8	 xor	 eax, DWORD PTR _T$[ebp+24]
  0081f	89 85 00 ff ff
	ff		 mov	 DWORD PTR $T35053[ebp], eax
  00825	8b 55 fc	 mov	 edx, DWORD PTR _T$[ebp+28]
  00828	33 55 e0	 xor	 edx, DWORD PTR _T$[ebp]
  0082b	23 55 f8	 and	 edx, DWORD PTR _T$[ebp+24]
  0082e	33 55 e0	 xor	 edx, DWORD PTR _T$[ebp]
  00831	b9 20 00 00 00	 mov	 ecx, 32			; 00000020H
  00836	83 e9 06	 sub	 ecx, 6
  00839	8b 85 00 ff ff
	ff		 mov	 eax, DWORD PTR $T35053[ebp]
  0083f	d3 e0		 shl	 eax, cl
  00841	8b 8d 00 ff ff
	ff		 mov	 ecx, DWORD PTR $T35053[ebp]
  00847	c1 e9 06	 shr	 ecx, 6
  0084a	0b c8		 or	 ecx, eax
  0084c	03 0d 18 00 00
	00		 add	 ecx, DWORD PTR _SHA256_K+24
  00852	03 d1		 add	 edx, ecx
  00854	03 55 b8	 add	 edx, DWORD PTR _W$[ebp+24]
  00857	03 55 e4	 add	 edx, DWORD PTR _T$[ebp+4]
  0085a	89 55 e4	 mov	 DWORD PTR _T$[ebp+4], edx
  0085d	8b 55 f4	 mov	 edx, DWORD PTR _T$[ebp+20]
  00860	03 55 e4	 add	 edx, DWORD PTR _T$[ebp+4]
  00863	89 55 f4	 mov	 DWORD PTR _T$[ebp+20], edx
  00866	8b 45 e8	 mov	 eax, DWORD PTR _T$[ebp+8]
  00869	c1 e8 09	 shr	 eax, 9
  0086c	b9 20 00 00 00	 mov	 ecx, 32			; 00000020H
  00871	83 e9 09	 sub	 ecx, 9
  00874	8b 55 e8	 mov	 edx, DWORD PTR _T$[ebp+8]
  00877	d3 e2		 shl	 edx, cl
  00879	0b c2		 or	 eax, edx
  0087b	89 85 fc fe ff
	ff		 mov	 DWORD PTR $T35057[ebp], eax
  00881	8b 45 e8	 mov	 eax, DWORD PTR _T$[ebp+8]
  00884	33 85 fc fe ff
	ff		 xor	 eax, DWORD PTR $T35057[ebp]
  0088a	89 85 f8 fe ff
	ff		 mov	 DWORD PTR $T35061[ebp], eax
  00890	b9 20 00 00 00	 mov	 ecx, 32			; 00000020H
  00895	83 e9 0b	 sub	 ecx, 11			; 0000000bH
  00898	8b 95 f8 fe ff
	ff		 mov	 edx, DWORD PTR $T35061[ebp]
  0089e	d3 e2		 shl	 edx, cl
  008a0	8b 85 f8 fe ff
	ff		 mov	 eax, DWORD PTR $T35061[ebp]
  008a6	c1 e8 0b	 shr	 eax, 11			; 0000000bH
  008a9	0b c2		 or	 eax, edx
  008ab	33 45 e8	 xor	 eax, DWORD PTR _T$[ebp+8]
  008ae	89 85 f4 fe ff
	ff		 mov	 DWORD PTR $T35065[ebp], eax
  008b4	8b 55 ec	 mov	 edx, DWORD PTR _T$[ebp+12]
  008b7	33 55 f0	 xor	 edx, DWORD PTR _T$[ebp+16]
  008ba	23 55 e8	 and	 edx, DWORD PTR _T$[ebp+8]
  008bd	8b 45 ec	 mov	 eax, DWORD PTR _T$[ebp+12]
  008c0	23 45 f0	 and	 eax, DWORD PTR _T$[ebp+16]
  008c3	03 d0		 add	 edx, eax
  008c5	b9 20 00 00 00	 mov	 ecx, 32			; 00000020H
  008ca	83 e9 02	 sub	 ecx, 2
  008cd	8b 85 f4 fe ff
	ff		 mov	 eax, DWORD PTR $T35065[ebp]
  008d3	d3 e0		 shl	 eax, cl
  008d5	8b 8d f4 fe ff
	ff		 mov	 ecx, DWORD PTR $T35065[ebp]
  008db	c1 e9 02	 shr	 ecx, 2
  008de	0b c8		 or	 ecx, eax
  008e0	03 55 e4	 add	 edx, DWORD PTR _T$[ebp+4]
  008e3	03 d1		 add	 edx, ecx
  008e5	89 55 e4	 mov	 DWORD PTR _T$[ebp+4], edx
  008e8	8b 55 0c	 mov	 edx, DWORD PTR _data$[ebp]
  008eb	8b 42 1c	 mov	 eax, DWORD PTR [edx+28]
  008ee	c1 e0 18	 shl	 eax, 24			; 00000018H
  008f1	8b 4d 0c	 mov	 ecx, DWORD PTR _data$[ebp]
  008f4	8b 51 1c	 mov	 edx, DWORD PTR [ecx+28]
  008f7	c1 e2 08	 shl	 edx, 8
  008fa	81 e2 00 00 ff
	00		 and	 edx, 16711680		; 00ff0000H
  00900	0b c2		 or	 eax, edx
  00902	8b 4d 0c	 mov	 ecx, DWORD PTR _data$[ebp]
  00905	8b 51 1c	 mov	 edx, DWORD PTR [ecx+28]
  00908	c1 ea 08	 shr	 edx, 8
  0090b	81 e2 00 ff 00
	00		 and	 edx, 65280		; 0000ff00H
  00911	0b c2		 or	 eax, edx
  00913	8b 4d 0c	 mov	 ecx, DWORD PTR _data$[ebp]
  00916	8b 51 1c	 mov	 edx, DWORD PTR [ecx+28]
  00919	c1 ea 18	 shr	 edx, 24			; 00000018H
  0091c	0b c2		 or	 eax, edx
  0091e	89 45 bc	 mov	 DWORD PTR _W$[ebp+28], eax
  00921	8b 45 f4	 mov	 eax, DWORD PTR _T$[ebp+20]
  00924	c1 e8 0e	 shr	 eax, 14			; 0000000eH
  00927	b9 20 00 00 00	 mov	 ecx, 32			; 00000020H
  0092c	83 e9 0e	 sub	 ecx, 14			; 0000000eH
  0092f	8b 55 f4	 mov	 edx, DWORD PTR _T$[ebp+20]
  00932	d3 e2		 shl	 edx, cl
  00934	0b c2		 or	 eax, edx
  00936	89 85 f0 fe ff
	ff		 mov	 DWORD PTR $T35069[ebp], eax
  0093c	8b 45 f4	 mov	 eax, DWORD PTR _T$[ebp+20]
  0093f	33 85 f0 fe ff
	ff		 xor	 eax, DWORD PTR $T35069[ebp]
  00945	89 85 ec fe ff
	ff		 mov	 DWORD PTR $T35073[ebp], eax
  0094b	b9 20 00 00 00	 mov	 ecx, 32			; 00000020H
  00950	83 e9 05	 sub	 ecx, 5
  00953	8b 95 ec fe ff
	ff		 mov	 edx, DWORD PTR $T35073[ebp]
  00959	d3 e2		 shl	 edx, cl
  0095b	8b 85 ec fe ff
	ff		 mov	 eax, DWORD PTR $T35073[ebp]
  00961	c1 e8 05	 shr	 eax, 5
  00964	0b c2		 or	 eax, edx
  00966	33 45 f4	 xor	 eax, DWORD PTR _T$[ebp+20]
  00969	89 85 e8 fe ff
	ff		 mov	 DWORD PTR $T35077[ebp], eax
  0096f	8b 55 f8	 mov	 edx, DWORD PTR _T$[ebp+24]
  00972	33 55 fc	 xor	 edx, DWORD PTR _T$[ebp+28]
  00975	23 55 f4	 and	 edx, DWORD PTR _T$[ebp+20]
  00978	33 55 fc	 xor	 edx, DWORD PTR _T$[ebp+28]
  0097b	b9 20 00 00 00	 mov	 ecx, 32			; 00000020H
  00980	83 e9 06	 sub	 ecx, 6
  00983	8b 85 e8 fe ff
	ff		 mov	 eax, DWORD PTR $T35077[ebp]
  00989	d3 e0		 shl	 eax, cl
  0098b	8b 8d e8 fe ff
	ff		 mov	 ecx, DWORD PTR $T35077[ebp]
  00991	c1 e9 06	 shr	 ecx, 6
  00994	0b c8		 or	 ecx, eax
  00996	03 0d 1c 00 00
	00		 add	 ecx, DWORD PTR _SHA256_K+28
  0099c	03 d1		 add	 edx, ecx
  0099e	03 55 bc	 add	 edx, DWORD PTR _W$[ebp+28]
  009a1	03 55 e0	 add	 edx, DWORD PTR _T$[ebp]
  009a4	89 55 e0	 mov	 DWORD PTR _T$[ebp], edx
  009a7	8b 55 f0	 mov	 edx, DWORD PTR _T$[ebp+16]
  009aa	03 55 e0	 add	 edx, DWORD PTR _T$[ebp]
  009ad	89 55 f0	 mov	 DWORD PTR _T$[ebp+16], edx
  009b0	8b 45 e4	 mov	 eax, DWORD PTR _T$[ebp+4]
  009b3	c1 e8 09	 shr	 eax, 9
  009b6	b9 20 00 00 00	 mov	 ecx, 32			; 00000020H
  009bb	83 e9 09	 sub	 ecx, 9
  009be	8b 55 e4	 mov	 edx, DWORD PTR _T$[ebp+4]
  009c1	d3 e2		 shl	 edx, cl
  009c3	0b c2		 or	 eax, edx
  009c5	89 85 e4 fe ff
	ff		 mov	 DWORD PTR $T35081[ebp], eax
  009cb	8b 45 e4	 mov	 eax, DWORD PTR _T$[ebp+4]
  009ce	33 85 e4 fe ff
	ff		 xor	 eax, DWORD PTR $T35081[ebp]
  009d4	89 85 e0 fe ff
	ff		 mov	 DWORD PTR $T35085[ebp], eax
  009da	b9 20 00 00 00	 mov	 ecx, 32			; 00000020H
  009df	83 e9 0b	 sub	 ecx, 11			; 0000000bH
  009e2	8b 95 e0 fe ff
	ff		 mov	 edx, DWORD PTR $T35085[ebp]
  009e8	d3 e2		 shl	 edx, cl
  009ea	8b 85 e0 fe ff
	ff		 mov	 eax, DWORD PTR $T35085[ebp]
  009f0	c1 e8 0b	 shr	 eax, 11			; 0000000bH
  009f3	0b c2		 or	 eax, edx
  009f5	33 45 e4	 xor	 eax, DWORD PTR _T$[ebp+4]
  009f8	89 85 dc fe ff
	ff		 mov	 DWORD PTR $T35089[ebp], eax
  009fe	8b 55 e8	 mov	 edx, DWORD PTR _T$[ebp+8]
  00a01	33 55 ec	 xor	 edx, DWORD PTR _T$[ebp+12]
  00a04	23 55 e4	 and	 edx, DWORD PTR _T$[ebp+4]
  00a07	8b 45 e8	 mov	 eax, DWORD PTR _T$[ebp+8]
  00a0a	23 45 ec	 and	 eax, DWORD PTR _T$[ebp+12]
  00a0d	03 d0		 add	 edx, eax
  00a0f	b9 20 00 00 00	 mov	 ecx, 32			; 00000020H
  00a14	83 e9 02	 sub	 ecx, 2
  00a17	8b 85 dc fe ff
	ff		 mov	 eax, DWORD PTR $T35089[ebp]
  00a1d	d3 e0		 shl	 eax, cl
  00a1f	8b 8d dc fe ff
	ff		 mov	 ecx, DWORD PTR $T35089[ebp]
  00a25	c1 e9 02	 shr	 ecx, 2
  00a28	0b c8		 or	 ecx, eax
  00a2a	03 55 e0	 add	 edx, DWORD PTR _T$[ebp]
  00a2d	03 d1		 add	 edx, ecx
  00a2f	89 55 e0	 mov	 DWORD PTR _T$[ebp], edx

; 95   : 	R0( 8); R0( 9); R0(10); R0(11);

  00a32	8b 55 0c	 mov	 edx, DWORD PTR _data$[ebp]
  00a35	8b 42 20	 mov	 eax, DWORD PTR [edx+32]
  00a38	c1 e0 18	 shl	 eax, 24			; 00000018H
  00a3b	8b 4d 0c	 mov	 ecx, DWORD PTR _data$[ebp]
  00a3e	8b 51 20	 mov	 edx, DWORD PTR [ecx+32]
  00a41	c1 e2 08	 shl	 edx, 8
  00a44	81 e2 00 00 ff
	00		 and	 edx, 16711680		; 00ff0000H
  00a4a	0b c2		 or	 eax, edx
  00a4c	8b 4d 0c	 mov	 ecx, DWORD PTR _data$[ebp]
  00a4f	8b 51 20	 mov	 edx, DWORD PTR [ecx+32]
  00a52	c1 ea 08	 shr	 edx, 8
  00a55	81 e2 00 ff 00
	00		 and	 edx, 65280		; 0000ff00H
  00a5b	0b c2		 or	 eax, edx
  00a5d	8b 4d 0c	 mov	 ecx, DWORD PTR _data$[ebp]
  00a60	8b 51 20	 mov	 edx, DWORD PTR [ecx+32]
  00a63	c1 ea 18	 shr	 edx, 24			; 00000018H
  00a66	0b c2		 or	 eax, edx
  00a68	89 45 c0	 mov	 DWORD PTR _W$[ebp+32], eax
  00a6b	8b 45 f0	 mov	 eax, DWORD PTR _T$[ebp+16]
  00a6e	c1 e8 0e	 shr	 eax, 14			; 0000000eH
  00a71	b9 20 00 00 00	 mov	 ecx, 32			; 00000020H
  00a76	83 e9 0e	 sub	 ecx, 14			; 0000000eH
  00a79	8b 55 f0	 mov	 edx, DWORD PTR _T$[ebp+16]
  00a7c	d3 e2		 shl	 edx, cl
  00a7e	0b c2		 or	 eax, edx
  00a80	89 85 d8 fe ff
	ff		 mov	 DWORD PTR $T35093[ebp], eax
  00a86	8b 45 f0	 mov	 eax, DWORD PTR _T$[ebp+16]
  00a89	33 85 d8 fe ff
	ff		 xor	 eax, DWORD PTR $T35093[ebp]
  00a8f	89 85 d4 fe ff
	ff		 mov	 DWORD PTR $T35097[ebp], eax
  00a95	b9 20 00 00 00	 mov	 ecx, 32			; 00000020H
  00a9a	83 e9 05	 sub	 ecx, 5
  00a9d	8b 95 d4 fe ff
	ff		 mov	 edx, DWORD PTR $T35097[ebp]
  00aa3	d3 e2		 shl	 edx, cl
  00aa5	8b 85 d4 fe ff
	ff		 mov	 eax, DWORD PTR $T35097[ebp]
  00aab	c1 e8 05	 shr	 eax, 5
  00aae	0b c2		 or	 eax, edx
  00ab0	33 45 f0	 xor	 eax, DWORD PTR _T$[ebp+16]
  00ab3	89 85 d0 fe ff
	ff		 mov	 DWORD PTR $T35101[ebp], eax
  00ab9	8b 55 f4	 mov	 edx, DWORD PTR _T$[ebp+20]
  00abc	33 55 f8	 xor	 edx, DWORD PTR _T$[ebp+24]
  00abf	23 55 f0	 and	 edx, DWORD PTR _T$[ebp+16]
  00ac2	33 55 f8	 xor	 edx, DWORD PTR _T$[ebp+24]
  00ac5	b9 20 00 00 00	 mov	 ecx, 32			; 00000020H
  00aca	83 e9 06	 sub	 ecx, 6
  00acd	8b 85 d0 fe ff
	ff		 mov	 eax, DWORD PTR $T35101[ebp]
  00ad3	d3 e0		 shl	 eax, cl
  00ad5	8b 8d d0 fe ff
	ff		 mov	 ecx, DWORD PTR $T35101[ebp]
  00adb	c1 e9 06	 shr	 ecx, 6
  00ade	0b c8		 or	 ecx, eax
  00ae0	03 0d 20 00 00
	00		 add	 ecx, DWORD PTR _SHA256_K+32
  00ae6	03 d1		 add	 edx, ecx
  00ae8	03 55 c0	 add	 edx, DWORD PTR _W$[ebp+32]
  00aeb	03 55 fc	 add	 edx, DWORD PTR _T$[ebp+28]
  00aee	89 55 fc	 mov	 DWORD PTR _T$[ebp+28], edx
  00af1	8b 55 ec	 mov	 edx, DWORD PTR _T$[ebp+12]
  00af4	03 55 fc	 add	 edx, DWORD PTR _T$[ebp+28]
  00af7	89 55 ec	 mov	 DWORD PTR _T$[ebp+12], edx
  00afa	8b 45 e0	 mov	 eax, DWORD PTR _T$[ebp]
  00afd	c1 e8 09	 shr	 eax, 9
  00b00	b9 20 00 00 00	 mov	 ecx, 32			; 00000020H
  00b05	83 e9 09	 sub	 ecx, 9
  00b08	8b 55 e0	 mov	 edx, DWORD PTR _T$[ebp]
  00b0b	d3 e2		 shl	 edx, cl
  00b0d	0b c2		 or	 eax, edx
  00b0f	89 85 cc fe ff
	ff		 mov	 DWORD PTR $T35105[ebp], eax
  00b15	8b 45 e0	 mov	 eax, DWORD PTR _T$[ebp]
  00b18	33 85 cc fe ff
	ff		 xor	 eax, DWORD PTR $T35105[ebp]
  00b1e	89 85 c8 fe ff
	ff		 mov	 DWORD PTR $T35109[ebp], eax
  00b24	b9 20 00 00 00	 mov	 ecx, 32			; 00000020H
  00b29	83 e9 0b	 sub	 ecx, 11			; 0000000bH
  00b2c	8b 95 c8 fe ff
	ff		 mov	 edx, DWORD PTR $T35109[ebp]
  00b32	d3 e2		 shl	 edx, cl
  00b34	8b 85 c8 fe ff
	ff		 mov	 eax, DWORD PTR $T35109[ebp]
  00b3a	c1 e8 0b	 shr	 eax, 11			; 0000000bH
  00b3d	0b c2		 or	 eax, edx
  00b3f	33 45 e0	 xor	 eax, DWORD PTR _T$[ebp]
  00b42	89 85 c4 fe ff
	ff		 mov	 DWORD PTR $T35113[ebp], eax
  00b48	8b 55 e4	 mov	 edx, DWORD PTR _T$[ebp+4]
  00b4b	33 55 e8	 xor	 edx, DWORD PTR _T$[ebp+8]
  00b4e	23 55 e0	 and	 edx, DWORD PTR _T$[ebp]
  00b51	8b 45 e4	 mov	 eax, DWORD PTR _T$[ebp+4]
  00b54	23 45 e8	 and	 eax, DWORD PTR _T$[ebp+8]
  00b57	03 d0		 add	 edx, eax
  00b59	b9 20 00 00 00	 mov	 ecx, 32			; 00000020H
  00b5e	83 e9 02	 sub	 ecx, 2
  00b61	8b 85 c4 fe ff
	ff		 mov	 eax, DWORD PTR $T35113[ebp]
  00b67	d3 e0		 shl	 eax, cl
  00b69	8b 8d c4 fe ff
	ff		 mov	 ecx, DWORD PTR $T35113[ebp]
  00b6f	c1 e9 02	 shr	 ecx, 2
  00b72	0b c8		 or	 ecx, eax
  00b74	03 55 fc	 add	 edx, DWORD PTR _T$[ebp+28]
  00b77	03 d1		 add	 edx, ecx
  00b79	89 55 fc	 mov	 DWORD PTR _T$[ebp+28], edx
  00b7c	8b 55 0c	 mov	 edx, DWORD PTR _data$[ebp]
  00b7f	8b 42 24	 mov	 eax, DWORD PTR [edx+36]
  00b82	c1 e0 18	 shl	 eax, 24			; 00000018H
  00b85	8b 4d 0c	 mov	 ecx, DWORD PTR _data$[ebp]
  00b88	8b 51 24	 mov	 edx, DWORD PTR [ecx+36]
  00b8b	c1 e2 08	 shl	 edx, 8
  00b8e	81 e2 00 00 ff
	00		 and	 edx, 16711680		; 00ff0000H
  00b94	0b c2		 or	 eax, edx
  00b96	8b 4d 0c	 mov	 ecx, DWORD PTR _data$[ebp]
  00b99	8b 51 24	 mov	 edx, DWORD PTR [ecx+36]
  00b9c	c1 ea 08	 shr	 edx, 8
  00b9f	81 e2 00 ff 00
	00		 and	 edx, 65280		; 0000ff00H
  00ba5	0b c2		 or	 eax, edx
  00ba7	8b 4d 0c	 mov	 ecx, DWORD PTR _data$[ebp]
  00baa	8b 51 24	 mov	 edx, DWORD PTR [ecx+36]
  00bad	c1 ea 18	 shr	 edx, 24			; 00000018H
  00bb0	0b c2		 or	 eax, edx
  00bb2	89 45 c4	 mov	 DWORD PTR _W$[ebp+36], eax
  00bb5	8b 45 ec	 mov	 eax, DWORD PTR _T$[ebp+12]
  00bb8	c1 e8 0e	 shr	 eax, 14			; 0000000eH
  00bbb	b9 20 00 00 00	 mov	 ecx, 32			; 00000020H
  00bc0	83 e9 0e	 sub	 ecx, 14			; 0000000eH
  00bc3	8b 55 ec	 mov	 edx, DWORD PTR _T$[ebp+12]
  00bc6	d3 e2		 shl	 edx, cl
  00bc8	0b c2		 or	 eax, edx
  00bca	89 85 c0 fe ff
	ff		 mov	 DWORD PTR $T35117[ebp], eax
  00bd0	8b 45 ec	 mov	 eax, DWORD PTR _T$[ebp+12]
  00bd3	33 85 c0 fe ff
	ff		 xor	 eax, DWORD PTR $T35117[ebp]
  00bd9	89 85 bc fe ff
	ff		 mov	 DWORD PTR $T35121[ebp], eax
  00bdf	b9 20 00 00 00	 mov	 ecx, 32			; 00000020H
  00be4	83 e9 05	 sub	 ecx, 5
  00be7	8b 95 bc fe ff
	ff		 mov	 edx, DWORD PTR $T35121[ebp]
  00bed	d3 e2		 shl	 edx, cl
  00bef	8b 85 bc fe ff
	ff		 mov	 eax, DWORD PTR $T35121[ebp]
  00bf5	c1 e8 05	 shr	 eax, 5
  00bf8	0b c2		 or	 eax, edx
  00bfa	33 45 ec	 xor	 eax, DWORD PTR _T$[ebp+12]
  00bfd	89 85 b8 fe ff
	ff		 mov	 DWORD PTR $T35125[ebp], eax
  00c03	8b 55 f0	 mov	 edx, DWORD PTR _T$[ebp+16]
  00c06	33 55 f4	 xor	 edx, DWORD PTR _T$[ebp+20]
  00c09	23 55 ec	 and	 edx, DWORD PTR _T$[ebp+12]
  00c0c	33 55 f4	 xor	 edx, DWORD PTR _T$[ebp+20]
  00c0f	b9 20 00 00 00	 mov	 ecx, 32			; 00000020H
  00c14	83 e9 06	 sub	 ecx, 6
  00c17	8b 85 b8 fe ff
	ff		 mov	 eax, DWORD PTR $T35125[ebp]
  00c1d	d3 e0		 shl	 eax, cl
  00c1f	8b 8d b8 fe ff
	ff		 mov	 ecx, DWORD PTR $T35125[ebp]
  00c25	c1 e9 06	 shr	 ecx, 6
  00c28	0b c8		 or	 ecx, eax
  00c2a	03 0d 24 00 00
	00		 add	 ecx, DWORD PTR _SHA256_K+36
  00c30	03 d1		 add	 edx, ecx
  00c32	03 55 c4	 add	 edx, DWORD PTR _W$[ebp+36]
  00c35	03 55 f8	 add	 edx, DWORD PTR _T$[ebp+24]
  00c38	89 55 f8	 mov	 DWORD PTR _T$[ebp+24], edx
  00c3b	8b 55 e8	 mov	 edx, DWORD PTR _T$[ebp+8]
  00c3e	03 55 f8	 add	 edx, DWORD PTR _T$[ebp+24]
  00c41	89 55 e8	 mov	 DWORD PTR _T$[ebp+8], edx
  00c44	8b 45 fc	 mov	 eax, DWORD PTR _T$[ebp+28]
  00c47	c1 e8 09	 shr	 eax, 9
  00c4a	b9 20 00 00 00	 mov	 ecx, 32			; 00000020H
  00c4f	83 e9 09	 sub	 ecx, 9
  00c52	8b 55 fc	 mov	 edx, DWORD PTR _T$[ebp+28]
  00c55	d3 e2		 shl	 edx, cl
  00c57	0b c2		 or	 eax, edx
  00c59	89 85 b4 fe ff
	ff		 mov	 DWORD PTR $T35129[ebp], eax
  00c5f	8b 45 fc	 mov	 eax, DWORD PTR _T$[ebp+28]
  00c62	33 85 b4 fe ff
	ff		 xor	 eax, DWORD PTR $T35129[ebp]
  00c68	89 85 b0 fe ff
	ff		 mov	 DWORD PTR $T35133[ebp], eax
  00c6e	b9 20 00 00 00	 mov	 ecx, 32			; 00000020H
  00c73	83 e9 0b	 sub	 ecx, 11			; 0000000bH
  00c76	8b 95 b0 fe ff
	ff		 mov	 edx, DWORD PTR $T35133[ebp]
  00c7c	d3 e2		 shl	 edx, cl
  00c7e	8b 85 b0 fe ff
	ff		 mov	 eax, DWORD PTR $T35133[ebp]
  00c84	c1 e8 0b	 shr	 eax, 11			; 0000000bH
  00c87	0b c2		 or	 eax, edx
  00c89	33 45 fc	 xor	 eax, DWORD PTR _T$[ebp+28]
  00c8c	89 85 ac fe ff
	ff		 mov	 DWORD PTR $T35137[ebp], eax
  00c92	8b 55 e0	 mov	 edx, DWORD PTR _T$[ebp]
  00c95	33 55 e4	 xor	 edx, DWORD PTR _T$[ebp+4]
  00c98	23 55 fc	 and	 edx, DWORD PTR _T$[ebp+28]
  00c9b	8b 45 e0	 mov	 eax, DWORD PTR _T$[ebp]
  00c9e	23 45 e4	 and	 eax, DWORD PTR _T$[ebp+4]
  00ca1	03 d0		 add	 edx, eax
  00ca3	b9 20 00 00 00	 mov	 ecx, 32			; 00000020H
  00ca8	83 e9 02	 sub	 ecx, 2
  00cab	8b 85 ac fe ff
	ff		 mov	 eax, DWORD PTR $T35137[ebp]
  00cb1	d3 e0		 shl	 eax, cl
  00cb3	8b 8d ac fe ff
	ff		 mov	 ecx, DWORD PTR $T35137[ebp]
  00cb9	c1 e9 02	 shr	 ecx, 2
  00cbc	0b c8		 or	 ecx, eax
  00cbe	03 55 f8	 add	 edx, DWORD PTR _T$[ebp+24]
  00cc1	03 d1		 add	 edx, ecx
  00cc3	89 55 f8	 mov	 DWORD PTR _T$[ebp+24], edx
  00cc6	8b 55 0c	 mov	 edx, DWORD PTR _data$[ebp]
  00cc9	8b 42 28	 mov	 eax, DWORD PTR [edx+40]
  00ccc	c1 e0 18	 shl	 eax, 24			; 00000018H
  00ccf	8b 4d 0c	 mov	 ecx, DWORD PTR _data$[ebp]
  00cd2	8b 51 28	 mov	 edx, DWORD PTR [ecx+40]
  00cd5	c1 e2 08	 shl	 edx, 8
  00cd8	81 e2 00 00 ff
	00		 and	 edx, 16711680		; 00ff0000H
  00cde	0b c2		 or	 eax, edx
  00ce0	8b 4d 0c	 mov	 ecx, DWORD PTR _data$[ebp]
  00ce3	8b 51 28	 mov	 edx, DWORD PTR [ecx+40]
  00ce6	c1 ea 08	 shr	 edx, 8
  00ce9	81 e2 00 ff 00
	00		 and	 edx, 65280		; 0000ff00H
  00cef	0b c2		 or	 eax, edx
  00cf1	8b 4d 0c	 mov	 ecx, DWORD PTR _data$[ebp]
  00cf4	8b 51 28	 mov	 edx, DWORD PTR [ecx+40]
  00cf7	c1 ea 18	 shr	 edx, 24			; 00000018H
  00cfa	0b c2		 or	 eax, edx
  00cfc	89 45 c8	 mov	 DWORD PTR _W$[ebp+40], eax
  00cff	8b 45 e8	 mov	 eax, DWORD PTR _T$[ebp+8]
  00d02	c1 e8 0e	 shr	 eax, 14			; 0000000eH
  00d05	b9 20 00 00 00	 mov	 ecx, 32			; 00000020H
  00d0a	83 e9 0e	 sub	 ecx, 14			; 0000000eH
  00d0d	8b 55 e8	 mov	 edx, DWORD PTR _T$[ebp+8]
  00d10	d3 e2		 shl	 edx, cl
  00d12	0b c2		 or	 eax, edx
  00d14	89 85 a8 fe ff
	ff		 mov	 DWORD PTR $T35141[ebp], eax
  00d1a	8b 45 e8	 mov	 eax, DWORD PTR _T$[ebp+8]
  00d1d	33 85 a8 fe ff
	ff		 xor	 eax, DWORD PTR $T35141[ebp]
  00d23	89 85 a4 fe ff
	ff		 mov	 DWORD PTR $T35145[ebp], eax
  00d29	b9 20 00 00 00	 mov	 ecx, 32			; 00000020H
  00d2e	83 e9 05	 sub	 ecx, 5
  00d31	8b 95 a4 fe ff
	ff		 mov	 edx, DWORD PTR $T35145[ebp]
  00d37	d3 e2		 shl	 edx, cl
  00d39	8b 85 a4 fe ff
	ff		 mov	 eax, DWORD PTR $T35145[ebp]
  00d3f	c1 e8 05	 shr	 eax, 5
  00d42	0b c2		 or	 eax, edx
  00d44	33 45 e8	 xor	 eax, DWORD PTR _T$[ebp+8]
  00d47	89 85 a0 fe ff
	ff		 mov	 DWORD PTR $T35149[ebp], eax
  00d4d	8b 55 ec	 mov	 edx, DWORD PTR _T$[ebp+12]
  00d50	33 55 f0	 xor	 edx, DWORD PTR _T$[ebp+16]
  00d53	23 55 e8	 and	 edx, DWORD PTR _T$[ebp+8]
  00d56	33 55 f0	 xor	 edx, DWORD PTR _T$[ebp+16]
  00d59	b9 20 00 00 00	 mov	 ecx, 32			; 00000020H
  00d5e	83 e9 06	 sub	 ecx, 6
  00d61	8b 85 a0 fe ff
	ff		 mov	 eax, DWORD PTR $T35149[ebp]
  00d67	d3 e0		 shl	 eax, cl
  00d69	8b 8d a0 fe ff
	ff		 mov	 ecx, DWORD PTR $T35149[ebp]
  00d6f	c1 e9 06	 shr	 ecx, 6
  00d72	0b c8		 or	 ecx, eax
  00d74	03 0d 28 00 00
	00		 add	 ecx, DWORD PTR _SHA256_K+40
  00d7a	03 d1		 add	 edx, ecx
  00d7c	03 55 c8	 add	 edx, DWORD PTR _W$[ebp+40]
  00d7f	03 55 f4	 add	 edx, DWORD PTR _T$[ebp+20]
  00d82	89 55 f4	 mov	 DWORD PTR _T$[ebp+20], edx
  00d85	8b 55 e4	 mov	 edx, DWORD PTR _T$[ebp+4]
  00d88	03 55 f4	 add	 edx, DWORD PTR _T$[ebp+20]
  00d8b	89 55 e4	 mov	 DWORD PTR _T$[ebp+4], edx
  00d8e	8b 45 f8	 mov	 eax, DWORD PTR _T$[ebp+24]
  00d91	c1 e8 09	 shr	 eax, 9
  00d94	b9 20 00 00 00	 mov	 ecx, 32			; 00000020H
  00d99	83 e9 09	 sub	 ecx, 9
  00d9c	8b 55 f8	 mov	 edx, DWORD PTR _T$[ebp+24]
  00d9f	d3 e2		 shl	 edx, cl
  00da1	0b c2		 or	 eax, edx
  00da3	89 85 9c fe ff
	ff		 mov	 DWORD PTR $T35153[ebp], eax
  00da9	8b 45 f8	 mov	 eax, DWORD PTR _T$[ebp+24]
  00dac	33 85 9c fe ff
	ff		 xor	 eax, DWORD PTR $T35153[ebp]
  00db2	89 85 98 fe ff
	ff		 mov	 DWORD PTR $T35157[ebp], eax
  00db8	b9 20 00 00 00	 mov	 ecx, 32			; 00000020H
  00dbd	83 e9 0b	 sub	 ecx, 11			; 0000000bH
  00dc0	8b 95 98 fe ff
	ff		 mov	 edx, DWORD PTR $T35157[ebp]
  00dc6	d3 e2		 shl	 edx, cl
  00dc8	8b 85 98 fe ff
	ff		 mov	 eax, DWORD PTR $T35157[ebp]
  00dce	c1 e8 0b	 shr	 eax, 11			; 0000000bH
  00dd1	0b c2		 or	 eax, edx
  00dd3	33 45 f8	 xor	 eax, DWORD PTR _T$[ebp+24]
  00dd6	89 85 94 fe ff
	ff		 mov	 DWORD PTR $T35161[ebp], eax
  00ddc	8b 55 fc	 mov	 edx, DWORD PTR _T$[ebp+28]
  00ddf	33 55 e0	 xor	 edx, DWORD PTR _T$[ebp]
  00de2	23 55 f8	 and	 edx, DWORD PTR _T$[ebp+24]
  00de5	8b 45 fc	 mov	 eax, DWORD PTR _T$[ebp+28]
  00de8	23 45 e0	 and	 eax, DWORD PTR _T$[ebp]
  00deb	03 d0		 add	 edx, eax
  00ded	b9 20 00 00 00	 mov	 ecx, 32			; 00000020H
  00df2	83 e9 02	 sub	 ecx, 2
  00df5	8b 85 94 fe ff
	ff		 mov	 eax, DWORD PTR $T35161[ebp]
  00dfb	d3 e0		 shl	 eax, cl
  00dfd	8b 8d 94 fe ff
	ff		 mov	 ecx, DWORD PTR $T35161[ebp]
  00e03	c1 e9 02	 shr	 ecx, 2
  00e06	0b c8		 or	 ecx, eax
  00e08	03 55 f4	 add	 edx, DWORD PTR _T$[ebp+20]
  00e0b	03 d1		 add	 edx, ecx
  00e0d	89 55 f4	 mov	 DWORD PTR _T$[ebp+20], edx
  00e10	8b 55 0c	 mov	 edx, DWORD PTR _data$[ebp]
  00e13	8b 42 2c	 mov	 eax, DWORD PTR [edx+44]
  00e16	c1 e0 18	 shl	 eax, 24			; 00000018H
  00e19	8b 4d 0c	 mov	 ecx, DWORD PTR _data$[ebp]
  00e1c	8b 51 2c	 mov	 edx, DWORD PTR [ecx+44]
  00e1f	c1 e2 08	 shl	 edx, 8
  00e22	81 e2 00 00 ff
	00		 and	 edx, 16711680		; 00ff0000H
  00e28	0b c2		 or	 eax, edx
  00e2a	8b 4d 0c	 mov	 ecx, DWORD PTR _data$[ebp]
  00e2d	8b 51 2c	 mov	 edx, DWORD PTR [ecx+44]
  00e30	c1 ea 08	 shr	 edx, 8
  00e33	81 e2 00 ff 00
	00		 and	 edx, 65280		; 0000ff00H
  00e39	0b c2		 or	 eax, edx
  00e3b	8b 4d 0c	 mov	 ecx, DWORD PTR _data$[ebp]
  00e3e	8b 51 2c	 mov	 edx, DWORD PTR [ecx+44]
  00e41	c1 ea 18	 shr	 edx, 24			; 00000018H
  00e44	0b c2		 or	 eax, edx
  00e46	89 45 cc	 mov	 DWORD PTR _W$[ebp+44], eax
  00e49	8b 45 e4	 mov	 eax, DWORD PTR _T$[ebp+4]
  00e4c	c1 e8 0e	 shr	 eax, 14			; 0000000eH
  00e4f	b9 20 00 00 00	 mov	 ecx, 32			; 00000020H
  00e54	83 e9 0e	 sub	 ecx, 14			; 0000000eH
  00e57	8b 55 e4	 mov	 edx, DWORD PTR _T$[ebp+4]
  00e5a	d3 e2		 shl	 edx, cl
  00e5c	0b c2		 or	 eax, edx
  00e5e	89 85 90 fe ff
	ff		 mov	 DWORD PTR $T35165[ebp], eax
  00e64	8b 45 e4	 mov	 eax, DWORD PTR _T$[ebp+4]
  00e67	33 85 90 fe ff
	ff		 xor	 eax, DWORD PTR $T35165[ebp]
  00e6d	89 85 8c fe ff
	ff		 mov	 DWORD PTR $T35169[ebp], eax
  00e73	b9 20 00 00 00	 mov	 ecx, 32			; 00000020H
  00e78	83 e9 05	 sub	 ecx, 5
  00e7b	8b 95 8c fe ff
	ff		 mov	 edx, DWORD PTR $T35169[ebp]
  00e81	d3 e2		 shl	 edx, cl
  00e83	8b 85 8c fe ff
	ff		 mov	 eax, DWORD PTR $T35169[ebp]
  00e89	c1 e8 05	 shr	 eax, 5
  00e8c	0b c2		 or	 eax, edx
  00e8e	33 45 e4	 xor	 eax, DWORD PTR _T$[ebp+4]
  00e91	89 85 88 fe ff
	ff		 mov	 DWORD PTR $T35173[ebp], eax
  00e97	8b 55 e8	 mov	 edx, DWORD PTR _T$[ebp+8]
  00e9a	33 55 ec	 xor	 edx, DWORD PTR _T$[ebp+12]
  00e9d	23 55 e4	 and	 edx, DWORD PTR _T$[ebp+4]
  00ea0	33 55 ec	 xor	 edx, DWORD PTR _T$[ebp+12]
  00ea3	b9 20 00 00 00	 mov	 ecx, 32			; 00000020H
  00ea8	83 e9 06	 sub	 ecx, 6
  00eab	8b 85 88 fe ff
	ff		 mov	 eax, DWORD PTR $T35173[ebp]
  00eb1	d3 e0		 shl	 eax, cl
  00eb3	8b 8d 88 fe ff
	ff		 mov	 ecx, DWORD PTR $T35173[ebp]
  00eb9	c1 e9 06	 shr	 ecx, 6
  00ebc	0b c8		 or	 ecx, eax
  00ebe	03 0d 2c 00 00
	00		 add	 ecx, DWORD PTR _SHA256_K+44
  00ec4	03 d1		 add	 edx, ecx
  00ec6	03 55 cc	 add	 edx, DWORD PTR _W$[ebp+44]
  00ec9	03 55 f0	 add	 edx, DWORD PTR _T$[ebp+16]
  00ecc	89 55 f0	 mov	 DWORD PTR _T$[ebp+16], edx
  00ecf	8b 55 e0	 mov	 edx, DWORD PTR _T$[ebp]
  00ed2	03 55 f0	 add	 edx, DWORD PTR _T$[ebp+16]
  00ed5	89 55 e0	 mov	 DWORD PTR _T$[ebp], edx
  00ed8	8b 45 f4	 mov	 eax, DWORD PTR _T$[ebp+20]
  00edb	c1 e8 09	 shr	 eax, 9
  00ede	b9 20 00 00 00	 mov	 ecx, 32			; 00000020H
  00ee3	83 e9 09	 sub	 ecx, 9
  00ee6	8b 55 f4	 mov	 edx, DWORD PTR _T$[ebp+20]
  00ee9	d3 e2		 shl	 edx, cl
  00eeb	0b c2		 or	 eax, edx
  00eed	89 85 84 fe ff
	ff		 mov	 DWORD PTR $T35177[ebp], eax
  00ef3	8b 45 f4	 mov	 eax, DWORD PTR _T$[ebp+20]
  00ef6	33 85 84 fe ff
	ff		 xor	 eax, DWORD PTR $T35177[ebp]
  00efc	89 85 80 fe ff
	ff		 mov	 DWORD PTR $T35181[ebp], eax
  00f02	b9 20 00 00 00	 mov	 ecx, 32			; 00000020H
  00f07	83 e9 0b	 sub	 ecx, 11			; 0000000bH
  00f0a	8b 95 80 fe ff
	ff		 mov	 edx, DWORD PTR $T35181[ebp]
  00f10	d3 e2		 shl	 edx, cl
  00f12	8b 85 80 fe ff
	ff		 mov	 eax, DWORD PTR $T35181[ebp]
  00f18	c1 e8 0b	 shr	 eax, 11			; 0000000bH
  00f1b	0b c2		 or	 eax, edx
  00f1d	33 45 f4	 xor	 eax, DWORD PTR _T$[ebp+20]
  00f20	89 85 7c fe ff
	ff		 mov	 DWORD PTR $T35185[ebp], eax
  00f26	8b 55 f8	 mov	 edx, DWORD PTR _T$[ebp+24]
  00f29	33 55 fc	 xor	 edx, DWORD PTR _T$[ebp+28]
  00f2c	23 55 f4	 and	 edx, DWORD PTR _T$[ebp+20]
  00f2f	8b 45 f8	 mov	 eax, DWORD PTR _T$[ebp+24]
  00f32	23 45 fc	 and	 eax, DWORD PTR _T$[ebp+28]
  00f35	03 d0		 add	 edx, eax
  00f37	b9 20 00 00 00	 mov	 ecx, 32			; 00000020H
  00f3c	83 e9 02	 sub	 ecx, 2
  00f3f	8b 85 7c fe ff
	ff		 mov	 eax, DWORD PTR $T35185[ebp]
  00f45	d3 e0		 shl	 eax, cl
  00f47	8b 8d 7c fe ff
	ff		 mov	 ecx, DWORD PTR $T35185[ebp]
  00f4d	c1 e9 02	 shr	 ecx, 2
  00f50	0b c8		 or	 ecx, eax
  00f52	03 55 f0	 add	 edx, DWORD PTR _T$[ebp+16]
  00f55	03 d1		 add	 edx, ecx
  00f57	89 55 f0	 mov	 DWORD PTR _T$[ebp+16], edx

; 96   : 	R0(12); R0(13); R0(14); R0(15);

  00f5a	8b 55 0c	 mov	 edx, DWORD PTR _data$[ebp]
  00f5d	8b 42 30	 mov	 eax, DWORD PTR [edx+48]
  00f60	c1 e0 18	 shl	 eax, 24			; 00000018H
  00f63	8b 4d 0c	 mov	 ecx, DWORD PTR _data$[ebp]
  00f66	8b 51 30	 mov	 edx, DWORD PTR [ecx+48]
  00f69	c1 e2 08	 shl	 edx, 8
  00f6c	81 e2 00 00 ff
	00		 and	 edx, 16711680		; 00ff0000H
  00f72	0b c2		 or	 eax, edx
  00f74	8b 4d 0c	 mov	 ecx, DWORD PTR _data$[ebp]
  00f77	8b 51 30	 mov	 edx, DWORD PTR [ecx+48]
  00f7a	c1 ea 08	 shr	 edx, 8
  00f7d	81 e2 00 ff 00
	00		 and	 edx, 65280		; 0000ff00H
  00f83	0b c2		 or	 eax, edx
  00f85	8b 4d 0c	 mov	 ecx, DWORD PTR _data$[ebp]
  00f88	8b 51 30	 mov	 edx, DWORD PTR [ecx+48]
  00f8b	c1 ea 18	 shr	 edx, 24			; 00000018H
  00f8e	0b c2		 or	 eax, edx
  00f90	89 45 d0	 mov	 DWORD PTR _W$[ebp+48], eax
  00f93	8b 45 e0	 mov	 eax, DWORD PTR _T$[ebp]
  00f96	c1 e8 0e	 shr	 eax, 14			; 0000000eH
  00f99	b9 20 00 00 00	 mov	 ecx, 32			; 00000020H
  00f9e	83 e9 0e	 sub	 ecx, 14			; 0000000eH
  00fa1	8b 55 e0	 mov	 edx, DWORD PTR _T$[ebp]
  00fa4	d3 e2		 shl	 edx, cl
  00fa6	0b c2		 or	 eax, edx
  00fa8	89 85 78 fe ff
	ff		 mov	 DWORD PTR $T35189[ebp], eax
  00fae	8b 45 e0	 mov	 eax, DWORD PTR _T$[ebp]
  00fb1	33 85 78 fe ff
	ff		 xor	 eax, DWORD PTR $T35189[ebp]
  00fb7	89 85 74 fe ff
	ff		 mov	 DWORD PTR $T35193[ebp], eax
  00fbd	b9 20 00 00 00	 mov	 ecx, 32			; 00000020H
  00fc2	83 e9 05	 sub	 ecx, 5
  00fc5	8b 95 74 fe ff
	ff		 mov	 edx, DWORD PTR $T35193[ebp]
  00fcb	d3 e2		 shl	 edx, cl
  00fcd	8b 85 74 fe ff
	ff		 mov	 eax, DWORD PTR $T35193[ebp]
  00fd3	c1 e8 05	 shr	 eax, 5
  00fd6	0b c2		 or	 eax, edx
  00fd8	33 45 e0	 xor	 eax, DWORD PTR _T$[ebp]
  00fdb	89 85 70 fe ff
	ff		 mov	 DWORD PTR $T35197[ebp], eax
  00fe1	8b 55 e4	 mov	 edx, DWORD PTR _T$[ebp+4]
  00fe4	33 55 e8	 xor	 edx, DWORD PTR _T$[ebp+8]
  00fe7	23 55 e0	 and	 edx, DWORD PTR _T$[ebp]
  00fea	33 55 e8	 xor	 edx, DWORD PTR _T$[ebp+8]
  00fed	b9 20 00 00 00	 mov	 ecx, 32			; 00000020H
  00ff2	83 e9 06	 sub	 ecx, 6
  00ff5	8b 85 70 fe ff
	ff		 mov	 eax, DWORD PTR $T35197[ebp]
  00ffb	d3 e0		 shl	 eax, cl
  00ffd	8b 8d 70 fe ff
	ff		 mov	 ecx, DWORD PTR $T35197[ebp]
  01003	c1 e9 06	 shr	 ecx, 6
  01006	0b c8		 or	 ecx, eax
  01008	03 0d 30 00 00
	00		 add	 ecx, DWORD PTR _SHA256_K+48
  0100e	03 d1		 add	 edx, ecx
  01010	03 55 d0	 add	 edx, DWORD PTR _W$[ebp+48]
  01013	03 55 ec	 add	 edx, DWORD PTR _T$[ebp+12]
  01016	89 55 ec	 mov	 DWORD PTR _T$[ebp+12], edx
  01019	8b 55 fc	 mov	 edx, DWORD PTR _T$[ebp+28]
  0101c	03 55 ec	 add	 edx, DWORD PTR _T$[ebp+12]
  0101f	89 55 fc	 mov	 DWORD PTR _T$[ebp+28], edx
  01022	8b 45 f0	 mov	 eax, DWORD PTR _T$[ebp+16]
  01025	c1 e8 09	 shr	 eax, 9
  01028	b9 20 00 00 00	 mov	 ecx, 32			; 00000020H
  0102d	83 e9 09	 sub	 ecx, 9
  01030	8b 55 f0	 mov	 edx, DWORD PTR _T$[ebp+16]
  01033	d3 e2		 shl	 edx, cl
  01035	0b c2		 or	 eax, edx
  01037	89 85 6c fe ff
	ff		 mov	 DWORD PTR $T35201[ebp], eax
  0103d	8b 45 f0	 mov	 eax, DWORD PTR _T$[ebp+16]
  01040	33 85 6c fe ff
	ff		 xor	 eax, DWORD PTR $T35201[ebp]
  01046	89 85 68 fe ff
	ff		 mov	 DWORD PTR $T35205[ebp], eax
  0104c	b9 20 00 00 00	 mov	 ecx, 32			; 00000020H
  01051	83 e9 0b	 sub	 ecx, 11			; 0000000bH
  01054	8b 95 68 fe ff
	ff		 mov	 edx, DWORD PTR $T35205[ebp]
  0105a	d3 e2		 shl	 edx, cl
  0105c	8b 85 68 fe ff
	ff		 mov	 eax, DWORD PTR $T35205[ebp]
  01062	c1 e8 0b	 shr	 eax, 11			; 0000000bH
  01065	0b c2		 or	 eax, edx
  01067	33 45 f0	 xor	 eax, DWORD PTR _T$[ebp+16]
  0106a	89 85 64 fe ff
	ff		 mov	 DWORD PTR $T35209[ebp], eax
  01070	8b 55 f4	 mov	 edx, DWORD PTR _T$[ebp+20]
  01073	33 55 f8	 xor	 edx, DWORD PTR _T$[ebp+24]
  01076	23 55 f0	 and	 edx, DWORD PTR _T$[ebp+16]
  01079	8b 45 f4	 mov	 eax, DWORD PTR _T$[ebp+20]
  0107c	23 45 f8	 and	 eax, DWORD PTR _T$[ebp+24]
  0107f	03 d0		 add	 edx, eax
  01081	b9 20 00 00 00	 mov	 ecx, 32			; 00000020H
  01086	83 e9 02	 sub	 ecx, 2
  01089	8b 85 64 fe ff
	ff		 mov	 eax, DWORD PTR $T35209[ebp]
  0108f	d3 e0		 shl	 eax, cl
  01091	8b 8d 64 fe ff
	ff		 mov	 ecx, DWORD PTR $T35209[ebp]
  01097	c1 e9 02	 shr	 ecx, 2
  0109a	0b c8		 or	 ecx, eax
  0109c	03 55 ec	 add	 edx, DWORD PTR _T$[ebp+12]
  0109f	03 d1		 add	 edx, ecx
  010a1	89 55 ec	 mov	 DWORD PTR _T$[ebp+12], edx
  010a4	8b 55 0c	 mov	 edx, DWORD PTR _data$[ebp]
  010a7	8b 42 34	 mov	 eax, DWORD PTR [edx+52]
  010aa	c1 e0 18	 shl	 eax, 24			; 00000018H
  010ad	8b 4d 0c	 mov	 ecx, DWORD PTR _data$[ebp]
  010b0	8b 51 34	 mov	 edx, DWORD PTR [ecx+52]
  010b3	c1 e2 08	 shl	 edx, 8
  010b6	81 e2 00 00 ff
	00		 and	 edx, 16711680		; 00ff0000H
  010bc	0b c2		 or	 eax, edx
  010be	8b 4d 0c	 mov	 ecx, DWORD PTR _data$[ebp]
  010c1	8b 51 34	 mov	 edx, DWORD PTR [ecx+52]
  010c4	c1 ea 08	 shr	 edx, 8
  010c7	81 e2 00 ff 00
	00		 and	 edx, 65280		; 0000ff00H
  010cd	0b c2		 or	 eax, edx
  010cf	8b 4d 0c	 mov	 ecx, DWORD PTR _data$[ebp]
  010d2	8b 51 34	 mov	 edx, DWORD PTR [ecx+52]
  010d5	c1 ea 18	 shr	 edx, 24			; 00000018H
  010d8	0b c2		 or	 eax, edx
  010da	89 45 d4	 mov	 DWORD PTR _W$[ebp+52], eax
  010dd	8b 45 fc	 mov	 eax, DWORD PTR _T$[ebp+28]
  010e0	c1 e8 0e	 shr	 eax, 14			; 0000000eH
  010e3	b9 20 00 00 00	 mov	 ecx, 32			; 00000020H
  010e8	83 e9 0e	 sub	 ecx, 14			; 0000000eH
  010eb	8b 55 fc	 mov	 edx, DWORD PTR _T$[ebp+28]
  010ee	d3 e2		 shl	 edx, cl
  010f0	0b c2		 or	 eax, edx
  010f2	89 85 60 fe ff
	ff		 mov	 DWORD PTR $T35213[ebp], eax
  010f8	8b 45 fc	 mov	 eax, DWORD PTR _T$[ebp+28]
  010fb	33 85 60 fe ff
	ff		 xor	 eax, DWORD PTR $T35213[ebp]
  01101	89 85 5c fe ff
	ff		 mov	 DWORD PTR $T35217[ebp], eax
  01107	b9 20 00 00 00	 mov	 ecx, 32			; 00000020H
  0110c	83 e9 05	 sub	 ecx, 5
  0110f	8b 95 5c fe ff
	ff		 mov	 edx, DWORD PTR $T35217[ebp]
  01115	d3 e2		 shl	 edx, cl
  01117	8b 85 5c fe ff
	ff		 mov	 eax, DWORD PTR $T35217[ebp]
  0111d	c1 e8 05	 shr	 eax, 5
  01120	0b c2		 or	 eax, edx
  01122	33 45 fc	 xor	 eax, DWORD PTR _T$[ebp+28]
  01125	89 85 58 fe ff
	ff		 mov	 DWORD PTR $T35221[ebp], eax
  0112b	8b 55 e0	 mov	 edx, DWORD PTR _T$[ebp]
  0112e	33 55 e4	 xor	 edx, DWORD PTR _T$[ebp+4]
  01131	23 55 fc	 and	 edx, DWORD PTR _T$[ebp+28]
  01134	33 55 e4	 xor	 edx, DWORD PTR _T$[ebp+4]
  01137	b9 20 00 00 00	 mov	 ecx, 32			; 00000020H
  0113c	83 e9 06	 sub	 ecx, 6
  0113f	8b 85 58 fe ff
	ff		 mov	 eax, DWORD PTR $T35221[ebp]
  01145	d3 e0		 shl	 eax, cl
  01147	8b 8d 58 fe ff
	ff		 mov	 ecx, DWORD PTR $T35221[ebp]
  0114d	c1 e9 06	 shr	 ecx, 6
  01150	0b c8		 or	 ecx, eax
  01152	03 0d 34 00 00
	00		 add	 ecx, DWORD PTR _SHA256_K+52
  01158	03 d1		 add	 edx, ecx
  0115a	03 55 d4	 add	 edx, DWORD PTR _W$[ebp+52]
  0115d	03 55 e8	 add	 edx, DWORD PTR _T$[ebp+8]
  01160	89 55 e8	 mov	 DWORD PTR _T$[ebp+8], edx
  01163	8b 55 f8	 mov	 edx, DWORD PTR _T$[ebp+24]
  01166	03 55 e8	 add	 edx, DWORD PTR _T$[ebp+8]
  01169	89 55 f8	 mov	 DWORD PTR _T$[ebp+24], edx
  0116c	8b 45 ec	 mov	 eax, DWORD PTR _T$[ebp+12]
  0116f	c1 e8 09	 shr	 eax, 9
  01172	b9 20 00 00 00	 mov	 ecx, 32			; 00000020H
  01177	83 e9 09	 sub	 ecx, 9
  0117a	8b 55 ec	 mov	 edx, DWORD PTR _T$[ebp+12]
  0117d	d3 e2		 shl	 edx, cl
  0117f	0b c2		 or	 eax, edx
  01181	89 85 54 fe ff
	ff		 mov	 DWORD PTR $T35225[ebp], eax
  01187	8b 45 ec	 mov	 eax, DWORD PTR _T$[ebp+12]
  0118a	33 85 54 fe ff
	ff		 xor	 eax, DWORD PTR $T35225[ebp]
  01190	89 85 50 fe ff
	ff		 mov	 DWORD PTR $T35229[ebp], eax
  01196	b9 20 00 00 00	 mov	 ecx, 32			; 00000020H
  0119b	83 e9 0b	 sub	 ecx, 11			; 0000000bH
  0119e	8b 95 50 fe ff
	ff		 mov	 edx, DWORD PTR $T35229[ebp]
  011a4	d3 e2		 shl	 edx, cl
  011a6	8b 85 50 fe ff
	ff		 mov	 eax, DWORD PTR $T35229[ebp]
  011ac	c1 e8 0b	 shr	 eax, 11			; 0000000bH
  011af	0b c2		 or	 eax, edx
  011b1	33 45 ec	 xor	 eax, DWORD PTR _T$[ebp+12]
  011b4	89 85 4c fe ff
	ff		 mov	 DWORD PTR $T35233[ebp], eax
  011ba	8b 55 f0	 mov	 edx, DWORD PTR _T$[ebp+16]
  011bd	33 55 f4	 xor	 edx, DWORD PTR _T$[ebp+20]
  011c0	23 55 ec	 and	 edx, DWORD PTR _T$[ebp+12]
  011c3	8b 45 f0	 mov	 eax, DWORD PTR _T$[ebp+16]
  011c6	23 45 f4	 and	 eax, DWORD PTR _T$[ebp+20]
  011c9	03 d0		 add	 edx, eax
  011cb	b9 20 00 00 00	 mov	 ecx, 32			; 00000020H
  011d0	83 e9 02	 sub	 ecx, 2
  011d3	8b 85 4c fe ff
	ff		 mov	 eax, DWORD PTR $T35233[ebp]
  011d9	d3 e0		 shl	 eax, cl
  011db	8b 8d 4c fe ff
	ff		 mov	 ecx, DWORD PTR $T35233[ebp]
  011e1	c1 e9 02	 shr	 ecx, 2
  011e4	0b c8		 or	 ecx, eax
  011e6	03 55 e8	 add	 edx, DWORD PTR _T$[ebp+8]
  011e9	03 d1		 add	 edx, ecx
  011eb	89 55 e8	 mov	 DWORD PTR _T$[ebp+8], edx
  011ee	8b 55 0c	 mov	 edx, DWORD PTR _data$[ebp]
  011f1	8b 42 38	 mov	 eax, DWORD PTR [edx+56]
  011f4	c1 e0 18	 shl	 eax, 24			; 00000018H
  011f7	8b 4d 0c	 mov	 ecx, DWORD PTR _data$[ebp]
  011fa	8b 51 38	 mov	 edx, DWORD PTR [ecx+56]
  011fd	c1 e2 08	 shl	 edx, 8
  01200	81 e2 00 00 ff
	00		 and	 edx, 16711680		; 00ff0000H
  01206	0b c2		 or	 eax, edx
  01208	8b 4d 0c	 mov	 ecx, DWORD PTR _data$[ebp]
  0120b	8b 51 38	 mov	 edx, DWORD PTR [ecx+56]
  0120e	c1 ea 08	 shr	 edx, 8
  01211	81 e2 00 ff 00
	00		 and	 edx, 65280		; 0000ff00H
  01217	0b c2		 or	 eax, edx
  01219	8b 4d 0c	 mov	 ecx, DWORD PTR _data$[ebp]
  0121c	8b 51 38	 mov	 edx, DWORD PTR [ecx+56]
  0121f	c1 ea 18	 shr	 edx, 24			; 00000018H
  01222	0b c2		 or	 eax, edx
  01224	89 45 d8	 mov	 DWORD PTR _W$[ebp+56], eax
  01227	8b 45 f8	 mov	 eax, DWORD PTR _T$[ebp+24]
  0122a	c1 e8 0e	 shr	 eax, 14			; 0000000eH
  0122d	b9 20 00 00 00	 mov	 ecx, 32			; 00000020H
  01232	83 e9 0e	 sub	 ecx, 14			; 0000000eH
  01235	8b 55 f8	 mov	 edx, DWORD PTR _T$[ebp+24]
  01238	d3 e2		 shl	 edx, cl
  0123a	0b c2		 or	 eax, edx
  0123c	89 85 48 fe ff
	ff		 mov	 DWORD PTR $T35237[ebp], eax
  01242	8b 45 f8	 mov	 eax, DWORD PTR _T$[ebp+24]
  01245	33 85 48 fe ff
	ff		 xor	 eax, DWORD PTR $T35237[ebp]
  0124b	89 85 44 fe ff
	ff		 mov	 DWORD PTR $T35241[ebp], eax
  01251	b9 20 00 00 00	 mov	 ecx, 32			; 00000020H
  01256	83 e9 05	 sub	 ecx, 5
  01259	8b 95 44 fe ff
	ff		 mov	 edx, DWORD PTR $T35241[ebp]
  0125f	d3 e2		 shl	 edx, cl
  01261	8b 85 44 fe ff
	ff		 mov	 eax, DWORD PTR $T35241[ebp]
  01267	c1 e8 05	 shr	 eax, 5
  0126a	0b c2		 or	 eax, edx
  0126c	33 45 f8	 xor	 eax, DWORD PTR _T$[ebp+24]
  0126f	89 85 40 fe ff
	ff		 mov	 DWORD PTR $T35245[ebp], eax
  01275	8b 55 fc	 mov	 edx, DWORD PTR _T$[ebp+28]
  01278	33 55 e0	 xor	 edx, DWORD PTR _T$[ebp]
  0127b	23 55 f8	 and	 edx, DWORD PTR _T$[ebp+24]
  0127e	33 55 e0	 xor	 edx, DWORD PTR _T$[ebp]
  01281	b9 20 00 00 00	 mov	 ecx, 32			; 00000020H
  01286	83 e9 06	 sub	 ecx, 6
  01289	8b 85 40 fe ff
	ff		 mov	 eax, DWORD PTR $T35245[ebp]
  0128f	d3 e0		 shl	 eax, cl
  01291	8b 8d 40 fe ff
	ff		 mov	 ecx, DWORD PTR $T35245[ebp]
  01297	c1 e9 06	 shr	 ecx, 6
  0129a	0b c8		 or	 ecx, eax
  0129c	03 0d 38 00 00
	00		 add	 ecx, DWORD PTR _SHA256_K+56
  012a2	03 d1		 add	 edx, ecx
  012a4	03 55 d8	 add	 edx, DWORD PTR _W$[ebp+56]
  012a7	03 55 e4	 add	 edx, DWORD PTR _T$[ebp+4]
  012aa	89 55 e4	 mov	 DWORD PTR _T$[ebp+4], edx
  012ad	8b 55 f4	 mov	 edx, DWORD PTR _T$[ebp+20]
  012b0	03 55 e4	 add	 edx, DWORD PTR _T$[ebp+4]
  012b3	89 55 f4	 mov	 DWORD PTR _T$[ebp+20], edx
  012b6	8b 45 e8	 mov	 eax, DWORD PTR _T$[ebp+8]
  012b9	c1 e8 09	 shr	 eax, 9
  012bc	b9 20 00 00 00	 mov	 ecx, 32			; 00000020H
  012c1	83 e9 09	 sub	 ecx, 9
  012c4	8b 55 e8	 mov	 edx, DWORD PTR _T$[ebp+8]
  012c7	d3 e2		 shl	 edx, cl
  012c9	0b c2		 or	 eax, edx
  012cb	89 85 3c fe ff
	ff		 mov	 DWORD PTR $T35249[ebp], eax
  012d1	8b 45 e8	 mov	 eax, DWORD PTR _T$[ebp+8]
  012d4	33 85 3c fe ff
	ff		 xor	 eax, DWORD PTR $T35249[ebp]
  012da	89 85 38 fe ff
	ff		 mov	 DWORD PTR $T35253[ebp], eax
  012e0	b9 20 00 00 00	 mov	 ecx, 32			; 00000020H
  012e5	83 e9 0b	 sub	 ecx, 11			; 0000000bH
  012e8	8b 95 38 fe ff
	ff		 mov	 edx, DWORD PTR $T35253[ebp]
  012ee	d3 e2		 shl	 edx, cl
  012f0	8b 85 38 fe ff
	ff		 mov	 eax, DWORD PTR $T35253[ebp]
  012f6	c1 e8 0b	 shr	 eax, 11			; 0000000bH
  012f9	0b c2		 or	 eax, edx
  012fb	33 45 e8	 xor	 eax, DWORD PTR _T$[ebp+8]
  012fe	89 85 34 fe ff
	ff		 mov	 DWORD PTR $T35257[ebp], eax
  01304	8b 55 ec	 mov	 edx, DWORD PTR _T$[ebp+12]
  01307	33 55 f0	 xor	 edx, DWORD PTR _T$[ebp+16]
  0130a	23 55 e8	 and	 edx, DWORD PTR _T$[ebp+8]
  0130d	8b 45 ec	 mov	 eax, DWORD PTR _T$[ebp+12]
  01310	23 45 f0	 and	 eax, DWORD PTR _T$[ebp+16]
  01313	03 d0		 add	 edx, eax
  01315	b9 20 00 00 00	 mov	 ecx, 32			; 00000020H
  0131a	83 e9 02	 sub	 ecx, 2
  0131d	8b 85 34 fe ff
	ff		 mov	 eax, DWORD PTR $T35257[ebp]
  01323	d3 e0		 shl	 eax, cl
  01325	8b 8d 34 fe ff
	ff		 mov	 ecx, DWORD PTR $T35257[ebp]
  0132b	c1 e9 02	 shr	 ecx, 2
  0132e	0b c8		 or	 ecx, eax
  01330	03 55 e4	 add	 edx, DWORD PTR _T$[ebp+4]
  01333	03 d1		 add	 edx, ecx
  01335	89 55 e4	 mov	 DWORD PTR _T$[ebp+4], edx
  01338	8b 55 0c	 mov	 edx, DWORD PTR _data$[ebp]
  0133b	8b 42 3c	 mov	 eax, DWORD PTR [edx+60]
  0133e	c1 e0 18	 shl	 eax, 24			; 00000018H
  01341	8b 4d 0c	 mov	 ecx, DWORD PTR _data$[ebp]
  01344	8b 51 3c	 mov	 edx, DWORD PTR [ecx+60]
  01347	c1 e2 08	 shl	 edx, 8
  0134a	81 e2 00 00 ff
	00		 and	 edx, 16711680		; 00ff0000H
  01350	0b c2		 or	 eax, edx
  01352	8b 4d 0c	 mov	 ecx, DWORD PTR _data$[ebp]
  01355	8b 51 3c	 mov	 edx, DWORD PTR [ecx+60]
  01358	c1 ea 08	 shr	 edx, 8
  0135b	81 e2 00 ff 00
	00		 and	 edx, 65280		; 0000ff00H
  01361	0b c2		 or	 eax, edx
  01363	8b 4d 0c	 mov	 ecx, DWORD PTR _data$[ebp]
  01366	8b 51 3c	 mov	 edx, DWORD PTR [ecx+60]
  01369	c1 ea 18	 shr	 edx, 24			; 00000018H
  0136c	0b c2		 or	 eax, edx
  0136e	89 45 dc	 mov	 DWORD PTR _W$[ebp+60], eax
  01371	8b 45 f4	 mov	 eax, DWORD PTR _T$[ebp+20]
  01374	c1 e8 0e	 shr	 eax, 14			; 0000000eH
  01377	b9 20 00 00 00	 mov	 ecx, 32			; 00000020H
  0137c	83 e9 0e	 sub	 ecx, 14			; 0000000eH
  0137f	8b 55 f4	 mov	 edx, DWORD PTR _T$[ebp+20]
  01382	d3 e2		 shl	 edx, cl
  01384	0b c2		 or	 eax, edx
  01386	89 85 30 fe ff
	ff		 mov	 DWORD PTR $T35261[ebp], eax
  0138c	8b 45 f4	 mov	 eax, DWORD PTR _T$[ebp+20]
  0138f	33 85 30 fe ff
	ff		 xor	 eax, DWORD PTR $T35261[ebp]
  01395	89 85 2c fe ff
	ff		 mov	 DWORD PTR $T35265[ebp], eax
  0139b	b9 20 00 00 00	 mov	 ecx, 32			; 00000020H
  013a0	83 e9 05	 sub	 ecx, 5
  013a3	8b 95 2c fe ff
	ff		 mov	 edx, DWORD PTR $T35265[ebp]
  013a9	d3 e2		 shl	 edx, cl
  013ab	8b 85 2c fe ff
	ff		 mov	 eax, DWORD PTR $T35265[ebp]
  013b1	c1 e8 05	 shr	 eax, 5
  013b4	0b c2		 or	 eax, edx
  013b6	33 45 f4	 xor	 eax, DWORD PTR _T$[ebp+20]
  013b9	89 85 28 fe ff
	ff		 mov	 DWORD PTR $T35269[ebp], eax
  013bf	8b 55 f8	 mov	 edx, DWORD PTR _T$[ebp+24]
  013c2	33 55 fc	 xor	 edx, DWORD PTR _T$[ebp+28]
  013c5	23 55 f4	 and	 edx, DWORD PTR _T$[ebp+20]
  013c8	33 55 fc	 xor	 edx, DWORD PTR _T$[ebp+28]
  013cb	b9 20 00 00 00	 mov	 ecx, 32			; 00000020H
  013d0	83 e9 06	 sub	 ecx, 6
  013d3	8b 85 28 fe ff
	ff		 mov	 eax, DWORD PTR $T35269[ebp]
  013d9	d3 e0		 shl	 eax, cl
  013db	8b 8d 28 fe ff
	ff		 mov	 ecx, DWORD PTR $T35269[ebp]
  013e1	c1 e9 06	 shr	 ecx, 6
  013e4	0b c8		 or	 ecx, eax
  013e6	03 0d 3c 00 00
	00		 add	 ecx, DWORD PTR _SHA256_K+60
  013ec	03 d1		 add	 edx, ecx
  013ee	03 55 dc	 add	 edx, DWORD PTR _W$[ebp+60]
  013f1	03 55 e0	 add	 edx, DWORD PTR _T$[ebp]
  013f4	89 55 e0	 mov	 DWORD PTR _T$[ebp], edx
  013f7	8b 55 f0	 mov	 edx, DWORD PTR _T$[ebp+16]
  013fa	03 55 e0	 add	 edx, DWORD PTR _T$[ebp]
  013fd	89 55 f0	 mov	 DWORD PTR _T$[ebp+16], edx
  01400	8b 45 e4	 mov	 eax, DWORD PTR _T$[ebp+4]
  01403	c1 e8 09	 shr	 eax, 9
  01406	b9 20 00 00 00	 mov	 ecx, 32			; 00000020H
  0140b	83 e9 09	 sub	 ecx, 9
  0140e	8b 55 e4	 mov	 edx, DWORD PTR _T$[ebp+4]
  01411	d3 e2		 shl	 edx, cl
  01413	0b c2		 or	 eax, edx
  01415	89 85 24 fe ff
	ff		 mov	 DWORD PTR $T35273[ebp], eax
  0141b	8b 45 e4	 mov	 eax, DWORD PTR _T$[ebp+4]
  0141e	33 85 24 fe ff
	ff		 xor	 eax, DWORD PTR $T35273[ebp]
  01424	89 85 20 fe ff
	ff		 mov	 DWORD PTR $T35277[ebp], eax
  0142a	b9 20 00 00 00	 mov	 ecx, 32			; 00000020H
  0142f	83 e9 0b	 sub	 ecx, 11			; 0000000bH
  01432	8b 95 20 fe ff
	ff		 mov	 edx, DWORD PTR $T35277[ebp]
  01438	d3 e2		 shl	 edx, cl
  0143a	8b 85 20 fe ff
	ff		 mov	 eax, DWORD PTR $T35277[ebp]
  01440	c1 e8 0b	 shr	 eax, 11			; 0000000bH
  01443	0b c2		 or	 eax, edx
  01445	33 45 e4	 xor	 eax, DWORD PTR _T$[ebp+4]
  01448	89 85 1c fe ff
	ff		 mov	 DWORD PTR $T35281[ebp], eax
  0144e	8b 55 e8	 mov	 edx, DWORD PTR _T$[ebp+8]
  01451	33 55 ec	 xor	 edx, DWORD PTR _T$[ebp+12]
  01454	23 55 e4	 and	 edx, DWORD PTR _T$[ebp+4]
  01457	8b 45 e8	 mov	 eax, DWORD PTR _T$[ebp+8]
  0145a	23 45 ec	 and	 eax, DWORD PTR _T$[ebp+12]
  0145d	03 d0		 add	 edx, eax
  0145f	b9 20 00 00 00	 mov	 ecx, 32			; 00000020H
  01464	83 e9 02	 sub	 ecx, 2
  01467	8b 85 1c fe ff
	ff		 mov	 eax, DWORD PTR $T35281[ebp]
  0146d	d3 e0		 shl	 eax, cl
  0146f	8b 8d 1c fe ff
	ff		 mov	 ecx, DWORD PTR $T35281[ebp]
  01475	c1 e9 02	 shr	 ecx, 2
  01478	0b c8		 or	 ecx, eax
  0147a	03 55 e0	 add	 edx, DWORD PTR _T$[ebp]
  0147d	03 d1		 add	 edx, ecx
  0147f	89 55 e0	 mov	 DWORD PTR _T$[ebp], edx

; 97   : 
; 98   : 	// The remaining 48 operations partially unrolled
; 99   :   { unsigned int j;
; 100  : 
; 101  : 	for (j = 16; j < 64; j += 16) {

  01482	c7 45 9c 10 00
	00 00		 mov	 DWORD PTR _j$32344[ebp], 16 ; 00000010H
  01489	eb 09		 jmp	 SHORT $LN3@transform
$LN2@transform:
  0148b	8b 55 9c	 mov	 edx, DWORD PTR _j$32344[ebp]
  0148e	83 c2 10	 add	 edx, 16			; 00000010H
  01491	89 55 9c	 mov	 DWORD PTR _j$32344[ebp], edx
$LN3@transform:
  01494	83 7d 9c 40	 cmp	 DWORD PTR _j$32344[ebp], 64 ; 00000040H
  01498	0f 83 25 1a 00
	00		 jae	 $LN1@transform

; 102  : 		R2( 0); R2( 1); R2( 2); R2( 3);

  0149e	b9 20 00 00 00	 mov	 ecx, 32			; 00000020H
  014a3	83 e9 02	 sub	 ecx, 2
  014a6	8b 45 d8	 mov	 eax, DWORD PTR _W$[ebp+56]
  014a9	d3 e0		 shl	 eax, cl
  014ab	8b 4d d8	 mov	 ecx, DWORD PTR _W$[ebp+56]
  014ae	c1 e9 02	 shr	 ecx, 2
  014b1	0b c8		 or	 ecx, eax
  014b3	33 4d d8	 xor	 ecx, DWORD PTR _W$[ebp+56]
  014b6	89 8d 18 fe ff
	ff		 mov	 DWORD PTR $T35288[ebp], ecx
  014bc	b9 20 00 00 00	 mov	 ecx, 32			; 00000020H
  014c1	83 e9 0b	 sub	 ecx, 11			; 0000000bH
  014c4	8b 55 a4	 mov	 edx, DWORD PTR _W$[ebp+4]
  014c7	d3 e2		 shl	 edx, cl
  014c9	8b 45 a4	 mov	 eax, DWORD PTR _W$[ebp+4]
  014cc	c1 e8 0b	 shr	 eax, 11			; 0000000bH
  014cf	0b c2		 or	 eax, edx
  014d1	33 45 a4	 xor	 eax, DWORD PTR _W$[ebp+4]
  014d4	89 85 14 fe ff
	ff		 mov	 DWORD PTR $T35295[ebp], eax
  014da	8b 55 d8	 mov	 edx, DWORD PTR _W$[ebp+56]
  014dd	c1 ea 0a	 shr	 edx, 10			; 0000000aH
  014e0	b9 20 00 00 00	 mov	 ecx, 32			; 00000020H
  014e5	83 e9 11	 sub	 ecx, 17			; 00000011H
  014e8	8b 85 18 fe ff
	ff		 mov	 eax, DWORD PTR $T35288[ebp]
  014ee	d3 e0		 shl	 eax, cl
  014f0	8b b5 18 fe ff
	ff		 mov	 esi, DWORD PTR $T35288[ebp]
  014f6	c1 ee 11	 shr	 esi, 17			; 00000011H
  014f9	0b f0		 or	 esi, eax
  014fb	33 f2		 xor	 esi, edx
  014fd	03 75 c4	 add	 esi, DWORD PTR _W$[ebp+36]
  01500	8b 55 a4	 mov	 edx, DWORD PTR _W$[ebp+4]
  01503	c1 ea 03	 shr	 edx, 3
  01506	b9 20 00 00 00	 mov	 ecx, 32			; 00000020H
  0150b	83 e9 07	 sub	 ecx, 7
  0150e	8b 85 14 fe ff
	ff		 mov	 eax, DWORD PTR $T35295[ebp]
  01514	d3 e0		 shl	 eax, cl
  01516	8b 8d 14 fe ff
	ff		 mov	 ecx, DWORD PTR $T35295[ebp]
  0151c	c1 e9 07	 shr	 ecx, 7
  0151f	0b c8		 or	 ecx, eax
  01521	33 ca		 xor	 ecx, edx
  01523	03 4d a0	 add	 ecx, DWORD PTR _W$[ebp]
  01526	03 ce		 add	 ecx, esi
  01528	89 4d a0	 mov	 DWORD PTR _W$[ebp], ecx
  0152b	8b 55 f0	 mov	 edx, DWORD PTR _T$[ebp+16]
  0152e	c1 ea 0e	 shr	 edx, 14			; 0000000eH
  01531	b9 20 00 00 00	 mov	 ecx, 32			; 00000020H
  01536	83 e9 0e	 sub	 ecx, 14			; 0000000eH
  01539	8b 45 f0	 mov	 eax, DWORD PTR _T$[ebp+16]
  0153c	d3 e0		 shl	 eax, cl
  0153e	0b d0		 or	 edx, eax
  01540	89 95 10 fe ff
	ff		 mov	 DWORD PTR $T35299[ebp], edx
  01546	8b 4d f0	 mov	 ecx, DWORD PTR _T$[ebp+16]
  01549	33 8d 10 fe ff
	ff		 xor	 ecx, DWORD PTR $T35299[ebp]
  0154f	89 8d 0c fe ff
	ff		 mov	 DWORD PTR $T35303[ebp], ecx
  01555	b9 20 00 00 00	 mov	 ecx, 32			; 00000020H
  0155a	83 e9 05	 sub	 ecx, 5
  0155d	8b 95 0c fe ff
	ff		 mov	 edx, DWORD PTR $T35303[ebp]
  01563	d3 e2		 shl	 edx, cl
  01565	8b 85 0c fe ff
	ff		 mov	 eax, DWORD PTR $T35303[ebp]
  0156b	c1 e8 05	 shr	 eax, 5
  0156e	0b c2		 or	 eax, edx
  01570	33 45 f0	 xor	 eax, DWORD PTR _T$[ebp+16]
  01573	89 85 08 fe ff
	ff		 mov	 DWORD PTR $T35307[ebp], eax
  01579	8b 55 f4	 mov	 edx, DWORD PTR _T$[ebp+20]
  0157c	33 55 f8	 xor	 edx, DWORD PTR _T$[ebp+24]
  0157f	23 55 f0	 and	 edx, DWORD PTR _T$[ebp+16]
  01582	33 55 f8	 xor	 edx, DWORD PTR _T$[ebp+24]
  01585	b9 20 00 00 00	 mov	 ecx, 32			; 00000020H
  0158a	83 e9 06	 sub	 ecx, 6
  0158d	8b 85 08 fe ff
	ff		 mov	 eax, DWORD PTR $T35307[ebp]
  01593	d3 e0		 shl	 eax, cl
  01595	8b 8d 08 fe ff
	ff		 mov	 ecx, DWORD PTR $T35307[ebp]
  0159b	c1 e9 06	 shr	 ecx, 6
  0159e	0b c8		 or	 ecx, eax
  015a0	03 ca		 add	 ecx, edx
  015a2	8b 55 9c	 mov	 edx, DWORD PTR _j$32344[ebp]
  015a5	03 0c 95 00 00
	00 00		 add	 ecx, DWORD PTR _SHA256_K[edx*4]
  015ac	03 4d a0	 add	 ecx, DWORD PTR _W$[ebp]
  015af	03 4d fc	 add	 ecx, DWORD PTR _T$[ebp+28]
  015b2	89 4d fc	 mov	 DWORD PTR _T$[ebp+28], ecx
  015b5	8b 45 ec	 mov	 eax, DWORD PTR _T$[ebp+12]
  015b8	03 45 fc	 add	 eax, DWORD PTR _T$[ebp+28]
  015bb	89 45 ec	 mov	 DWORD PTR _T$[ebp+12], eax
  015be	8b 55 e0	 mov	 edx, DWORD PTR _T$[ebp]
  015c1	c1 ea 09	 shr	 edx, 9
  015c4	b9 20 00 00 00	 mov	 ecx, 32			; 00000020H
  015c9	83 e9 09	 sub	 ecx, 9
  015cc	8b 45 e0	 mov	 eax, DWORD PTR _T$[ebp]
  015cf	d3 e0		 shl	 eax, cl
  015d1	0b d0		 or	 edx, eax
  015d3	89 95 04 fe ff
	ff		 mov	 DWORD PTR $T35311[ebp], edx
  015d9	8b 4d e0	 mov	 ecx, DWORD PTR _T$[ebp]
  015dc	33 8d 04 fe ff
	ff		 xor	 ecx, DWORD PTR $T35311[ebp]
  015e2	89 8d 00 fe ff
	ff		 mov	 DWORD PTR $T35315[ebp], ecx
  015e8	b9 20 00 00 00	 mov	 ecx, 32			; 00000020H
  015ed	83 e9 0b	 sub	 ecx, 11			; 0000000bH
  015f0	8b 95 00 fe ff
	ff		 mov	 edx, DWORD PTR $T35315[ebp]
  015f6	d3 e2		 shl	 edx, cl
  015f8	8b 85 00 fe ff
	ff		 mov	 eax, DWORD PTR $T35315[ebp]
  015fe	c1 e8 0b	 shr	 eax, 11			; 0000000bH
  01601	0b c2		 or	 eax, edx
  01603	33 45 e0	 xor	 eax, DWORD PTR _T$[ebp]
  01606	89 85 fc fd ff
	ff		 mov	 DWORD PTR $T35319[ebp], eax
  0160c	8b 55 e4	 mov	 edx, DWORD PTR _T$[ebp+4]
  0160f	33 55 e8	 xor	 edx, DWORD PTR _T$[ebp+8]
  01612	23 55 e0	 and	 edx, DWORD PTR _T$[ebp]
  01615	8b 45 e4	 mov	 eax, DWORD PTR _T$[ebp+4]
  01618	23 45 e8	 and	 eax, DWORD PTR _T$[ebp+8]
  0161b	03 d0		 add	 edx, eax
  0161d	b9 20 00 00 00	 mov	 ecx, 32			; 00000020H
  01622	83 e9 02	 sub	 ecx, 2
  01625	8b 85 fc fd ff
	ff		 mov	 eax, DWORD PTR $T35319[ebp]
  0162b	d3 e0		 shl	 eax, cl
  0162d	8b 8d fc fd ff
	ff		 mov	 ecx, DWORD PTR $T35319[ebp]
  01633	c1 e9 02	 shr	 ecx, 2
  01636	0b c8		 or	 ecx, eax
  01638	03 55 fc	 add	 edx, DWORD PTR _T$[ebp+28]
  0163b	03 d1		 add	 edx, ecx
  0163d	89 55 fc	 mov	 DWORD PTR _T$[ebp+28], edx
  01640	b9 20 00 00 00	 mov	 ecx, 32			; 00000020H
  01645	83 e9 02	 sub	 ecx, 2
  01648	8b 55 dc	 mov	 edx, DWORD PTR _W$[ebp+60]
  0164b	d3 e2		 shl	 edx, cl
  0164d	8b 45 dc	 mov	 eax, DWORD PTR _W$[ebp+60]
  01650	c1 e8 02	 shr	 eax, 2
  01653	0b c2		 or	 eax, edx
  01655	33 45 dc	 xor	 eax, DWORD PTR _W$[ebp+60]
  01658	89 85 f8 fd ff
	ff		 mov	 DWORD PTR $T35326[ebp], eax
  0165e	b9 20 00 00 00	 mov	 ecx, 32			; 00000020H
  01663	83 e9 0b	 sub	 ecx, 11			; 0000000bH
  01666	8b 55 a8	 mov	 edx, DWORD PTR _W$[ebp+8]
  01669	d3 e2		 shl	 edx, cl
  0166b	8b 45 a8	 mov	 eax, DWORD PTR _W$[ebp+8]
  0166e	c1 e8 0b	 shr	 eax, 11			; 0000000bH
  01671	0b c2		 or	 eax, edx
  01673	33 45 a8	 xor	 eax, DWORD PTR _W$[ebp+8]
  01676	89 85 f4 fd ff
	ff		 mov	 DWORD PTR $T35333[ebp], eax
  0167c	8b 55 dc	 mov	 edx, DWORD PTR _W$[ebp+60]
  0167f	c1 ea 0a	 shr	 edx, 10			; 0000000aH
  01682	b9 20 00 00 00	 mov	 ecx, 32			; 00000020H
  01687	83 e9 11	 sub	 ecx, 17			; 00000011H
  0168a	8b 85 f8 fd ff
	ff		 mov	 eax, DWORD PTR $T35326[ebp]
  01690	d3 e0		 shl	 eax, cl
  01692	8b b5 f8 fd ff
	ff		 mov	 esi, DWORD PTR $T35326[ebp]
  01698	c1 ee 11	 shr	 esi, 17			; 00000011H
  0169b	0b f0		 or	 esi, eax
  0169d	33 f2		 xor	 esi, edx
  0169f	03 75 c8	 add	 esi, DWORD PTR _W$[ebp+40]
  016a2	8b 55 a8	 mov	 edx, DWORD PTR _W$[ebp+8]
  016a5	c1 ea 03	 shr	 edx, 3
  016a8	b9 20 00 00 00	 mov	 ecx, 32			; 00000020H
  016ad	83 e9 07	 sub	 ecx, 7
  016b0	8b 85 f4 fd ff
	ff		 mov	 eax, DWORD PTR $T35333[ebp]
  016b6	d3 e0		 shl	 eax, cl
  016b8	8b 8d f4 fd ff
	ff		 mov	 ecx, DWORD PTR $T35333[ebp]
  016be	c1 e9 07	 shr	 ecx, 7
  016c1	0b c8		 or	 ecx, eax
  016c3	33 ca		 xor	 ecx, edx
  016c5	03 4d a4	 add	 ecx, DWORD PTR _W$[ebp+4]
  016c8	03 ce		 add	 ecx, esi
  016ca	89 4d a4	 mov	 DWORD PTR _W$[ebp+4], ecx
  016cd	8b 55 ec	 mov	 edx, DWORD PTR _T$[ebp+12]
  016d0	c1 ea 0e	 shr	 edx, 14			; 0000000eH
  016d3	b9 20 00 00 00	 mov	 ecx, 32			; 00000020H
  016d8	83 e9 0e	 sub	 ecx, 14			; 0000000eH
  016db	8b 45 ec	 mov	 eax, DWORD PTR _T$[ebp+12]
  016de	d3 e0		 shl	 eax, cl
  016e0	0b d0		 or	 edx, eax
  016e2	89 95 f0 fd ff
	ff		 mov	 DWORD PTR $T35337[ebp], edx
  016e8	8b 4d ec	 mov	 ecx, DWORD PTR _T$[ebp+12]
  016eb	33 8d f0 fd ff
	ff		 xor	 ecx, DWORD PTR $T35337[ebp]
  016f1	89 8d ec fd ff
	ff		 mov	 DWORD PTR $T35341[ebp], ecx
  016f7	b9 20 00 00 00	 mov	 ecx, 32			; 00000020H
  016fc	83 e9 05	 sub	 ecx, 5
  016ff	8b 95 ec fd ff
	ff		 mov	 edx, DWORD PTR $T35341[ebp]
  01705	d3 e2		 shl	 edx, cl
  01707	8b 85 ec fd ff
	ff		 mov	 eax, DWORD PTR $T35341[ebp]
  0170d	c1 e8 05	 shr	 eax, 5
  01710	0b c2		 or	 eax, edx
  01712	33 45 ec	 xor	 eax, DWORD PTR _T$[ebp+12]
  01715	89 85 e8 fd ff
	ff		 mov	 DWORD PTR $T35345[ebp], eax
  0171b	8b 55 f0	 mov	 edx, DWORD PTR _T$[ebp+16]
  0171e	33 55 f4	 xor	 edx, DWORD PTR _T$[ebp+20]
  01721	23 55 ec	 and	 edx, DWORD PTR _T$[ebp+12]
  01724	33 55 f4	 xor	 edx, DWORD PTR _T$[ebp+20]
  01727	b9 20 00 00 00	 mov	 ecx, 32			; 00000020H
  0172c	83 e9 06	 sub	 ecx, 6
  0172f	8b 85 e8 fd ff
	ff		 mov	 eax, DWORD PTR $T35345[ebp]
  01735	d3 e0		 shl	 eax, cl
  01737	8b 8d e8 fd ff
	ff		 mov	 ecx, DWORD PTR $T35345[ebp]
  0173d	c1 e9 06	 shr	 ecx, 6
  01740	0b c8		 or	 ecx, eax
  01742	03 ca		 add	 ecx, edx
  01744	8b 55 9c	 mov	 edx, DWORD PTR _j$32344[ebp]
  01747	03 0c 95 04 00
	00 00		 add	 ecx, DWORD PTR _SHA256_K[edx*4+4]
  0174e	03 4d a4	 add	 ecx, DWORD PTR _W$[ebp+4]
  01751	03 4d f8	 add	 ecx, DWORD PTR _T$[ebp+24]
  01754	89 4d f8	 mov	 DWORD PTR _T$[ebp+24], ecx
  01757	8b 45 e8	 mov	 eax, DWORD PTR _T$[ebp+8]
  0175a	03 45 f8	 add	 eax, DWORD PTR _T$[ebp+24]
  0175d	89 45 e8	 mov	 DWORD PTR _T$[ebp+8], eax
  01760	8b 55 fc	 mov	 edx, DWORD PTR _T$[ebp+28]
  01763	c1 ea 09	 shr	 edx, 9
  01766	b9 20 00 00 00	 mov	 ecx, 32			; 00000020H
  0176b	83 e9 09	 sub	 ecx, 9
  0176e	8b 45 fc	 mov	 eax, DWORD PTR _T$[ebp+28]
  01771	d3 e0		 shl	 eax, cl
  01773	0b d0		 or	 edx, eax
  01775	89 95 e4 fd ff
	ff		 mov	 DWORD PTR $T35349[ebp], edx
  0177b	8b 4d fc	 mov	 ecx, DWORD PTR _T$[ebp+28]
  0177e	33 8d e4 fd ff
	ff		 xor	 ecx, DWORD PTR $T35349[ebp]
  01784	89 8d e0 fd ff
	ff		 mov	 DWORD PTR $T35353[ebp], ecx
  0178a	b9 20 00 00 00	 mov	 ecx, 32			; 00000020H
  0178f	83 e9 0b	 sub	 ecx, 11			; 0000000bH
  01792	8b 95 e0 fd ff
	ff		 mov	 edx, DWORD PTR $T35353[ebp]
  01798	d3 e2		 shl	 edx, cl
  0179a	8b 85 e0 fd ff
	ff		 mov	 eax, DWORD PTR $T35353[ebp]
  017a0	c1 e8 0b	 shr	 eax, 11			; 0000000bH
  017a3	0b c2		 or	 eax, edx
  017a5	33 45 fc	 xor	 eax, DWORD PTR _T$[ebp+28]
  017a8	89 85 dc fd ff
	ff		 mov	 DWORD PTR $T35357[ebp], eax
  017ae	8b 55 e0	 mov	 edx, DWORD PTR _T$[ebp]
  017b1	33 55 e4	 xor	 edx, DWORD PTR _T$[ebp+4]
  017b4	23 55 fc	 and	 edx, DWORD PTR _T$[ebp+28]
  017b7	8b 45 e0	 mov	 eax, DWORD PTR _T$[ebp]
  017ba	23 45 e4	 and	 eax, DWORD PTR _T$[ebp+4]
  017bd	03 d0		 add	 edx, eax
  017bf	b9 20 00 00 00	 mov	 ecx, 32			; 00000020H
  017c4	83 e9 02	 sub	 ecx, 2
  017c7	8b 85 dc fd ff
	ff		 mov	 eax, DWORD PTR $T35357[ebp]
  017cd	d3 e0		 shl	 eax, cl
  017cf	8b 8d dc fd ff
	ff		 mov	 ecx, DWORD PTR $T35357[ebp]
  017d5	c1 e9 02	 shr	 ecx, 2
  017d8	0b c8		 or	 ecx, eax
  017da	03 55 f8	 add	 edx, DWORD PTR _T$[ebp+24]
  017dd	03 d1		 add	 edx, ecx
  017df	89 55 f8	 mov	 DWORD PTR _T$[ebp+24], edx
  017e2	b9 20 00 00 00	 mov	 ecx, 32			; 00000020H
  017e7	83 e9 02	 sub	 ecx, 2
  017ea	8b 55 a0	 mov	 edx, DWORD PTR _W$[ebp]
  017ed	d3 e2		 shl	 edx, cl
  017ef	8b 45 a0	 mov	 eax, DWORD PTR _W$[ebp]
  017f2	c1 e8 02	 shr	 eax, 2
  017f5	0b c2		 or	 eax, edx
  017f7	33 45 a0	 xor	 eax, DWORD PTR _W$[ebp]
  017fa	89 85 d8 fd ff
	ff		 mov	 DWORD PTR $T35364[ebp], eax
  01800	b9 20 00 00 00	 mov	 ecx, 32			; 00000020H
  01805	83 e9 0b	 sub	 ecx, 11			; 0000000bH
  01808	8b 55 ac	 mov	 edx, DWORD PTR _W$[ebp+12]
  0180b	d3 e2		 shl	 edx, cl
  0180d	8b 45 ac	 mov	 eax, DWORD PTR _W$[ebp+12]
  01810	c1 e8 0b	 shr	 eax, 11			; 0000000bH
  01813	0b c2		 or	 eax, edx
  01815	33 45 ac	 xor	 eax, DWORD PTR _W$[ebp+12]
  01818	89 85 d4 fd ff
	ff		 mov	 DWORD PTR $T35371[ebp], eax
  0181e	8b 55 a0	 mov	 edx, DWORD PTR _W$[ebp]
  01821	c1 ea 0a	 shr	 edx, 10			; 0000000aH
  01824	b9 20 00 00 00	 mov	 ecx, 32			; 00000020H
  01829	83 e9 11	 sub	 ecx, 17			; 00000011H
  0182c	8b 85 d8 fd ff
	ff		 mov	 eax, DWORD PTR $T35364[ebp]
  01832	d3 e0		 shl	 eax, cl
  01834	8b b5 d8 fd ff
	ff		 mov	 esi, DWORD PTR $T35364[ebp]
  0183a	c1 ee 11	 shr	 esi, 17			; 00000011H
  0183d	0b f0		 or	 esi, eax
  0183f	33 f2		 xor	 esi, edx
  01841	03 75 cc	 add	 esi, DWORD PTR _W$[ebp+44]
  01844	8b 55 ac	 mov	 edx, DWORD PTR _W$[ebp+12]
  01847	c1 ea 03	 shr	 edx, 3
  0184a	b9 20 00 00 00	 mov	 ecx, 32			; 00000020H
  0184f	83 e9 07	 sub	 ecx, 7
  01852	8b 85 d4 fd ff
	ff		 mov	 eax, DWORD PTR $T35371[ebp]
  01858	d3 e0		 shl	 eax, cl
  0185a	8b 8d d4 fd ff
	ff		 mov	 ecx, DWORD PTR $T35371[ebp]
  01860	c1 e9 07	 shr	 ecx, 7
  01863	0b c8		 or	 ecx, eax
  01865	33 ca		 xor	 ecx, edx
  01867	03 4d a8	 add	 ecx, DWORD PTR _W$[ebp+8]
  0186a	03 ce		 add	 ecx, esi
  0186c	89 4d a8	 mov	 DWORD PTR _W$[ebp+8], ecx
  0186f	8b 55 e8	 mov	 edx, DWORD PTR _T$[ebp+8]
  01872	c1 ea 0e	 shr	 edx, 14			; 0000000eH
  01875	b9 20 00 00 00	 mov	 ecx, 32			; 00000020H
  0187a	83 e9 0e	 sub	 ecx, 14			; 0000000eH
  0187d	8b 45 e8	 mov	 eax, DWORD PTR _T$[ebp+8]
  01880	d3 e0		 shl	 eax, cl
  01882	0b d0		 or	 edx, eax
  01884	89 95 d0 fd ff
	ff		 mov	 DWORD PTR $T35375[ebp], edx
  0188a	8b 4d e8	 mov	 ecx, DWORD PTR _T$[ebp+8]
  0188d	33 8d d0 fd ff
	ff		 xor	 ecx, DWORD PTR $T35375[ebp]
  01893	89 8d cc fd ff
	ff		 mov	 DWORD PTR $T35379[ebp], ecx
  01899	b9 20 00 00 00	 mov	 ecx, 32			; 00000020H
  0189e	83 e9 05	 sub	 ecx, 5
  018a1	8b 95 cc fd ff
	ff		 mov	 edx, DWORD PTR $T35379[ebp]
  018a7	d3 e2		 shl	 edx, cl
  018a9	8b 85 cc fd ff
	ff		 mov	 eax, DWORD PTR $T35379[ebp]
  018af	c1 e8 05	 shr	 eax, 5
  018b2	0b c2		 or	 eax, edx
  018b4	33 45 e8	 xor	 eax, DWORD PTR _T$[ebp+8]
  018b7	89 85 c8 fd ff
	ff		 mov	 DWORD PTR $T35383[ebp], eax
  018bd	8b 55 ec	 mov	 edx, DWORD PTR _T$[ebp+12]
  018c0	33 55 f0	 xor	 edx, DWORD PTR _T$[ebp+16]
  018c3	23 55 e8	 and	 edx, DWORD PTR _T$[ebp+8]
  018c6	33 55 f0	 xor	 edx, DWORD PTR _T$[ebp+16]
  018c9	b9 20 00 00 00	 mov	 ecx, 32			; 00000020H
  018ce	83 e9 06	 sub	 ecx, 6
  018d1	8b 85 c8 fd ff
	ff		 mov	 eax, DWORD PTR $T35383[ebp]
  018d7	d3 e0		 shl	 eax, cl
  018d9	8b 8d c8 fd ff
	ff		 mov	 ecx, DWORD PTR $T35383[ebp]
  018df	c1 e9 06	 shr	 ecx, 6
  018e2	0b c8		 or	 ecx, eax
  018e4	03 ca		 add	 ecx, edx
  018e6	8b 55 9c	 mov	 edx, DWORD PTR _j$32344[ebp]
  018e9	03 0c 95 08 00
	00 00		 add	 ecx, DWORD PTR _SHA256_K[edx*4+8]
  018f0	03 4d a8	 add	 ecx, DWORD PTR _W$[ebp+8]
  018f3	03 4d f4	 add	 ecx, DWORD PTR _T$[ebp+20]
  018f6	89 4d f4	 mov	 DWORD PTR _T$[ebp+20], ecx
  018f9	8b 45 e4	 mov	 eax, DWORD PTR _T$[ebp+4]
  018fc	03 45 f4	 add	 eax, DWORD PTR _T$[ebp+20]
  018ff	89 45 e4	 mov	 DWORD PTR _T$[ebp+4], eax
  01902	8b 55 f8	 mov	 edx, DWORD PTR _T$[ebp+24]
  01905	c1 ea 09	 shr	 edx, 9
  01908	b9 20 00 00 00	 mov	 ecx, 32			; 00000020H
  0190d	83 e9 09	 sub	 ecx, 9
  01910	8b 45 f8	 mov	 eax, DWORD PTR _T$[ebp+24]
  01913	d3 e0		 shl	 eax, cl
  01915	0b d0		 or	 edx, eax
  01917	89 95 c4 fd ff
	ff		 mov	 DWORD PTR $T35387[ebp], edx
  0191d	8b 4d f8	 mov	 ecx, DWORD PTR _T$[ebp+24]
  01920	33 8d c4 fd ff
	ff		 xor	 ecx, DWORD PTR $T35387[ebp]
  01926	89 8d c0 fd ff
	ff		 mov	 DWORD PTR $T35391[ebp], ecx
  0192c	b9 20 00 00 00	 mov	 ecx, 32			; 00000020H
  01931	83 e9 0b	 sub	 ecx, 11			; 0000000bH
  01934	8b 95 c0 fd ff
	ff		 mov	 edx, DWORD PTR $T35391[ebp]
  0193a	d3 e2		 shl	 edx, cl
  0193c	8b 85 c0 fd ff
	ff		 mov	 eax, DWORD PTR $T35391[ebp]
  01942	c1 e8 0b	 shr	 eax, 11			; 0000000bH
  01945	0b c2		 or	 eax, edx
  01947	33 45 f8	 xor	 eax, DWORD PTR _T$[ebp+24]
  0194a	89 85 bc fd ff
	ff		 mov	 DWORD PTR $T35395[ebp], eax
  01950	8b 55 fc	 mov	 edx, DWORD PTR _T$[ebp+28]
  01953	33 55 e0	 xor	 edx, DWORD PTR _T$[ebp]
  01956	23 55 f8	 and	 edx, DWORD PTR _T$[ebp+24]
  01959	8b 45 fc	 mov	 eax, DWORD PTR _T$[ebp+28]
  0195c	23 45 e0	 and	 eax, DWORD PTR _T$[ebp]
  0195f	03 d0		 add	 edx, eax
  01961	b9 20 00 00 00	 mov	 ecx, 32			; 00000020H
  01966	83 e9 02	 sub	 ecx, 2
  01969	8b 85 bc fd ff
	ff		 mov	 eax, DWORD PTR $T35395[ebp]
  0196f	d3 e0		 shl	 eax, cl
  01971	8b 8d bc fd ff
	ff		 mov	 ecx, DWORD PTR $T35395[ebp]
  01977	c1 e9 02	 shr	 ecx, 2
  0197a	0b c8		 or	 ecx, eax
  0197c	03 55 f4	 add	 edx, DWORD PTR _T$[ebp+20]
  0197f	03 d1		 add	 edx, ecx
  01981	89 55 f4	 mov	 DWORD PTR _T$[ebp+20], edx
  01984	b9 20 00 00 00	 mov	 ecx, 32			; 00000020H
  01989	83 e9 02	 sub	 ecx, 2
  0198c	8b 55 a4	 mov	 edx, DWORD PTR _W$[ebp+4]
  0198f	d3 e2		 shl	 edx, cl
  01991	8b 45 a4	 mov	 eax, DWORD PTR _W$[ebp+4]
  01994	c1 e8 02	 shr	 eax, 2
  01997	0b c2		 or	 eax, edx
  01999	33 45 a4	 xor	 eax, DWORD PTR _W$[ebp+4]
  0199c	89 85 b8 fd ff
	ff		 mov	 DWORD PTR $T35402[ebp], eax
  019a2	b9 20 00 00 00	 mov	 ecx, 32			; 00000020H
  019a7	83 e9 0b	 sub	 ecx, 11			; 0000000bH
  019aa	8b 55 b0	 mov	 edx, DWORD PTR _W$[ebp+16]
  019ad	d3 e2		 shl	 edx, cl
  019af	8b 45 b0	 mov	 eax, DWORD PTR _W$[ebp+16]
  019b2	c1 e8 0b	 shr	 eax, 11			; 0000000bH
  019b5	0b c2		 or	 eax, edx
  019b7	33 45 b0	 xor	 eax, DWORD PTR _W$[ebp+16]
  019ba	89 85 b4 fd ff
	ff		 mov	 DWORD PTR $T35409[ebp], eax
  019c0	8b 55 a4	 mov	 edx, DWORD PTR _W$[ebp+4]
  019c3	c1 ea 0a	 shr	 edx, 10			; 0000000aH
  019c6	b9 20 00 00 00	 mov	 ecx, 32			; 00000020H
  019cb	83 e9 11	 sub	 ecx, 17			; 00000011H
  019ce	8b 85 b8 fd ff
	ff		 mov	 eax, DWORD PTR $T35402[ebp]
  019d4	d3 e0		 shl	 eax, cl
  019d6	8b b5 b8 fd ff
	ff		 mov	 esi, DWORD PTR $T35402[ebp]
  019dc	c1 ee 11	 shr	 esi, 17			; 00000011H
  019df	0b f0		 or	 esi, eax
  019e1	33 f2		 xor	 esi, edx
  019e3	03 75 d0	 add	 esi, DWORD PTR _W$[ebp+48]
  019e6	8b 55 b0	 mov	 edx, DWORD PTR _W$[ebp+16]
  019e9	c1 ea 03	 shr	 edx, 3
  019ec	b9 20 00 00 00	 mov	 ecx, 32			; 00000020H
  019f1	83 e9 07	 sub	 ecx, 7
  019f4	8b 85 b4 fd ff
	ff		 mov	 eax, DWORD PTR $T35409[ebp]
  019fa	d3 e0		 shl	 eax, cl
  019fc	8b 8d b4 fd ff
	ff		 mov	 ecx, DWORD PTR $T35409[ebp]
  01a02	c1 e9 07	 shr	 ecx, 7
  01a05	0b c8		 or	 ecx, eax
  01a07	33 ca		 xor	 ecx, edx
  01a09	03 4d ac	 add	 ecx, DWORD PTR _W$[ebp+12]
  01a0c	03 ce		 add	 ecx, esi
  01a0e	89 4d ac	 mov	 DWORD PTR _W$[ebp+12], ecx
  01a11	8b 55 e4	 mov	 edx, DWORD PTR _T$[ebp+4]
  01a14	c1 ea 0e	 shr	 edx, 14			; 0000000eH
  01a17	b9 20 00 00 00	 mov	 ecx, 32			; 00000020H
  01a1c	83 e9 0e	 sub	 ecx, 14			; 0000000eH
  01a1f	8b 45 e4	 mov	 eax, DWORD PTR _T$[ebp+4]
  01a22	d3 e0		 shl	 eax, cl
  01a24	0b d0		 or	 edx, eax
  01a26	89 95 b0 fd ff
	ff		 mov	 DWORD PTR $T35413[ebp], edx
  01a2c	8b 4d e4	 mov	 ecx, DWORD PTR _T$[ebp+4]
  01a2f	33 8d b0 fd ff
	ff		 xor	 ecx, DWORD PTR $T35413[ebp]
  01a35	89 8d ac fd ff
	ff		 mov	 DWORD PTR $T35417[ebp], ecx
  01a3b	b9 20 00 00 00	 mov	 ecx, 32			; 00000020H
  01a40	83 e9 05	 sub	 ecx, 5
  01a43	8b 95 ac fd ff
	ff		 mov	 edx, DWORD PTR $T35417[ebp]
  01a49	d3 e2		 shl	 edx, cl
  01a4b	8b 85 ac fd ff
	ff		 mov	 eax, DWORD PTR $T35417[ebp]
  01a51	c1 e8 05	 shr	 eax, 5
  01a54	0b c2		 or	 eax, edx
  01a56	33 45 e4	 xor	 eax, DWORD PTR _T$[ebp+4]
  01a59	89 85 a8 fd ff
	ff		 mov	 DWORD PTR $T35421[ebp], eax
  01a5f	8b 55 e8	 mov	 edx, DWORD PTR _T$[ebp+8]
  01a62	33 55 ec	 xor	 edx, DWORD PTR _T$[ebp+12]
  01a65	23 55 e4	 and	 edx, DWORD PTR _T$[ebp+4]
  01a68	33 55 ec	 xor	 edx, DWORD PTR _T$[ebp+12]
  01a6b	b9 20 00 00 00	 mov	 ecx, 32			; 00000020H
  01a70	83 e9 06	 sub	 ecx, 6
  01a73	8b 85 a8 fd ff
	ff		 mov	 eax, DWORD PTR $T35421[ebp]
  01a79	d3 e0		 shl	 eax, cl
  01a7b	8b 8d a8 fd ff
	ff		 mov	 ecx, DWORD PTR $T35421[ebp]
  01a81	c1 e9 06	 shr	 ecx, 6
  01a84	0b c8		 or	 ecx, eax
  01a86	03 ca		 add	 ecx, edx
  01a88	8b 55 9c	 mov	 edx, DWORD PTR _j$32344[ebp]
  01a8b	03 0c 95 0c 00
	00 00		 add	 ecx, DWORD PTR _SHA256_K[edx*4+12]
  01a92	03 4d ac	 add	 ecx, DWORD PTR _W$[ebp+12]
  01a95	03 4d f0	 add	 ecx, DWORD PTR _T$[ebp+16]
  01a98	89 4d f0	 mov	 DWORD PTR _T$[ebp+16], ecx
  01a9b	8b 45 e0	 mov	 eax, DWORD PTR _T$[ebp]
  01a9e	03 45 f0	 add	 eax, DWORD PTR _T$[ebp+16]
  01aa1	89 45 e0	 mov	 DWORD PTR _T$[ebp], eax
  01aa4	8b 55 f4	 mov	 edx, DWORD PTR _T$[ebp+20]
  01aa7	c1 ea 09	 shr	 edx, 9
  01aaa	b9 20 00 00 00	 mov	 ecx, 32			; 00000020H
  01aaf	83 e9 09	 sub	 ecx, 9
  01ab2	8b 45 f4	 mov	 eax, DWORD PTR _T$[ebp+20]
  01ab5	d3 e0		 shl	 eax, cl
  01ab7	0b d0		 or	 edx, eax
  01ab9	89 95 a4 fd ff
	ff		 mov	 DWORD PTR $T35425[ebp], edx
  01abf	8b 4d f4	 mov	 ecx, DWORD PTR _T$[ebp+20]
  01ac2	33 8d a4 fd ff
	ff		 xor	 ecx, DWORD PTR $T35425[ebp]
  01ac8	89 8d a0 fd ff
	ff		 mov	 DWORD PTR $T35429[ebp], ecx
  01ace	b9 20 00 00 00	 mov	 ecx, 32			; 00000020H
  01ad3	83 e9 0b	 sub	 ecx, 11			; 0000000bH
  01ad6	8b 95 a0 fd ff
	ff		 mov	 edx, DWORD PTR $T35429[ebp]
  01adc	d3 e2		 shl	 edx, cl
  01ade	8b 85 a0 fd ff
	ff		 mov	 eax, DWORD PTR $T35429[ebp]
  01ae4	c1 e8 0b	 shr	 eax, 11			; 0000000bH
  01ae7	0b c2		 or	 eax, edx
  01ae9	33 45 f4	 xor	 eax, DWORD PTR _T$[ebp+20]
  01aec	89 85 9c fd ff
	ff		 mov	 DWORD PTR $T35433[ebp], eax
  01af2	8b 55 f8	 mov	 edx, DWORD PTR _T$[ebp+24]
  01af5	33 55 fc	 xor	 edx, DWORD PTR _T$[ebp+28]
  01af8	23 55 f4	 and	 edx, DWORD PTR _T$[ebp+20]
  01afb	8b 45 f8	 mov	 eax, DWORD PTR _T$[ebp+24]
  01afe	23 45 fc	 and	 eax, DWORD PTR _T$[ebp+28]
  01b01	03 d0		 add	 edx, eax
  01b03	b9 20 00 00 00	 mov	 ecx, 32			; 00000020H
  01b08	83 e9 02	 sub	 ecx, 2
  01b0b	8b 85 9c fd ff
	ff		 mov	 eax, DWORD PTR $T35433[ebp]
  01b11	d3 e0		 shl	 eax, cl
  01b13	8b 8d 9c fd ff
	ff		 mov	 ecx, DWORD PTR $T35433[ebp]
  01b19	c1 e9 02	 shr	 ecx, 2
  01b1c	0b c8		 or	 ecx, eax
  01b1e	03 55 f0	 add	 edx, DWORD PTR _T$[ebp+16]
  01b21	03 d1		 add	 edx, ecx
  01b23	89 55 f0	 mov	 DWORD PTR _T$[ebp+16], edx

; 103  : 		R2( 4); R2( 5); R2( 6); R2( 7);

  01b26	b9 20 00 00 00	 mov	 ecx, 32			; 00000020H
  01b2b	83 e9 02	 sub	 ecx, 2
  01b2e	8b 55 a8	 mov	 edx, DWORD PTR _W$[ebp+8]
  01b31	d3 e2		 shl	 edx, cl
  01b33	8b 45 a8	 mov	 eax, DWORD PTR _W$[ebp+8]
  01b36	c1 e8 02	 shr	 eax, 2
  01b39	0b c2		 or	 eax, edx
  01b3b	33 45 a8	 xor	 eax, DWORD PTR _W$[ebp+8]
  01b3e	89 85 98 fd ff
	ff		 mov	 DWORD PTR $T35440[ebp], eax
  01b44	b9 20 00 00 00	 mov	 ecx, 32			; 00000020H
  01b49	83 e9 0b	 sub	 ecx, 11			; 0000000bH
  01b4c	8b 55 b4	 mov	 edx, DWORD PTR _W$[ebp+20]
  01b4f	d3 e2		 shl	 edx, cl
  01b51	8b 45 b4	 mov	 eax, DWORD PTR _W$[ebp+20]
  01b54	c1 e8 0b	 shr	 eax, 11			; 0000000bH
  01b57	0b c2		 or	 eax, edx
  01b59	33 45 b4	 xor	 eax, DWORD PTR _W$[ebp+20]
  01b5c	89 85 94 fd ff
	ff		 mov	 DWORD PTR $T35447[ebp], eax
  01b62	8b 55 a8	 mov	 edx, DWORD PTR _W$[ebp+8]
  01b65	c1 ea 0a	 shr	 edx, 10			; 0000000aH
  01b68	b9 20 00 00 00	 mov	 ecx, 32			; 00000020H
  01b6d	83 e9 11	 sub	 ecx, 17			; 00000011H
  01b70	8b 85 98 fd ff
	ff		 mov	 eax, DWORD PTR $T35440[ebp]
  01b76	d3 e0		 shl	 eax, cl
  01b78	8b b5 98 fd ff
	ff		 mov	 esi, DWORD PTR $T35440[ebp]
  01b7e	c1 ee 11	 shr	 esi, 17			; 00000011H
  01b81	0b f0		 or	 esi, eax
  01b83	33 f2		 xor	 esi, edx
  01b85	03 75 d4	 add	 esi, DWORD PTR _W$[ebp+52]
  01b88	8b 55 b4	 mov	 edx, DWORD PTR _W$[ebp+20]
  01b8b	c1 ea 03	 shr	 edx, 3
  01b8e	b9 20 00 00 00	 mov	 ecx, 32			; 00000020H
  01b93	83 e9 07	 sub	 ecx, 7
  01b96	8b 85 94 fd ff
	ff		 mov	 eax, DWORD PTR $T35447[ebp]
  01b9c	d3 e0		 shl	 eax, cl
  01b9e	8b 8d 94 fd ff
	ff		 mov	 ecx, DWORD PTR $T35447[ebp]
  01ba4	c1 e9 07	 shr	 ecx, 7
  01ba7	0b c8		 or	 ecx, eax
  01ba9	33 ca		 xor	 ecx, edx
  01bab	03 4d b0	 add	 ecx, DWORD PTR _W$[ebp+16]
  01bae	03 ce		 add	 ecx, esi
  01bb0	89 4d b0	 mov	 DWORD PTR _W$[ebp+16], ecx
  01bb3	8b 55 e0	 mov	 edx, DWORD PTR _T$[ebp]
  01bb6	c1 ea 0e	 shr	 edx, 14			; 0000000eH
  01bb9	b9 20 00 00 00	 mov	 ecx, 32			; 00000020H
  01bbe	83 e9 0e	 sub	 ecx, 14			; 0000000eH
  01bc1	8b 45 e0	 mov	 eax, DWORD PTR _T$[ebp]
  01bc4	d3 e0		 shl	 eax, cl
  01bc6	0b d0		 or	 edx, eax
  01bc8	89 95 90 fd ff
	ff		 mov	 DWORD PTR $T35451[ebp], edx
  01bce	8b 4d e0	 mov	 ecx, DWORD PTR _T$[ebp]
  01bd1	33 8d 90 fd ff
	ff		 xor	 ecx, DWORD PTR $T35451[ebp]
  01bd7	89 8d 8c fd ff
	ff		 mov	 DWORD PTR $T35455[ebp], ecx
  01bdd	b9 20 00 00 00	 mov	 ecx, 32			; 00000020H
  01be2	83 e9 05	 sub	 ecx, 5
  01be5	8b 95 8c fd ff
	ff		 mov	 edx, DWORD PTR $T35455[ebp]
  01beb	d3 e2		 shl	 edx, cl
  01bed	8b 85 8c fd ff
	ff		 mov	 eax, DWORD PTR $T35455[ebp]
  01bf3	c1 e8 05	 shr	 eax, 5
  01bf6	0b c2		 or	 eax, edx
  01bf8	33 45 e0	 xor	 eax, DWORD PTR _T$[ebp]
  01bfb	89 85 88 fd ff
	ff		 mov	 DWORD PTR $T35459[ebp], eax
  01c01	8b 55 e4	 mov	 edx, DWORD PTR _T$[ebp+4]
  01c04	33 55 e8	 xor	 edx, DWORD PTR _T$[ebp+8]
  01c07	23 55 e0	 and	 edx, DWORD PTR _T$[ebp]
  01c0a	33 55 e8	 xor	 edx, DWORD PTR _T$[ebp+8]
  01c0d	b9 20 00 00 00	 mov	 ecx, 32			; 00000020H
  01c12	83 e9 06	 sub	 ecx, 6
  01c15	8b 85 88 fd ff
	ff		 mov	 eax, DWORD PTR $T35459[ebp]
  01c1b	d3 e0		 shl	 eax, cl
  01c1d	8b 8d 88 fd ff
	ff		 mov	 ecx, DWORD PTR $T35459[ebp]
  01c23	c1 e9 06	 shr	 ecx, 6
  01c26	0b c8		 or	 ecx, eax
  01c28	03 ca		 add	 ecx, edx
  01c2a	8b 55 9c	 mov	 edx, DWORD PTR _j$32344[ebp]
  01c2d	03 0c 95 10 00
	00 00		 add	 ecx, DWORD PTR _SHA256_K[edx*4+16]
  01c34	03 4d b0	 add	 ecx, DWORD PTR _W$[ebp+16]
  01c37	03 4d ec	 add	 ecx, DWORD PTR _T$[ebp+12]
  01c3a	89 4d ec	 mov	 DWORD PTR _T$[ebp+12], ecx
  01c3d	8b 45 fc	 mov	 eax, DWORD PTR _T$[ebp+28]
  01c40	03 45 ec	 add	 eax, DWORD PTR _T$[ebp+12]
  01c43	89 45 fc	 mov	 DWORD PTR _T$[ebp+28], eax
  01c46	8b 55 f0	 mov	 edx, DWORD PTR _T$[ebp+16]
  01c49	c1 ea 09	 shr	 edx, 9
  01c4c	b9 20 00 00 00	 mov	 ecx, 32			; 00000020H
  01c51	83 e9 09	 sub	 ecx, 9
  01c54	8b 45 f0	 mov	 eax, DWORD PTR _T$[ebp+16]
  01c57	d3 e0		 shl	 eax, cl
  01c59	0b d0		 or	 edx, eax
  01c5b	89 95 84 fd ff
	ff		 mov	 DWORD PTR $T35463[ebp], edx
  01c61	8b 4d f0	 mov	 ecx, DWORD PTR _T$[ebp+16]
  01c64	33 8d 84 fd ff
	ff		 xor	 ecx, DWORD PTR $T35463[ebp]
  01c6a	89 8d 80 fd ff
	ff		 mov	 DWORD PTR $T35467[ebp], ecx
  01c70	b9 20 00 00 00	 mov	 ecx, 32			; 00000020H
  01c75	83 e9 0b	 sub	 ecx, 11			; 0000000bH
  01c78	8b 95 80 fd ff
	ff		 mov	 edx, DWORD PTR $T35467[ebp]
  01c7e	d3 e2		 shl	 edx, cl
  01c80	8b 85 80 fd ff
	ff		 mov	 eax, DWORD PTR $T35467[ebp]
  01c86	c1 e8 0b	 shr	 eax, 11			; 0000000bH
  01c89	0b c2		 or	 eax, edx
  01c8b	33 45 f0	 xor	 eax, DWORD PTR _T$[ebp+16]
  01c8e	89 85 7c fd ff
	ff		 mov	 DWORD PTR $T35471[ebp], eax
  01c94	8b 55 f4	 mov	 edx, DWORD PTR _T$[ebp+20]
  01c97	33 55 f8	 xor	 edx, DWORD PTR _T$[ebp+24]
  01c9a	23 55 f0	 and	 edx, DWORD PTR _T$[ebp+16]
  01c9d	8b 45 f4	 mov	 eax, DWORD PTR _T$[ebp+20]
  01ca0	23 45 f8	 and	 eax, DWORD PTR _T$[ebp+24]
  01ca3	03 d0		 add	 edx, eax
  01ca5	b9 20 00 00 00	 mov	 ecx, 32			; 00000020H
  01caa	83 e9 02	 sub	 ecx, 2
  01cad	8b 85 7c fd ff
	ff		 mov	 eax, DWORD PTR $T35471[ebp]
  01cb3	d3 e0		 shl	 eax, cl
  01cb5	8b 8d 7c fd ff
	ff		 mov	 ecx, DWORD PTR $T35471[ebp]
  01cbb	c1 e9 02	 shr	 ecx, 2
  01cbe	0b c8		 or	 ecx, eax
  01cc0	03 55 ec	 add	 edx, DWORD PTR _T$[ebp+12]
  01cc3	03 d1		 add	 edx, ecx
  01cc5	89 55 ec	 mov	 DWORD PTR _T$[ebp+12], edx
  01cc8	b9 20 00 00 00	 mov	 ecx, 32			; 00000020H
  01ccd	83 e9 02	 sub	 ecx, 2
  01cd0	8b 55 ac	 mov	 edx, DWORD PTR _W$[ebp+12]
  01cd3	d3 e2		 shl	 edx, cl
  01cd5	8b 45 ac	 mov	 eax, DWORD PTR _W$[ebp+12]
  01cd8	c1 e8 02	 shr	 eax, 2
  01cdb	0b c2		 or	 eax, edx
  01cdd	33 45 ac	 xor	 eax, DWORD PTR _W$[ebp+12]
  01ce0	89 85 78 fd ff
	ff		 mov	 DWORD PTR $T35478[ebp], eax
  01ce6	b9 20 00 00 00	 mov	 ecx, 32			; 00000020H
  01ceb	83 e9 0b	 sub	 ecx, 11			; 0000000bH
  01cee	8b 55 b8	 mov	 edx, DWORD PTR _W$[ebp+24]
  01cf1	d3 e2		 shl	 edx, cl
  01cf3	8b 45 b8	 mov	 eax, DWORD PTR _W$[ebp+24]
  01cf6	c1 e8 0b	 shr	 eax, 11			; 0000000bH
  01cf9	0b c2		 or	 eax, edx
  01cfb	33 45 b8	 xor	 eax, DWORD PTR _W$[ebp+24]
  01cfe	89 85 74 fd ff
	ff		 mov	 DWORD PTR $T35485[ebp], eax
  01d04	8b 55 ac	 mov	 edx, DWORD PTR _W$[ebp+12]
  01d07	c1 ea 0a	 shr	 edx, 10			; 0000000aH
  01d0a	b9 20 00 00 00	 mov	 ecx, 32			; 00000020H
  01d0f	83 e9 11	 sub	 ecx, 17			; 00000011H
  01d12	8b 85 78 fd ff
	ff		 mov	 eax, DWORD PTR $T35478[ebp]
  01d18	d3 e0		 shl	 eax, cl
  01d1a	8b b5 78 fd ff
	ff		 mov	 esi, DWORD PTR $T35478[ebp]
  01d20	c1 ee 11	 shr	 esi, 17			; 00000011H
  01d23	0b f0		 or	 esi, eax
  01d25	33 f2		 xor	 esi, edx
  01d27	03 75 d8	 add	 esi, DWORD PTR _W$[ebp+56]
  01d2a	8b 55 b8	 mov	 edx, DWORD PTR _W$[ebp+24]
  01d2d	c1 ea 03	 shr	 edx, 3
  01d30	b9 20 00 00 00	 mov	 ecx, 32			; 00000020H
  01d35	83 e9 07	 sub	 ecx, 7
  01d38	8b 85 74 fd ff
	ff		 mov	 eax, DWORD PTR $T35485[ebp]
  01d3e	d3 e0		 shl	 eax, cl
  01d40	8b 8d 74 fd ff
	ff		 mov	 ecx, DWORD PTR $T35485[ebp]
  01d46	c1 e9 07	 shr	 ecx, 7
  01d49	0b c8		 or	 ecx, eax
  01d4b	33 ca		 xor	 ecx, edx
  01d4d	03 4d b4	 add	 ecx, DWORD PTR _W$[ebp+20]
  01d50	03 ce		 add	 ecx, esi
  01d52	89 4d b4	 mov	 DWORD PTR _W$[ebp+20], ecx
  01d55	8b 55 fc	 mov	 edx, DWORD PTR _T$[ebp+28]
  01d58	c1 ea 0e	 shr	 edx, 14			; 0000000eH
  01d5b	b9 20 00 00 00	 mov	 ecx, 32			; 00000020H
  01d60	83 e9 0e	 sub	 ecx, 14			; 0000000eH
  01d63	8b 45 fc	 mov	 eax, DWORD PTR _T$[ebp+28]
  01d66	d3 e0		 shl	 eax, cl
  01d68	0b d0		 or	 edx, eax
  01d6a	89 95 70 fd ff
	ff		 mov	 DWORD PTR $T35489[ebp], edx
  01d70	8b 4d fc	 mov	 ecx, DWORD PTR _T$[ebp+28]
  01d73	33 8d 70 fd ff
	ff		 xor	 ecx, DWORD PTR $T35489[ebp]
  01d79	89 8d 6c fd ff
	ff		 mov	 DWORD PTR $T35493[ebp], ecx
  01d7f	b9 20 00 00 00	 mov	 ecx, 32			; 00000020H
  01d84	83 e9 05	 sub	 ecx, 5
  01d87	8b 95 6c fd ff
	ff		 mov	 edx, DWORD PTR $T35493[ebp]
  01d8d	d3 e2		 shl	 edx, cl
  01d8f	8b 85 6c fd ff
	ff		 mov	 eax, DWORD PTR $T35493[ebp]
  01d95	c1 e8 05	 shr	 eax, 5
  01d98	0b c2		 or	 eax, edx
  01d9a	33 45 fc	 xor	 eax, DWORD PTR _T$[ebp+28]
  01d9d	89 85 68 fd ff
	ff		 mov	 DWORD PTR $T35497[ebp], eax
  01da3	8b 55 e0	 mov	 edx, DWORD PTR _T$[ebp]
  01da6	33 55 e4	 xor	 edx, DWORD PTR _T$[ebp+4]
  01da9	23 55 fc	 and	 edx, DWORD PTR _T$[ebp+28]
  01dac	33 55 e4	 xor	 edx, DWORD PTR _T$[ebp+4]
  01daf	b9 20 00 00 00	 mov	 ecx, 32			; 00000020H
  01db4	83 e9 06	 sub	 ecx, 6
  01db7	8b 85 68 fd ff
	ff		 mov	 eax, DWORD PTR $T35497[ebp]
  01dbd	d3 e0		 shl	 eax, cl
  01dbf	8b 8d 68 fd ff
	ff		 mov	 ecx, DWORD PTR $T35497[ebp]
  01dc5	c1 e9 06	 shr	 ecx, 6
  01dc8	0b c8		 or	 ecx, eax
  01dca	03 ca		 add	 ecx, edx
  01dcc	8b 55 9c	 mov	 edx, DWORD PTR _j$32344[ebp]
  01dcf	03 0c 95 14 00
	00 00		 add	 ecx, DWORD PTR _SHA256_K[edx*4+20]
  01dd6	03 4d b4	 add	 ecx, DWORD PTR _W$[ebp+20]
  01dd9	03 4d e8	 add	 ecx, DWORD PTR _T$[ebp+8]
  01ddc	89 4d e8	 mov	 DWORD PTR _T$[ebp+8], ecx
  01ddf	8b 45 f8	 mov	 eax, DWORD PTR _T$[ebp+24]
  01de2	03 45 e8	 add	 eax, DWORD PTR _T$[ebp+8]
  01de5	89 45 f8	 mov	 DWORD PTR _T$[ebp+24], eax
  01de8	8b 55 ec	 mov	 edx, DWORD PTR _T$[ebp+12]
  01deb	c1 ea 09	 shr	 edx, 9
  01dee	b9 20 00 00 00	 mov	 ecx, 32			; 00000020H
  01df3	83 e9 09	 sub	 ecx, 9
  01df6	8b 45 ec	 mov	 eax, DWORD PTR _T$[ebp+12]
  01df9	d3 e0		 shl	 eax, cl
  01dfb	0b d0		 or	 edx, eax
  01dfd	89 95 64 fd ff
	ff		 mov	 DWORD PTR $T35501[ebp], edx
  01e03	8b 4d ec	 mov	 ecx, DWORD PTR _T$[ebp+12]
  01e06	33 8d 64 fd ff
	ff		 xor	 ecx, DWORD PTR $T35501[ebp]
  01e0c	89 8d 60 fd ff
	ff		 mov	 DWORD PTR $T35505[ebp], ecx
  01e12	b9 20 00 00 00	 mov	 ecx, 32			; 00000020H
  01e17	83 e9 0b	 sub	 ecx, 11			; 0000000bH
  01e1a	8b 95 60 fd ff
	ff		 mov	 edx, DWORD PTR $T35505[ebp]
  01e20	d3 e2		 shl	 edx, cl
  01e22	8b 85 60 fd ff
	ff		 mov	 eax, DWORD PTR $T35505[ebp]
  01e28	c1 e8 0b	 shr	 eax, 11			; 0000000bH
  01e2b	0b c2		 or	 eax, edx
  01e2d	33 45 ec	 xor	 eax, DWORD PTR _T$[ebp+12]
  01e30	89 85 5c fd ff
	ff		 mov	 DWORD PTR $T35509[ebp], eax
  01e36	8b 55 f0	 mov	 edx, DWORD PTR _T$[ebp+16]
  01e39	33 55 f4	 xor	 edx, DWORD PTR _T$[ebp+20]
  01e3c	23 55 ec	 and	 edx, DWORD PTR _T$[ebp+12]
  01e3f	8b 45 f0	 mov	 eax, DWORD PTR _T$[ebp+16]
  01e42	23 45 f4	 and	 eax, DWORD PTR _T$[ebp+20]
  01e45	03 d0		 add	 edx, eax
  01e47	b9 20 00 00 00	 mov	 ecx, 32			; 00000020H
  01e4c	83 e9 02	 sub	 ecx, 2
  01e4f	8b 85 5c fd ff
	ff		 mov	 eax, DWORD PTR $T35509[ebp]
  01e55	d3 e0		 shl	 eax, cl
  01e57	8b 8d 5c fd ff
	ff		 mov	 ecx, DWORD PTR $T35509[ebp]
  01e5d	c1 e9 02	 shr	 ecx, 2
  01e60	0b c8		 or	 ecx, eax
  01e62	03 55 e8	 add	 edx, DWORD PTR _T$[ebp+8]
  01e65	03 d1		 add	 edx, ecx
  01e67	89 55 e8	 mov	 DWORD PTR _T$[ebp+8], edx
  01e6a	b9 20 00 00 00	 mov	 ecx, 32			; 00000020H
  01e6f	83 e9 02	 sub	 ecx, 2
  01e72	8b 55 b0	 mov	 edx, DWORD PTR _W$[ebp+16]
  01e75	d3 e2		 shl	 edx, cl
  01e77	8b 45 b0	 mov	 eax, DWORD PTR _W$[ebp+16]
  01e7a	c1 e8 02	 shr	 eax, 2
  01e7d	0b c2		 or	 eax, edx
  01e7f	33 45 b0	 xor	 eax, DWORD PTR _W$[ebp+16]
  01e82	89 85 58 fd ff
	ff		 mov	 DWORD PTR $T35516[ebp], eax
  01e88	b9 20 00 00 00	 mov	 ecx, 32			; 00000020H
  01e8d	83 e9 0b	 sub	 ecx, 11			; 0000000bH
  01e90	8b 55 bc	 mov	 edx, DWORD PTR _W$[ebp+28]
  01e93	d3 e2		 shl	 edx, cl
  01e95	8b 45 bc	 mov	 eax, DWORD PTR _W$[ebp+28]
  01e98	c1 e8 0b	 shr	 eax, 11			; 0000000bH
  01e9b	0b c2		 or	 eax, edx
  01e9d	33 45 bc	 xor	 eax, DWORD PTR _W$[ebp+28]
  01ea0	89 85 54 fd ff
	ff		 mov	 DWORD PTR $T35523[ebp], eax
  01ea6	8b 55 b0	 mov	 edx, DWORD PTR _W$[ebp+16]
  01ea9	c1 ea 0a	 shr	 edx, 10			; 0000000aH
  01eac	b9 20 00 00 00	 mov	 ecx, 32			; 00000020H
  01eb1	83 e9 11	 sub	 ecx, 17			; 00000011H
  01eb4	8b 85 58 fd ff
	ff		 mov	 eax, DWORD PTR $T35516[ebp]
  01eba	d3 e0		 shl	 eax, cl
  01ebc	8b b5 58 fd ff
	ff		 mov	 esi, DWORD PTR $T35516[ebp]
  01ec2	c1 ee 11	 shr	 esi, 17			; 00000011H
  01ec5	0b f0		 or	 esi, eax
  01ec7	33 f2		 xor	 esi, edx
  01ec9	03 75 dc	 add	 esi, DWORD PTR _W$[ebp+60]
  01ecc	8b 55 bc	 mov	 edx, DWORD PTR _W$[ebp+28]
  01ecf	c1 ea 03	 shr	 edx, 3
  01ed2	b9 20 00 00 00	 mov	 ecx, 32			; 00000020H
  01ed7	83 e9 07	 sub	 ecx, 7
  01eda	8b 85 54 fd ff
	ff		 mov	 eax, DWORD PTR $T35523[ebp]
  01ee0	d3 e0		 shl	 eax, cl
  01ee2	8b 8d 54 fd ff
	ff		 mov	 ecx, DWORD PTR $T35523[ebp]
  01ee8	c1 e9 07	 shr	 ecx, 7
  01eeb	0b c8		 or	 ecx, eax
  01eed	33 ca		 xor	 ecx, edx
  01eef	03 4d b8	 add	 ecx, DWORD PTR _W$[ebp+24]
  01ef2	03 ce		 add	 ecx, esi
  01ef4	89 4d b8	 mov	 DWORD PTR _W$[ebp+24], ecx
  01ef7	8b 55 f8	 mov	 edx, DWORD PTR _T$[ebp+24]
  01efa	c1 ea 0e	 shr	 edx, 14			; 0000000eH
  01efd	b9 20 00 00 00	 mov	 ecx, 32			; 00000020H
  01f02	83 e9 0e	 sub	 ecx, 14			; 0000000eH
  01f05	8b 45 f8	 mov	 eax, DWORD PTR _T$[ebp+24]
  01f08	d3 e0		 shl	 eax, cl
  01f0a	0b d0		 or	 edx, eax
  01f0c	89 95 50 fd ff
	ff		 mov	 DWORD PTR $T35527[ebp], edx
  01f12	8b 4d f8	 mov	 ecx, DWORD PTR _T$[ebp+24]
  01f15	33 8d 50 fd ff
	ff		 xor	 ecx, DWORD PTR $T35527[ebp]
  01f1b	89 8d 4c fd ff
	ff		 mov	 DWORD PTR $T35531[ebp], ecx
  01f21	b9 20 00 00 00	 mov	 ecx, 32			; 00000020H
  01f26	83 e9 05	 sub	 ecx, 5
  01f29	8b 95 4c fd ff
	ff		 mov	 edx, DWORD PTR $T35531[ebp]
  01f2f	d3 e2		 shl	 edx, cl
  01f31	8b 85 4c fd ff
	ff		 mov	 eax, DWORD PTR $T35531[ebp]
  01f37	c1 e8 05	 shr	 eax, 5
  01f3a	0b c2		 or	 eax, edx
  01f3c	33 45 f8	 xor	 eax, DWORD PTR _T$[ebp+24]
  01f3f	89 85 48 fd ff
	ff		 mov	 DWORD PTR $T35535[ebp], eax
  01f45	8b 55 fc	 mov	 edx, DWORD PTR _T$[ebp+28]
  01f48	33 55 e0	 xor	 edx, DWORD PTR _T$[ebp]
  01f4b	23 55 f8	 and	 edx, DWORD PTR _T$[ebp+24]
  01f4e	33 55 e0	 xor	 edx, DWORD PTR _T$[ebp]
  01f51	b9 20 00 00 00	 mov	 ecx, 32			; 00000020H
  01f56	83 e9 06	 sub	 ecx, 6
  01f59	8b 85 48 fd ff
	ff		 mov	 eax, DWORD PTR $T35535[ebp]
  01f5f	d3 e0		 shl	 eax, cl
  01f61	8b 8d 48 fd ff
	ff		 mov	 ecx, DWORD PTR $T35535[ebp]
  01f67	c1 e9 06	 shr	 ecx, 6
  01f6a	0b c8		 or	 ecx, eax
  01f6c	03 ca		 add	 ecx, edx
  01f6e	8b 55 9c	 mov	 edx, DWORD PTR _j$32344[ebp]
  01f71	03 0c 95 18 00
	00 00		 add	 ecx, DWORD PTR _SHA256_K[edx*4+24]
  01f78	03 4d b8	 add	 ecx, DWORD PTR _W$[ebp+24]
  01f7b	03 4d e4	 add	 ecx, DWORD PTR _T$[ebp+4]
  01f7e	89 4d e4	 mov	 DWORD PTR _T$[ebp+4], ecx
  01f81	8b 45 f4	 mov	 eax, DWORD PTR _T$[ebp+20]
  01f84	03 45 e4	 add	 eax, DWORD PTR _T$[ebp+4]
  01f87	89 45 f4	 mov	 DWORD PTR _T$[ebp+20], eax
  01f8a	8b 55 e8	 mov	 edx, DWORD PTR _T$[ebp+8]
  01f8d	c1 ea 09	 shr	 edx, 9
  01f90	b9 20 00 00 00	 mov	 ecx, 32			; 00000020H
  01f95	83 e9 09	 sub	 ecx, 9
  01f98	8b 45 e8	 mov	 eax, DWORD PTR _T$[ebp+8]
  01f9b	d3 e0		 shl	 eax, cl
  01f9d	0b d0		 or	 edx, eax
  01f9f	89 95 44 fd ff
	ff		 mov	 DWORD PTR $T35539[ebp], edx
  01fa5	8b 4d e8	 mov	 ecx, DWORD PTR _T$[ebp+8]
  01fa8	33 8d 44 fd ff
	ff		 xor	 ecx, DWORD PTR $T35539[ebp]
  01fae	89 8d 40 fd ff
	ff		 mov	 DWORD PTR $T35543[ebp], ecx
  01fb4	b9 20 00 00 00	 mov	 ecx, 32			; 00000020H
  01fb9	83 e9 0b	 sub	 ecx, 11			; 0000000bH
  01fbc	8b 95 40 fd ff
	ff		 mov	 edx, DWORD PTR $T35543[ebp]
  01fc2	d3 e2		 shl	 edx, cl
  01fc4	8b 85 40 fd ff
	ff		 mov	 eax, DWORD PTR $T35543[ebp]
  01fca	c1 e8 0b	 shr	 eax, 11			; 0000000bH
  01fcd	0b c2		 or	 eax, edx
  01fcf	33 45 e8	 xor	 eax, DWORD PTR _T$[ebp+8]
  01fd2	89 85 3c fd ff
	ff		 mov	 DWORD PTR $T35547[ebp], eax
  01fd8	8b 55 ec	 mov	 edx, DWORD PTR _T$[ebp+12]
  01fdb	33 55 f0	 xor	 edx, DWORD PTR _T$[ebp+16]
  01fde	23 55 e8	 and	 edx, DWORD PTR _T$[ebp+8]
  01fe1	8b 45 ec	 mov	 eax, DWORD PTR _T$[ebp+12]
  01fe4	23 45 f0	 and	 eax, DWORD PTR _T$[ebp+16]
  01fe7	03 d0		 add	 edx, eax
  01fe9	b9 20 00 00 00	 mov	 ecx, 32			; 00000020H
  01fee	83 e9 02	 sub	 ecx, 2
  01ff1	8b 85 3c fd ff
	ff		 mov	 eax, DWORD PTR $T35547[ebp]
  01ff7	d3 e0		 shl	 eax, cl
  01ff9	8b 8d 3c fd ff
	ff		 mov	 ecx, DWORD PTR $T35547[ebp]
  01fff	c1 e9 02	 shr	 ecx, 2
  02002	0b c8		 or	 ecx, eax
  02004	03 55 e4	 add	 edx, DWORD PTR _T$[ebp+4]
  02007	03 d1		 add	 edx, ecx
  02009	89 55 e4	 mov	 DWORD PTR _T$[ebp+4], edx
  0200c	b9 20 00 00 00	 mov	 ecx, 32			; 00000020H
  02011	83 e9 02	 sub	 ecx, 2
  02014	8b 55 b4	 mov	 edx, DWORD PTR _W$[ebp+20]
  02017	d3 e2		 shl	 edx, cl
  02019	8b 45 b4	 mov	 eax, DWORD PTR _W$[ebp+20]
  0201c	c1 e8 02	 shr	 eax, 2
  0201f	0b c2		 or	 eax, edx
  02021	33 45 b4	 xor	 eax, DWORD PTR _W$[ebp+20]
  02024	89 85 38 fd ff
	ff		 mov	 DWORD PTR $T35554[ebp], eax
  0202a	b9 20 00 00 00	 mov	 ecx, 32			; 00000020H
  0202f	83 e9 0b	 sub	 ecx, 11			; 0000000bH
  02032	8b 55 c0	 mov	 edx, DWORD PTR _W$[ebp+32]
  02035	d3 e2		 shl	 edx, cl
  02037	8b 45 c0	 mov	 eax, DWORD PTR _W$[ebp+32]
  0203a	c1 e8 0b	 shr	 eax, 11			; 0000000bH
  0203d	0b c2		 or	 eax, edx
  0203f	33 45 c0	 xor	 eax, DWORD PTR _W$[ebp+32]
  02042	89 85 34 fd ff
	ff		 mov	 DWORD PTR $T35561[ebp], eax
  02048	8b 55 b4	 mov	 edx, DWORD PTR _W$[ebp+20]
  0204b	c1 ea 0a	 shr	 edx, 10			; 0000000aH
  0204e	b9 20 00 00 00	 mov	 ecx, 32			; 00000020H
  02053	83 e9 11	 sub	 ecx, 17			; 00000011H
  02056	8b 85 38 fd ff
	ff		 mov	 eax, DWORD PTR $T35554[ebp]
  0205c	d3 e0		 shl	 eax, cl
  0205e	8b b5 38 fd ff
	ff		 mov	 esi, DWORD PTR $T35554[ebp]
  02064	c1 ee 11	 shr	 esi, 17			; 00000011H
  02067	0b f0		 or	 esi, eax
  02069	33 f2		 xor	 esi, edx
  0206b	03 75 a0	 add	 esi, DWORD PTR _W$[ebp]
  0206e	8b 55 c0	 mov	 edx, DWORD PTR _W$[ebp+32]
  02071	c1 ea 03	 shr	 edx, 3
  02074	b9 20 00 00 00	 mov	 ecx, 32			; 00000020H
  02079	83 e9 07	 sub	 ecx, 7
  0207c	8b 85 34 fd ff
	ff		 mov	 eax, DWORD PTR $T35561[ebp]
  02082	d3 e0		 shl	 eax, cl
  02084	8b 8d 34 fd ff
	ff		 mov	 ecx, DWORD PTR $T35561[ebp]
  0208a	c1 e9 07	 shr	 ecx, 7
  0208d	0b c8		 or	 ecx, eax
  0208f	33 ca		 xor	 ecx, edx
  02091	03 4d bc	 add	 ecx, DWORD PTR _W$[ebp+28]
  02094	03 ce		 add	 ecx, esi
  02096	89 4d bc	 mov	 DWORD PTR _W$[ebp+28], ecx
  02099	8b 55 f4	 mov	 edx, DWORD PTR _T$[ebp+20]
  0209c	c1 ea 0e	 shr	 edx, 14			; 0000000eH
  0209f	b9 20 00 00 00	 mov	 ecx, 32			; 00000020H
  020a4	83 e9 0e	 sub	 ecx, 14			; 0000000eH
  020a7	8b 45 f4	 mov	 eax, DWORD PTR _T$[ebp+20]
  020aa	d3 e0		 shl	 eax, cl
  020ac	0b d0		 or	 edx, eax
  020ae	89 95 30 fd ff
	ff		 mov	 DWORD PTR $T35565[ebp], edx
  020b4	8b 4d f4	 mov	 ecx, DWORD PTR _T$[ebp+20]
  020b7	33 8d 30 fd ff
	ff		 xor	 ecx, DWORD PTR $T35565[ebp]
  020bd	89 8d 2c fd ff
	ff		 mov	 DWORD PTR $T35569[ebp], ecx
  020c3	b9 20 00 00 00	 mov	 ecx, 32			; 00000020H
  020c8	83 e9 05	 sub	 ecx, 5
  020cb	8b 95 2c fd ff
	ff		 mov	 edx, DWORD PTR $T35569[ebp]
  020d1	d3 e2		 shl	 edx, cl
  020d3	8b 85 2c fd ff
	ff		 mov	 eax, DWORD PTR $T35569[ebp]
  020d9	c1 e8 05	 shr	 eax, 5
  020dc	0b c2		 or	 eax, edx
  020de	33 45 f4	 xor	 eax, DWORD PTR _T$[ebp+20]
  020e1	89 85 28 fd ff
	ff		 mov	 DWORD PTR $T35573[ebp], eax
  020e7	8b 55 f8	 mov	 edx, DWORD PTR _T$[ebp+24]
  020ea	33 55 fc	 xor	 edx, DWORD PTR _T$[ebp+28]
  020ed	23 55 f4	 and	 edx, DWORD PTR _T$[ebp+20]
  020f0	33 55 fc	 xor	 edx, DWORD PTR _T$[ebp+28]
  020f3	b9 20 00 00 00	 mov	 ecx, 32			; 00000020H
  020f8	83 e9 06	 sub	 ecx, 6
  020fb	8b 85 28 fd ff
	ff		 mov	 eax, DWORD PTR $T35573[ebp]
  02101	d3 e0		 shl	 eax, cl
  02103	8b 8d 28 fd ff
	ff		 mov	 ecx, DWORD PTR $T35573[ebp]
  02109	c1 e9 06	 shr	 ecx, 6
  0210c	0b c8		 or	 ecx, eax
  0210e	03 ca		 add	 ecx, edx
  02110	8b 55 9c	 mov	 edx, DWORD PTR _j$32344[ebp]
  02113	03 0c 95 1c 00
	00 00		 add	 ecx, DWORD PTR _SHA256_K[edx*4+28]
  0211a	03 4d bc	 add	 ecx, DWORD PTR _W$[ebp+28]
  0211d	03 4d e0	 add	 ecx, DWORD PTR _T$[ebp]
  02120	89 4d e0	 mov	 DWORD PTR _T$[ebp], ecx
  02123	8b 45 f0	 mov	 eax, DWORD PTR _T$[ebp+16]
  02126	03 45 e0	 add	 eax, DWORD PTR _T$[ebp]
  02129	89 45 f0	 mov	 DWORD PTR _T$[ebp+16], eax
  0212c	8b 55 e4	 mov	 edx, DWORD PTR _T$[ebp+4]
  0212f	c1 ea 09	 shr	 edx, 9
  02132	b9 20 00 00 00	 mov	 ecx, 32			; 00000020H
  02137	83 e9 09	 sub	 ecx, 9
  0213a	8b 45 e4	 mov	 eax, DWORD PTR _T$[ebp+4]
  0213d	d3 e0		 shl	 eax, cl
  0213f	0b d0		 or	 edx, eax
  02141	89 95 24 fd ff
	ff		 mov	 DWORD PTR $T35577[ebp], edx
  02147	8b 4d e4	 mov	 ecx, DWORD PTR _T$[ebp+4]
  0214a	33 8d 24 fd ff
	ff		 xor	 ecx, DWORD PTR $T35577[ebp]
  02150	89 8d 20 fd ff
	ff		 mov	 DWORD PTR $T35581[ebp], ecx
  02156	b9 20 00 00 00	 mov	 ecx, 32			; 00000020H
  0215b	83 e9 0b	 sub	 ecx, 11			; 0000000bH
  0215e	8b 95 20 fd ff
	ff		 mov	 edx, DWORD PTR $T35581[ebp]
  02164	d3 e2		 shl	 edx, cl
  02166	8b 85 20 fd ff
	ff		 mov	 eax, DWORD PTR $T35581[ebp]
  0216c	c1 e8 0b	 shr	 eax, 11			; 0000000bH
  0216f	0b c2		 or	 eax, edx
  02171	33 45 e4	 xor	 eax, DWORD PTR _T$[ebp+4]
  02174	89 85 1c fd ff
	ff		 mov	 DWORD PTR $T35585[ebp], eax
  0217a	8b 55 e8	 mov	 edx, DWORD PTR _T$[ebp+8]
  0217d	33 55 ec	 xor	 edx, DWORD PTR _T$[ebp+12]
  02180	23 55 e4	 and	 edx, DWORD PTR _T$[ebp+4]
  02183	8b 45 e8	 mov	 eax, DWORD PTR _T$[ebp+8]
  02186	23 45 ec	 and	 eax, DWORD PTR _T$[ebp+12]
  02189	03 d0		 add	 edx, eax
  0218b	b9 20 00 00 00	 mov	 ecx, 32			; 00000020H
  02190	83 e9 02	 sub	 ecx, 2
  02193	8b 85 1c fd ff
	ff		 mov	 eax, DWORD PTR $T35585[ebp]
  02199	d3 e0		 shl	 eax, cl
  0219b	8b 8d 1c fd ff
	ff		 mov	 ecx, DWORD PTR $T35585[ebp]
  021a1	c1 e9 02	 shr	 ecx, 2
  021a4	0b c8		 or	 ecx, eax
  021a6	03 55 e0	 add	 edx, DWORD PTR _T$[ebp]
  021a9	03 d1		 add	 edx, ecx
  021ab	89 55 e0	 mov	 DWORD PTR _T$[ebp], edx

; 104  : 		R2( 8); R2( 9); R2(10); R2(11);

  021ae	b9 20 00 00 00	 mov	 ecx, 32			; 00000020H
  021b3	83 e9 02	 sub	 ecx, 2
  021b6	8b 55 b8	 mov	 edx, DWORD PTR _W$[ebp+24]
  021b9	d3 e2		 shl	 edx, cl
  021bb	8b 45 b8	 mov	 eax, DWORD PTR _W$[ebp+24]
  021be	c1 e8 02	 shr	 eax, 2
  021c1	0b c2		 or	 eax, edx
  021c3	33 45 b8	 xor	 eax, DWORD PTR _W$[ebp+24]
  021c6	89 85 18 fd ff
	ff		 mov	 DWORD PTR $T35592[ebp], eax
  021cc	b9 20 00 00 00	 mov	 ecx, 32			; 00000020H
  021d1	83 e9 0b	 sub	 ecx, 11			; 0000000bH
  021d4	8b 55 c4	 mov	 edx, DWORD PTR _W$[ebp+36]
  021d7	d3 e2		 shl	 edx, cl
  021d9	8b 45 c4	 mov	 eax, DWORD PTR _W$[ebp+36]
  021dc	c1 e8 0b	 shr	 eax, 11			; 0000000bH
  021df	0b c2		 or	 eax, edx
  021e1	33 45 c4	 xor	 eax, DWORD PTR _W$[ebp+36]
  021e4	89 85 14 fd ff
	ff		 mov	 DWORD PTR $T35599[ebp], eax
  021ea	8b 55 b8	 mov	 edx, DWORD PTR _W$[ebp+24]
  021ed	c1 ea 0a	 shr	 edx, 10			; 0000000aH
  021f0	b9 20 00 00 00	 mov	 ecx, 32			; 00000020H
  021f5	83 e9 11	 sub	 ecx, 17			; 00000011H
  021f8	8b 85 18 fd ff
	ff		 mov	 eax, DWORD PTR $T35592[ebp]
  021fe	d3 e0		 shl	 eax, cl
  02200	8b b5 18 fd ff
	ff		 mov	 esi, DWORD PTR $T35592[ebp]
  02206	c1 ee 11	 shr	 esi, 17			; 00000011H
  02209	0b f0		 or	 esi, eax
  0220b	33 f2		 xor	 esi, edx
  0220d	03 75 a4	 add	 esi, DWORD PTR _W$[ebp+4]
  02210	8b 55 c4	 mov	 edx, DWORD PTR _W$[ebp+36]
  02213	c1 ea 03	 shr	 edx, 3
  02216	b9 20 00 00 00	 mov	 ecx, 32			; 00000020H
  0221b	83 e9 07	 sub	 ecx, 7
  0221e	8b 85 14 fd ff
	ff		 mov	 eax, DWORD PTR $T35599[ebp]
  02224	d3 e0		 shl	 eax, cl
  02226	8b 8d 14 fd ff
	ff		 mov	 ecx, DWORD PTR $T35599[ebp]
  0222c	c1 e9 07	 shr	 ecx, 7
  0222f	0b c8		 or	 ecx, eax
  02231	33 ca		 xor	 ecx, edx
  02233	03 4d c0	 add	 ecx, DWORD PTR _W$[ebp+32]
  02236	03 ce		 add	 ecx, esi
  02238	89 4d c0	 mov	 DWORD PTR _W$[ebp+32], ecx
  0223b	8b 55 f0	 mov	 edx, DWORD PTR _T$[ebp+16]
  0223e	c1 ea 0e	 shr	 edx, 14			; 0000000eH
  02241	b9 20 00 00 00	 mov	 ecx, 32			; 00000020H
  02246	83 e9 0e	 sub	 ecx, 14			; 0000000eH
  02249	8b 45 f0	 mov	 eax, DWORD PTR _T$[ebp+16]
  0224c	d3 e0		 shl	 eax, cl
  0224e	0b d0		 or	 edx, eax
  02250	89 95 10 fd ff
	ff		 mov	 DWORD PTR $T35603[ebp], edx
  02256	8b 4d f0	 mov	 ecx, DWORD PTR _T$[ebp+16]
  02259	33 8d 10 fd ff
	ff		 xor	 ecx, DWORD PTR $T35603[ebp]
  0225f	89 8d 0c fd ff
	ff		 mov	 DWORD PTR $T35607[ebp], ecx
  02265	b9 20 00 00 00	 mov	 ecx, 32			; 00000020H
  0226a	83 e9 05	 sub	 ecx, 5
  0226d	8b 95 0c fd ff
	ff		 mov	 edx, DWORD PTR $T35607[ebp]
  02273	d3 e2		 shl	 edx, cl
  02275	8b 85 0c fd ff
	ff		 mov	 eax, DWORD PTR $T35607[ebp]
  0227b	c1 e8 05	 shr	 eax, 5
  0227e	0b c2		 or	 eax, edx
  02280	33 45 f0	 xor	 eax, DWORD PTR _T$[ebp+16]
  02283	89 85 08 fd ff
	ff		 mov	 DWORD PTR $T35611[ebp], eax
  02289	8b 55 f4	 mov	 edx, DWORD PTR _T$[ebp+20]
  0228c	33 55 f8	 xor	 edx, DWORD PTR _T$[ebp+24]
  0228f	23 55 f0	 and	 edx, DWORD PTR _T$[ebp+16]
  02292	33 55 f8	 xor	 edx, DWORD PTR _T$[ebp+24]
  02295	b9 20 00 00 00	 mov	 ecx, 32			; 00000020H
  0229a	83 e9 06	 sub	 ecx, 6
  0229d	8b 85 08 fd ff
	ff		 mov	 eax, DWORD PTR $T35611[ebp]
  022a3	d3 e0		 shl	 eax, cl
  022a5	8b 8d 08 fd ff
	ff		 mov	 ecx, DWORD PTR $T35611[ebp]
  022ab	c1 e9 06	 shr	 ecx, 6
  022ae	0b c8		 or	 ecx, eax
  022b0	03 ca		 add	 ecx, edx
  022b2	8b 55 9c	 mov	 edx, DWORD PTR _j$32344[ebp]
  022b5	03 0c 95 20 00
	00 00		 add	 ecx, DWORD PTR _SHA256_K[edx*4+32]
  022bc	03 4d c0	 add	 ecx, DWORD PTR _W$[ebp+32]
  022bf	03 4d fc	 add	 ecx, DWORD PTR _T$[ebp+28]
  022c2	89 4d fc	 mov	 DWORD PTR _T$[ebp+28], ecx
  022c5	8b 45 ec	 mov	 eax, DWORD PTR _T$[ebp+12]
  022c8	03 45 fc	 add	 eax, DWORD PTR _T$[ebp+28]
  022cb	89 45 ec	 mov	 DWORD PTR _T$[ebp+12], eax
  022ce	8b 55 e0	 mov	 edx, DWORD PTR _T$[ebp]
  022d1	c1 ea 09	 shr	 edx, 9
  022d4	b9 20 00 00 00	 mov	 ecx, 32			; 00000020H
  022d9	83 e9 09	 sub	 ecx, 9
  022dc	8b 45 e0	 mov	 eax, DWORD PTR _T$[ebp]
  022df	d3 e0		 shl	 eax, cl
  022e1	0b d0		 or	 edx, eax
  022e3	89 95 04 fd ff
	ff		 mov	 DWORD PTR $T35615[ebp], edx
  022e9	8b 4d e0	 mov	 ecx, DWORD PTR _T$[ebp]
  022ec	33 8d 04 fd ff
	ff		 xor	 ecx, DWORD PTR $T35615[ebp]
  022f2	89 8d 00 fd ff
	ff		 mov	 DWORD PTR $T35619[ebp], ecx
  022f8	b9 20 00 00 00	 mov	 ecx, 32			; 00000020H
  022fd	83 e9 0b	 sub	 ecx, 11			; 0000000bH
  02300	8b 95 00 fd ff
	ff		 mov	 edx, DWORD PTR $T35619[ebp]
  02306	d3 e2		 shl	 edx, cl
  02308	8b 85 00 fd ff
	ff		 mov	 eax, DWORD PTR $T35619[ebp]
  0230e	c1 e8 0b	 shr	 eax, 11			; 0000000bH
  02311	0b c2		 or	 eax, edx
  02313	33 45 e0	 xor	 eax, DWORD PTR _T$[ebp]
  02316	89 85 fc fc ff
	ff		 mov	 DWORD PTR $T35623[ebp], eax
  0231c	8b 55 e4	 mov	 edx, DWORD PTR _T$[ebp+4]
  0231f	33 55 e8	 xor	 edx, DWORD PTR _T$[ebp+8]
  02322	23 55 e0	 and	 edx, DWORD PTR _T$[ebp]
  02325	8b 45 e4	 mov	 eax, DWORD PTR _T$[ebp+4]
  02328	23 45 e8	 and	 eax, DWORD PTR _T$[ebp+8]
  0232b	03 d0		 add	 edx, eax
  0232d	b9 20 00 00 00	 mov	 ecx, 32			; 00000020H
  02332	83 e9 02	 sub	 ecx, 2
  02335	8b 85 fc fc ff
	ff		 mov	 eax, DWORD PTR $T35623[ebp]
  0233b	d3 e0		 shl	 eax, cl
  0233d	8b 8d fc fc ff
	ff		 mov	 ecx, DWORD PTR $T35623[ebp]
  02343	c1 e9 02	 shr	 ecx, 2
  02346	0b c8		 or	 ecx, eax
  02348	03 55 fc	 add	 edx, DWORD PTR _T$[ebp+28]
  0234b	03 d1		 add	 edx, ecx
  0234d	89 55 fc	 mov	 DWORD PTR _T$[ebp+28], edx
  02350	b9 20 00 00 00	 mov	 ecx, 32			; 00000020H
  02355	83 e9 02	 sub	 ecx, 2
  02358	8b 55 bc	 mov	 edx, DWORD PTR _W$[ebp+28]
  0235b	d3 e2		 shl	 edx, cl
  0235d	8b 45 bc	 mov	 eax, DWORD PTR _W$[ebp+28]
  02360	c1 e8 02	 shr	 eax, 2
  02363	0b c2		 or	 eax, edx
  02365	33 45 bc	 xor	 eax, DWORD PTR _W$[ebp+28]
  02368	89 85 f8 fc ff
	ff		 mov	 DWORD PTR $T35630[ebp], eax
  0236e	b9 20 00 00 00	 mov	 ecx, 32			; 00000020H
  02373	83 e9 0b	 sub	 ecx, 11			; 0000000bH
  02376	8b 55 c8	 mov	 edx, DWORD PTR _W$[ebp+40]
  02379	d3 e2		 shl	 edx, cl
  0237b	8b 45 c8	 mov	 eax, DWORD PTR _W$[ebp+40]
  0237e	c1 e8 0b	 shr	 eax, 11			; 0000000bH
  02381	0b c2		 or	 eax, edx
  02383	33 45 c8	 xor	 eax, DWORD PTR _W$[ebp+40]
  02386	89 85 f4 fc ff
	ff		 mov	 DWORD PTR $T35637[ebp], eax
  0238c	8b 55 bc	 mov	 edx, DWORD PTR _W$[ebp+28]
  0238f	c1 ea 0a	 shr	 edx, 10			; 0000000aH
  02392	b9 20 00 00 00	 mov	 ecx, 32			; 00000020H
  02397	83 e9 11	 sub	 ecx, 17			; 00000011H
  0239a	8b 85 f8 fc ff
	ff		 mov	 eax, DWORD PTR $T35630[ebp]
  023a0	d3 e0		 shl	 eax, cl
  023a2	8b b5 f8 fc ff
	ff		 mov	 esi, DWORD PTR $T35630[ebp]
  023a8	c1 ee 11	 shr	 esi, 17			; 00000011H
  023ab	0b f0		 or	 esi, eax
  023ad	33 f2		 xor	 esi, edx
  023af	03 75 a8	 add	 esi, DWORD PTR _W$[ebp+8]
  023b2	8b 55 c8	 mov	 edx, DWORD PTR _W$[ebp+40]
  023b5	c1 ea 03	 shr	 edx, 3
  023b8	b9 20 00 00 00	 mov	 ecx, 32			; 00000020H
  023bd	83 e9 07	 sub	 ecx, 7
  023c0	8b 85 f4 fc ff
	ff		 mov	 eax, DWORD PTR $T35637[ebp]
  023c6	d3 e0		 shl	 eax, cl
  023c8	8b 8d f4 fc ff
	ff		 mov	 ecx, DWORD PTR $T35637[ebp]
  023ce	c1 e9 07	 shr	 ecx, 7
  023d1	0b c8		 or	 ecx, eax
  023d3	33 ca		 xor	 ecx, edx
  023d5	03 4d c4	 add	 ecx, DWORD PTR _W$[ebp+36]
  023d8	03 ce		 add	 ecx, esi
  023da	89 4d c4	 mov	 DWORD PTR _W$[ebp+36], ecx
  023dd	8b 55 ec	 mov	 edx, DWORD PTR _T$[ebp+12]
  023e0	c1 ea 0e	 shr	 edx, 14			; 0000000eH
  023e3	b9 20 00 00 00	 mov	 ecx, 32			; 00000020H
  023e8	83 e9 0e	 sub	 ecx, 14			; 0000000eH
  023eb	8b 45 ec	 mov	 eax, DWORD PTR _T$[ebp+12]
  023ee	d3 e0		 shl	 eax, cl
  023f0	0b d0		 or	 edx, eax
  023f2	89 95 f0 fc ff
	ff		 mov	 DWORD PTR $T35641[ebp], edx
  023f8	8b 4d ec	 mov	 ecx, DWORD PTR _T$[ebp+12]
  023fb	33 8d f0 fc ff
	ff		 xor	 ecx, DWORD PTR $T35641[ebp]
  02401	89 8d ec fc ff
	ff		 mov	 DWORD PTR $T35645[ebp], ecx
  02407	b9 20 00 00 00	 mov	 ecx, 32			; 00000020H
  0240c	83 e9 05	 sub	 ecx, 5
  0240f	8b 95 ec fc ff
	ff		 mov	 edx, DWORD PTR $T35645[ebp]
  02415	d3 e2		 shl	 edx, cl
  02417	8b 85 ec fc ff
	ff		 mov	 eax, DWORD PTR $T35645[ebp]
  0241d	c1 e8 05	 shr	 eax, 5
  02420	0b c2		 or	 eax, edx
  02422	33 45 ec	 xor	 eax, DWORD PTR _T$[ebp+12]
  02425	89 85 e8 fc ff
	ff		 mov	 DWORD PTR $T35649[ebp], eax
  0242b	8b 55 f0	 mov	 edx, DWORD PTR _T$[ebp+16]
  0242e	33 55 f4	 xor	 edx, DWORD PTR _T$[ebp+20]
  02431	23 55 ec	 and	 edx, DWORD PTR _T$[ebp+12]
  02434	33 55 f4	 xor	 edx, DWORD PTR _T$[ebp+20]
  02437	b9 20 00 00 00	 mov	 ecx, 32			; 00000020H
  0243c	83 e9 06	 sub	 ecx, 6
  0243f	8b 85 e8 fc ff
	ff		 mov	 eax, DWORD PTR $T35649[ebp]
  02445	d3 e0		 shl	 eax, cl
  02447	8b 8d e8 fc ff
	ff		 mov	 ecx, DWORD PTR $T35649[ebp]
  0244d	c1 e9 06	 shr	 ecx, 6
  02450	0b c8		 or	 ecx, eax
  02452	03 ca		 add	 ecx, edx
  02454	8b 55 9c	 mov	 edx, DWORD PTR _j$32344[ebp]
  02457	03 0c 95 24 00
	00 00		 add	 ecx, DWORD PTR _SHA256_K[edx*4+36]
  0245e	03 4d c4	 add	 ecx, DWORD PTR _W$[ebp+36]
  02461	03 4d f8	 add	 ecx, DWORD PTR _T$[ebp+24]
  02464	89 4d f8	 mov	 DWORD PTR _T$[ebp+24], ecx
  02467	8b 45 e8	 mov	 eax, DWORD PTR _T$[ebp+8]
  0246a	03 45 f8	 add	 eax, DWORD PTR _T$[ebp+24]
  0246d	89 45 e8	 mov	 DWORD PTR _T$[ebp+8], eax
  02470	8b 55 fc	 mov	 edx, DWORD PTR _T$[ebp+28]
  02473	c1 ea 09	 shr	 edx, 9
  02476	b9 20 00 00 00	 mov	 ecx, 32			; 00000020H
  0247b	83 e9 09	 sub	 ecx, 9
  0247e	8b 45 fc	 mov	 eax, DWORD PTR _T$[ebp+28]
  02481	d3 e0		 shl	 eax, cl
  02483	0b d0		 or	 edx, eax
  02485	89 95 e4 fc ff
	ff		 mov	 DWORD PTR $T35653[ebp], edx
  0248b	8b 4d fc	 mov	 ecx, DWORD PTR _T$[ebp+28]
  0248e	33 8d e4 fc ff
	ff		 xor	 ecx, DWORD PTR $T35653[ebp]
  02494	89 8d e0 fc ff
	ff		 mov	 DWORD PTR $T35657[ebp], ecx
  0249a	b9 20 00 00 00	 mov	 ecx, 32			; 00000020H
  0249f	83 e9 0b	 sub	 ecx, 11			; 0000000bH
  024a2	8b 95 e0 fc ff
	ff		 mov	 edx, DWORD PTR $T35657[ebp]
  024a8	d3 e2		 shl	 edx, cl
  024aa	8b 85 e0 fc ff
	ff		 mov	 eax, DWORD PTR $T35657[ebp]
  024b0	c1 e8 0b	 shr	 eax, 11			; 0000000bH
  024b3	0b c2		 or	 eax, edx
  024b5	33 45 fc	 xor	 eax, DWORD PTR _T$[ebp+28]
  024b8	89 85 dc fc ff
	ff		 mov	 DWORD PTR $T35661[ebp], eax
  024be	8b 55 e0	 mov	 edx, DWORD PTR _T$[ebp]
  024c1	33 55 e4	 xor	 edx, DWORD PTR _T$[ebp+4]
  024c4	23 55 fc	 and	 edx, DWORD PTR _T$[ebp+28]
  024c7	8b 45 e0	 mov	 eax, DWORD PTR _T$[ebp]
  024ca	23 45 e4	 and	 eax, DWORD PTR _T$[ebp+4]
  024cd	03 d0		 add	 edx, eax
  024cf	b9 20 00 00 00	 mov	 ecx, 32			; 00000020H
  024d4	83 e9 02	 sub	 ecx, 2
  024d7	8b 85 dc fc ff
	ff		 mov	 eax, DWORD PTR $T35661[ebp]
  024dd	d3 e0		 shl	 eax, cl
  024df	8b 8d dc fc ff
	ff		 mov	 ecx, DWORD PTR $T35661[ebp]
  024e5	c1 e9 02	 shr	 ecx, 2
  024e8	0b c8		 or	 ecx, eax
  024ea	03 55 f8	 add	 edx, DWORD PTR _T$[ebp+24]
  024ed	03 d1		 add	 edx, ecx
  024ef	89 55 f8	 mov	 DWORD PTR _T$[ebp+24], edx
  024f2	b9 20 00 00 00	 mov	 ecx, 32			; 00000020H
  024f7	83 e9 02	 sub	 ecx, 2
  024fa	8b 55 c0	 mov	 edx, DWORD PTR _W$[ebp+32]
  024fd	d3 e2		 shl	 edx, cl
  024ff	8b 45 c0	 mov	 eax, DWORD PTR _W$[ebp+32]
  02502	c1 e8 02	 shr	 eax, 2
  02505	0b c2		 or	 eax, edx
  02507	33 45 c0	 xor	 eax, DWORD PTR _W$[ebp+32]
  0250a	89 85 d8 fc ff
	ff		 mov	 DWORD PTR $T35668[ebp], eax
  02510	b9 20 00 00 00	 mov	 ecx, 32			; 00000020H
  02515	83 e9 0b	 sub	 ecx, 11			; 0000000bH
  02518	8b 55 cc	 mov	 edx, DWORD PTR _W$[ebp+44]
  0251b	d3 e2		 shl	 edx, cl
  0251d	8b 45 cc	 mov	 eax, DWORD PTR _W$[ebp+44]
  02520	c1 e8 0b	 shr	 eax, 11			; 0000000bH
  02523	0b c2		 or	 eax, edx
  02525	33 45 cc	 xor	 eax, DWORD PTR _W$[ebp+44]
  02528	89 85 d4 fc ff
	ff		 mov	 DWORD PTR $T35675[ebp], eax
  0252e	8b 55 c0	 mov	 edx, DWORD PTR _W$[ebp+32]
  02531	c1 ea 0a	 shr	 edx, 10			; 0000000aH
  02534	b9 20 00 00 00	 mov	 ecx, 32			; 00000020H
  02539	83 e9 11	 sub	 ecx, 17			; 00000011H
  0253c	8b 85 d8 fc ff
	ff		 mov	 eax, DWORD PTR $T35668[ebp]
  02542	d3 e0		 shl	 eax, cl
  02544	8b b5 d8 fc ff
	ff		 mov	 esi, DWORD PTR $T35668[ebp]
  0254a	c1 ee 11	 shr	 esi, 17			; 00000011H
  0254d	0b f0		 or	 esi, eax
  0254f	33 f2		 xor	 esi, edx
  02551	03 75 ac	 add	 esi, DWORD PTR _W$[ebp+12]
  02554	8b 55 cc	 mov	 edx, DWORD PTR _W$[ebp+44]
  02557	c1 ea 03	 shr	 edx, 3
  0255a	b9 20 00 00 00	 mov	 ecx, 32			; 00000020H
  0255f	83 e9 07	 sub	 ecx, 7
  02562	8b 85 d4 fc ff
	ff		 mov	 eax, DWORD PTR $T35675[ebp]
  02568	d3 e0		 shl	 eax, cl
  0256a	8b 8d d4 fc ff
	ff		 mov	 ecx, DWORD PTR $T35675[ebp]
  02570	c1 e9 07	 shr	 ecx, 7
  02573	0b c8		 or	 ecx, eax
  02575	33 ca		 xor	 ecx, edx
  02577	03 4d c8	 add	 ecx, DWORD PTR _W$[ebp+40]
  0257a	03 ce		 add	 ecx, esi
  0257c	89 4d c8	 mov	 DWORD PTR _W$[ebp+40], ecx
  0257f	8b 55 e8	 mov	 edx, DWORD PTR _T$[ebp+8]
  02582	c1 ea 0e	 shr	 edx, 14			; 0000000eH
  02585	b9 20 00 00 00	 mov	 ecx, 32			; 00000020H
  0258a	83 e9 0e	 sub	 ecx, 14			; 0000000eH
  0258d	8b 45 e8	 mov	 eax, DWORD PTR _T$[ebp+8]
  02590	d3 e0		 shl	 eax, cl
  02592	0b d0		 or	 edx, eax
  02594	89 95 d0 fc ff
	ff		 mov	 DWORD PTR $T35679[ebp], edx
  0259a	8b 4d e8	 mov	 ecx, DWORD PTR _T$[ebp+8]
  0259d	33 8d d0 fc ff
	ff		 xor	 ecx, DWORD PTR $T35679[ebp]
  025a3	89 8d cc fc ff
	ff		 mov	 DWORD PTR $T35683[ebp], ecx
  025a9	b9 20 00 00 00	 mov	 ecx, 32			; 00000020H
  025ae	83 e9 05	 sub	 ecx, 5
  025b1	8b 95 cc fc ff
	ff		 mov	 edx, DWORD PTR $T35683[ebp]
  025b7	d3 e2		 shl	 edx, cl
  025b9	8b 85 cc fc ff
	ff		 mov	 eax, DWORD PTR $T35683[ebp]
  025bf	c1 e8 05	 shr	 eax, 5
  025c2	0b c2		 or	 eax, edx
  025c4	33 45 e8	 xor	 eax, DWORD PTR _T$[ebp+8]
  025c7	89 85 c8 fc ff
	ff		 mov	 DWORD PTR $T35687[ebp], eax
  025cd	8b 55 ec	 mov	 edx, DWORD PTR _T$[ebp+12]
  025d0	33 55 f0	 xor	 edx, DWORD PTR _T$[ebp+16]
  025d3	23 55 e8	 and	 edx, DWORD PTR _T$[ebp+8]
  025d6	33 55 f0	 xor	 edx, DWORD PTR _T$[ebp+16]
  025d9	b9 20 00 00 00	 mov	 ecx, 32			; 00000020H
  025de	83 e9 06	 sub	 ecx, 6
  025e1	8b 85 c8 fc ff
	ff		 mov	 eax, DWORD PTR $T35687[ebp]
  025e7	d3 e0		 shl	 eax, cl
  025e9	8b 8d c8 fc ff
	ff		 mov	 ecx, DWORD PTR $T35687[ebp]
  025ef	c1 e9 06	 shr	 ecx, 6
  025f2	0b c8		 or	 ecx, eax
  025f4	03 ca		 add	 ecx, edx
  025f6	8b 55 9c	 mov	 edx, DWORD PTR _j$32344[ebp]
  025f9	03 0c 95 28 00
	00 00		 add	 ecx, DWORD PTR _SHA256_K[edx*4+40]
  02600	03 4d c8	 add	 ecx, DWORD PTR _W$[ebp+40]
  02603	03 4d f4	 add	 ecx, DWORD PTR _T$[ebp+20]
  02606	89 4d f4	 mov	 DWORD PTR _T$[ebp+20], ecx
  02609	8b 45 e4	 mov	 eax, DWORD PTR _T$[ebp+4]
  0260c	03 45 f4	 add	 eax, DWORD PTR _T$[ebp+20]
  0260f	89 45 e4	 mov	 DWORD PTR _T$[ebp+4], eax
  02612	8b 55 f8	 mov	 edx, DWORD PTR _T$[ebp+24]
  02615	c1 ea 09	 shr	 edx, 9
  02618	b9 20 00 00 00	 mov	 ecx, 32			; 00000020H
  0261d	83 e9 09	 sub	 ecx, 9
  02620	8b 45 f8	 mov	 eax, DWORD PTR _T$[ebp+24]
  02623	d3 e0		 shl	 eax, cl
  02625	0b d0		 or	 edx, eax
  02627	89 95 c4 fc ff
	ff		 mov	 DWORD PTR $T35691[ebp], edx
  0262d	8b 4d f8	 mov	 ecx, DWORD PTR _T$[ebp+24]
  02630	33 8d c4 fc ff
	ff		 xor	 ecx, DWORD PTR $T35691[ebp]
  02636	89 8d c0 fc ff
	ff		 mov	 DWORD PTR $T35695[ebp], ecx
  0263c	b9 20 00 00 00	 mov	 ecx, 32			; 00000020H
  02641	83 e9 0b	 sub	 ecx, 11			; 0000000bH
  02644	8b 95 c0 fc ff
	ff		 mov	 edx, DWORD PTR $T35695[ebp]
  0264a	d3 e2		 shl	 edx, cl
  0264c	8b 85 c0 fc ff
	ff		 mov	 eax, DWORD PTR $T35695[ebp]
  02652	c1 e8 0b	 shr	 eax, 11			; 0000000bH
  02655	0b c2		 or	 eax, edx
  02657	33 45 f8	 xor	 eax, DWORD PTR _T$[ebp+24]
  0265a	89 85 bc fc ff
	ff		 mov	 DWORD PTR $T35699[ebp], eax
  02660	8b 55 fc	 mov	 edx, DWORD PTR _T$[ebp+28]
  02663	33 55 e0	 xor	 edx, DWORD PTR _T$[ebp]
  02666	23 55 f8	 and	 edx, DWORD PTR _T$[ebp+24]
  02669	8b 45 fc	 mov	 eax, DWORD PTR _T$[ebp+28]
  0266c	23 45 e0	 and	 eax, DWORD PTR _T$[ebp]
  0266f	03 d0		 add	 edx, eax
  02671	b9 20 00 00 00	 mov	 ecx, 32			; 00000020H
  02676	83 e9 02	 sub	 ecx, 2
  02679	8b 85 bc fc ff
	ff		 mov	 eax, DWORD PTR $T35699[ebp]
  0267f	d3 e0		 shl	 eax, cl
  02681	8b 8d bc fc ff
	ff		 mov	 ecx, DWORD PTR $T35699[ebp]
  02687	c1 e9 02	 shr	 ecx, 2
  0268a	0b c8		 or	 ecx, eax
  0268c	03 55 f4	 add	 edx, DWORD PTR _T$[ebp+20]
  0268f	03 d1		 add	 edx, ecx
  02691	89 55 f4	 mov	 DWORD PTR _T$[ebp+20], edx
  02694	b9 20 00 00 00	 mov	 ecx, 32			; 00000020H
  02699	83 e9 02	 sub	 ecx, 2
  0269c	8b 55 c4	 mov	 edx, DWORD PTR _W$[ebp+36]
  0269f	d3 e2		 shl	 edx, cl
  026a1	8b 45 c4	 mov	 eax, DWORD PTR _W$[ebp+36]
  026a4	c1 e8 02	 shr	 eax, 2
  026a7	0b c2		 or	 eax, edx
  026a9	33 45 c4	 xor	 eax, DWORD PTR _W$[ebp+36]
  026ac	89 85 b8 fc ff
	ff		 mov	 DWORD PTR $T35706[ebp], eax
  026b2	b9 20 00 00 00	 mov	 ecx, 32			; 00000020H
  026b7	83 e9 0b	 sub	 ecx, 11			; 0000000bH
  026ba	8b 55 d0	 mov	 edx, DWORD PTR _W$[ebp+48]
  026bd	d3 e2		 shl	 edx, cl
  026bf	8b 45 d0	 mov	 eax, DWORD PTR _W$[ebp+48]
  026c2	c1 e8 0b	 shr	 eax, 11			; 0000000bH
  026c5	0b c2		 or	 eax, edx
  026c7	33 45 d0	 xor	 eax, DWORD PTR _W$[ebp+48]
  026ca	89 85 b4 fc ff
	ff		 mov	 DWORD PTR $T35713[ebp], eax
  026d0	8b 55 c4	 mov	 edx, DWORD PTR _W$[ebp+36]
  026d3	c1 ea 0a	 shr	 edx, 10			; 0000000aH
  026d6	b9 20 00 00 00	 mov	 ecx, 32			; 00000020H
  026db	83 e9 11	 sub	 ecx, 17			; 00000011H
  026de	8b 85 b8 fc ff
	ff		 mov	 eax, DWORD PTR $T35706[ebp]
  026e4	d3 e0		 shl	 eax, cl
  026e6	8b b5 b8 fc ff
	ff		 mov	 esi, DWORD PTR $T35706[ebp]
  026ec	c1 ee 11	 shr	 esi, 17			; 00000011H
  026ef	0b f0		 or	 esi, eax
  026f1	33 f2		 xor	 esi, edx
  026f3	03 75 b0	 add	 esi, DWORD PTR _W$[ebp+16]
  026f6	8b 55 d0	 mov	 edx, DWORD PTR _W$[ebp+48]
  026f9	c1 ea 03	 shr	 edx, 3
  026fc	b9 20 00 00 00	 mov	 ecx, 32			; 00000020H
  02701	83 e9 07	 sub	 ecx, 7
  02704	8b 85 b4 fc ff
	ff		 mov	 eax, DWORD PTR $T35713[ebp]
  0270a	d3 e0		 shl	 eax, cl
  0270c	8b 8d b4 fc ff
	ff		 mov	 ecx, DWORD PTR $T35713[ebp]
  02712	c1 e9 07	 shr	 ecx, 7
  02715	0b c8		 or	 ecx, eax
  02717	33 ca		 xor	 ecx, edx
  02719	03 4d cc	 add	 ecx, DWORD PTR _W$[ebp+44]
  0271c	03 ce		 add	 ecx, esi
  0271e	89 4d cc	 mov	 DWORD PTR _W$[ebp+44], ecx
  02721	8b 55 e4	 mov	 edx, DWORD PTR _T$[ebp+4]
  02724	c1 ea 0e	 shr	 edx, 14			; 0000000eH
  02727	b9 20 00 00 00	 mov	 ecx, 32			; 00000020H
  0272c	83 e9 0e	 sub	 ecx, 14			; 0000000eH
  0272f	8b 45 e4	 mov	 eax, DWORD PTR _T$[ebp+4]
  02732	d3 e0		 shl	 eax, cl
  02734	0b d0		 or	 edx, eax
  02736	89 95 b0 fc ff
	ff		 mov	 DWORD PTR $T35717[ebp], edx
  0273c	8b 4d e4	 mov	 ecx, DWORD PTR _T$[ebp+4]
  0273f	33 8d b0 fc ff
	ff		 xor	 ecx, DWORD PTR $T35717[ebp]
  02745	89 8d ac fc ff
	ff		 mov	 DWORD PTR $T35721[ebp], ecx
  0274b	b9 20 00 00 00	 mov	 ecx, 32			; 00000020H
  02750	83 e9 05	 sub	 ecx, 5
  02753	8b 95 ac fc ff
	ff		 mov	 edx, DWORD PTR $T35721[ebp]
  02759	d3 e2		 shl	 edx, cl
  0275b	8b 85 ac fc ff
	ff		 mov	 eax, DWORD PTR $T35721[ebp]
  02761	c1 e8 05	 shr	 eax, 5
  02764	0b c2		 or	 eax, edx
  02766	33 45 e4	 xor	 eax, DWORD PTR _T$[ebp+4]
  02769	89 85 a8 fc ff
	ff		 mov	 DWORD PTR $T35725[ebp], eax
  0276f	8b 55 e8	 mov	 edx, DWORD PTR _T$[ebp+8]
  02772	33 55 ec	 xor	 edx, DWORD PTR _T$[ebp+12]
  02775	23 55 e4	 and	 edx, DWORD PTR _T$[ebp+4]
  02778	33 55 ec	 xor	 edx, DWORD PTR _T$[ebp+12]
  0277b	b9 20 00 00 00	 mov	 ecx, 32			; 00000020H
  02780	83 e9 06	 sub	 ecx, 6
  02783	8b 85 a8 fc ff
	ff		 mov	 eax, DWORD PTR $T35725[ebp]
  02789	d3 e0		 shl	 eax, cl
  0278b	8b 8d a8 fc ff
	ff		 mov	 ecx, DWORD PTR $T35725[ebp]
  02791	c1 e9 06	 shr	 ecx, 6
  02794	0b c8		 or	 ecx, eax
  02796	03 ca		 add	 ecx, edx
  02798	8b 55 9c	 mov	 edx, DWORD PTR _j$32344[ebp]
  0279b	03 0c 95 2c 00
	00 00		 add	 ecx, DWORD PTR _SHA256_K[edx*4+44]
  027a2	03 4d cc	 add	 ecx, DWORD PTR _W$[ebp+44]
  027a5	03 4d f0	 add	 ecx, DWORD PTR _T$[ebp+16]
  027a8	89 4d f0	 mov	 DWORD PTR _T$[ebp+16], ecx
  027ab	8b 45 e0	 mov	 eax, DWORD PTR _T$[ebp]
  027ae	03 45 f0	 add	 eax, DWORD PTR _T$[ebp+16]
  027b1	89 45 e0	 mov	 DWORD PTR _T$[ebp], eax
  027b4	8b 55 f4	 mov	 edx, DWORD PTR _T$[ebp+20]
  027b7	c1 ea 09	 shr	 edx, 9
  027ba	b9 20 00 00 00	 mov	 ecx, 32			; 00000020H
  027bf	83 e9 09	 sub	 ecx, 9
  027c2	8b 45 f4	 mov	 eax, DWORD PTR _T$[ebp+20]
  027c5	d3 e0		 shl	 eax, cl
  027c7	0b d0		 or	 edx, eax
  027c9	89 95 a4 fc ff
	ff		 mov	 DWORD PTR $T35729[ebp], edx
  027cf	8b 4d f4	 mov	 ecx, DWORD PTR _T$[ebp+20]
  027d2	33 8d a4 fc ff
	ff		 xor	 ecx, DWORD PTR $T35729[ebp]
  027d8	89 8d a0 fc ff
	ff		 mov	 DWORD PTR $T35733[ebp], ecx
  027de	b9 20 00 00 00	 mov	 ecx, 32			; 00000020H
  027e3	83 e9 0b	 sub	 ecx, 11			; 0000000bH
  027e6	8b 95 a0 fc ff
	ff		 mov	 edx, DWORD PTR $T35733[ebp]
  027ec	d3 e2		 shl	 edx, cl
  027ee	8b 85 a0 fc ff
	ff		 mov	 eax, DWORD PTR $T35733[ebp]
  027f4	c1 e8 0b	 shr	 eax, 11			; 0000000bH
  027f7	0b c2		 or	 eax, edx
  027f9	33 45 f4	 xor	 eax, DWORD PTR _T$[ebp+20]
  027fc	89 85 9c fc ff
	ff		 mov	 DWORD PTR $T35737[ebp], eax
  02802	8b 55 f8	 mov	 edx, DWORD PTR _T$[ebp+24]
  02805	33 55 fc	 xor	 edx, DWORD PTR _T$[ebp+28]
  02808	23 55 f4	 and	 edx, DWORD PTR _T$[ebp+20]
  0280b	8b 45 f8	 mov	 eax, DWORD PTR _T$[ebp+24]
  0280e	23 45 fc	 and	 eax, DWORD PTR _T$[ebp+28]
  02811	03 d0		 add	 edx, eax
  02813	b9 20 00 00 00	 mov	 ecx, 32			; 00000020H
  02818	83 e9 02	 sub	 ecx, 2
  0281b	8b 85 9c fc ff
	ff		 mov	 eax, DWORD PTR $T35737[ebp]
  02821	d3 e0		 shl	 eax, cl
  02823	8b 8d 9c fc ff
	ff		 mov	 ecx, DWORD PTR $T35737[ebp]
  02829	c1 e9 02	 shr	 ecx, 2
  0282c	0b c8		 or	 ecx, eax
  0282e	03 55 f0	 add	 edx, DWORD PTR _T$[ebp+16]
  02831	03 d1		 add	 edx, ecx
  02833	89 55 f0	 mov	 DWORD PTR _T$[ebp+16], edx

; 105  : 		R2(12); R2(13); R2(14); R2(15);

  02836	b9 20 00 00 00	 mov	 ecx, 32			; 00000020H
  0283b	83 e9 02	 sub	 ecx, 2
  0283e	8b 55 c8	 mov	 edx, DWORD PTR _W$[ebp+40]
  02841	d3 e2		 shl	 edx, cl
  02843	8b 45 c8	 mov	 eax, DWORD PTR _W$[ebp+40]
  02846	c1 e8 02	 shr	 eax, 2
  02849	0b c2		 or	 eax, edx
  0284b	33 45 c8	 xor	 eax, DWORD PTR _W$[ebp+40]
  0284e	89 85 98 fc ff
	ff		 mov	 DWORD PTR $T35744[ebp], eax
  02854	b9 20 00 00 00	 mov	 ecx, 32			; 00000020H
  02859	83 e9 0b	 sub	 ecx, 11			; 0000000bH
  0285c	8b 55 d4	 mov	 edx, DWORD PTR _W$[ebp+52]
  0285f	d3 e2		 shl	 edx, cl
  02861	8b 45 d4	 mov	 eax, DWORD PTR _W$[ebp+52]
  02864	c1 e8 0b	 shr	 eax, 11			; 0000000bH
  02867	0b c2		 or	 eax, edx
  02869	33 45 d4	 xor	 eax, DWORD PTR _W$[ebp+52]
  0286c	89 85 94 fc ff
	ff		 mov	 DWORD PTR $T35751[ebp], eax
  02872	8b 55 c8	 mov	 edx, DWORD PTR _W$[ebp+40]
  02875	c1 ea 0a	 shr	 edx, 10			; 0000000aH
  02878	b9 20 00 00 00	 mov	 ecx, 32			; 00000020H
  0287d	83 e9 11	 sub	 ecx, 17			; 00000011H
  02880	8b 85 98 fc ff
	ff		 mov	 eax, DWORD PTR $T35744[ebp]
  02886	d3 e0		 shl	 eax, cl
  02888	8b b5 98 fc ff
	ff		 mov	 esi, DWORD PTR $T35744[ebp]
  0288e	c1 ee 11	 shr	 esi, 17			; 00000011H
  02891	0b f0		 or	 esi, eax
  02893	33 f2		 xor	 esi, edx
  02895	03 75 b4	 add	 esi, DWORD PTR _W$[ebp+20]
  02898	8b 55 d4	 mov	 edx, DWORD PTR _W$[ebp+52]
  0289b	c1 ea 03	 shr	 edx, 3
  0289e	b9 20 00 00 00	 mov	 ecx, 32			; 00000020H
  028a3	83 e9 07	 sub	 ecx, 7
  028a6	8b 85 94 fc ff
	ff		 mov	 eax, DWORD PTR $T35751[ebp]
  028ac	d3 e0		 shl	 eax, cl
  028ae	8b 8d 94 fc ff
	ff		 mov	 ecx, DWORD PTR $T35751[ebp]
  028b4	c1 e9 07	 shr	 ecx, 7
  028b7	0b c8		 or	 ecx, eax
  028b9	33 ca		 xor	 ecx, edx
  028bb	03 4d d0	 add	 ecx, DWORD PTR _W$[ebp+48]
  028be	03 ce		 add	 ecx, esi
  028c0	89 4d d0	 mov	 DWORD PTR _W$[ebp+48], ecx
  028c3	8b 55 e0	 mov	 edx, DWORD PTR _T$[ebp]
  028c6	c1 ea 0e	 shr	 edx, 14			; 0000000eH
  028c9	b9 20 00 00 00	 mov	 ecx, 32			; 00000020H
  028ce	83 e9 0e	 sub	 ecx, 14			; 0000000eH
  028d1	8b 45 e0	 mov	 eax, DWORD PTR _T$[ebp]
  028d4	d3 e0		 shl	 eax, cl
  028d6	0b d0		 or	 edx, eax
  028d8	89 95 90 fc ff
	ff		 mov	 DWORD PTR $T35755[ebp], edx
  028de	8b 4d e0	 mov	 ecx, DWORD PTR _T$[ebp]
  028e1	33 8d 90 fc ff
	ff		 xor	 ecx, DWORD PTR $T35755[ebp]
  028e7	89 8d 8c fc ff
	ff		 mov	 DWORD PTR $T35759[ebp], ecx
  028ed	b9 20 00 00 00	 mov	 ecx, 32			; 00000020H
  028f2	83 e9 05	 sub	 ecx, 5
  028f5	8b 95 8c fc ff
	ff		 mov	 edx, DWORD PTR $T35759[ebp]
  028fb	d3 e2		 shl	 edx, cl
  028fd	8b 85 8c fc ff
	ff		 mov	 eax, DWORD PTR $T35759[ebp]
  02903	c1 e8 05	 shr	 eax, 5
  02906	0b c2		 or	 eax, edx
  02908	33 45 e0	 xor	 eax, DWORD PTR _T$[ebp]
  0290b	89 85 88 fc ff
	ff		 mov	 DWORD PTR $T35763[ebp], eax
  02911	8b 55 e4	 mov	 edx, DWORD PTR _T$[ebp+4]
  02914	33 55 e8	 xor	 edx, DWORD PTR _T$[ebp+8]
  02917	23 55 e0	 and	 edx, DWORD PTR _T$[ebp]
  0291a	33 55 e8	 xor	 edx, DWORD PTR _T$[ebp+8]
  0291d	b9 20 00 00 00	 mov	 ecx, 32			; 00000020H
  02922	83 e9 06	 sub	 ecx, 6
  02925	8b 85 88 fc ff
	ff		 mov	 eax, DWORD PTR $T35763[ebp]
  0292b	d3 e0		 shl	 eax, cl
  0292d	8b 8d 88 fc ff
	ff		 mov	 ecx, DWORD PTR $T35763[ebp]
  02933	c1 e9 06	 shr	 ecx, 6
  02936	0b c8		 or	 ecx, eax
  02938	03 ca		 add	 ecx, edx
  0293a	8b 55 9c	 mov	 edx, DWORD PTR _j$32344[ebp]
  0293d	03 0c 95 30 00
	00 00		 add	 ecx, DWORD PTR _SHA256_K[edx*4+48]
  02944	03 4d d0	 add	 ecx, DWORD PTR _W$[ebp+48]
  02947	03 4d ec	 add	 ecx, DWORD PTR _T$[ebp+12]
  0294a	89 4d ec	 mov	 DWORD PTR _T$[ebp+12], ecx
  0294d	8b 45 fc	 mov	 eax, DWORD PTR _T$[ebp+28]
  02950	03 45 ec	 add	 eax, DWORD PTR _T$[ebp+12]
  02953	89 45 fc	 mov	 DWORD PTR _T$[ebp+28], eax
  02956	8b 55 f0	 mov	 edx, DWORD PTR _T$[ebp+16]
  02959	c1 ea 09	 shr	 edx, 9
  0295c	b9 20 00 00 00	 mov	 ecx, 32			; 00000020H
  02961	83 e9 09	 sub	 ecx, 9
  02964	8b 45 f0	 mov	 eax, DWORD PTR _T$[ebp+16]
  02967	d3 e0		 shl	 eax, cl
  02969	0b d0		 or	 edx, eax
  0296b	89 95 84 fc ff
	ff		 mov	 DWORD PTR $T35767[ebp], edx
  02971	8b 4d f0	 mov	 ecx, DWORD PTR _T$[ebp+16]
  02974	33 8d 84 fc ff
	ff		 xor	 ecx, DWORD PTR $T35767[ebp]
  0297a	89 8d 80 fc ff
	ff		 mov	 DWORD PTR $T35771[ebp], ecx
  02980	b9 20 00 00 00	 mov	 ecx, 32			; 00000020H
  02985	83 e9 0b	 sub	 ecx, 11			; 0000000bH
  02988	8b 95 80 fc ff
	ff		 mov	 edx, DWORD PTR $T35771[ebp]
  0298e	d3 e2		 shl	 edx, cl
  02990	8b 85 80 fc ff
	ff		 mov	 eax, DWORD PTR $T35771[ebp]
  02996	c1 e8 0b	 shr	 eax, 11			; 0000000bH
  02999	0b c2		 or	 eax, edx
  0299b	33 45 f0	 xor	 eax, DWORD PTR _T$[ebp+16]
  0299e	89 85 7c fc ff
	ff		 mov	 DWORD PTR $T35775[ebp], eax
  029a4	8b 55 f4	 mov	 edx, DWORD PTR _T$[ebp+20]
  029a7	33 55 f8	 xor	 edx, DWORD PTR _T$[ebp+24]
  029aa	23 55 f0	 and	 edx, DWORD PTR _T$[ebp+16]
  029ad	8b 45 f4	 mov	 eax, DWORD PTR _T$[ebp+20]
  029b0	23 45 f8	 and	 eax, DWORD PTR _T$[ebp+24]
  029b3	03 d0		 add	 edx, eax
  029b5	b9 20 00 00 00	 mov	 ecx, 32			; 00000020H
  029ba	83 e9 02	 sub	 ecx, 2
  029bd	8b 85 7c fc ff
	ff		 mov	 eax, DWORD PTR $T35775[ebp]
  029c3	d3 e0		 shl	 eax, cl
  029c5	8b 8d 7c fc ff
	ff		 mov	 ecx, DWORD PTR $T35775[ebp]
  029cb	c1 e9 02	 shr	 ecx, 2
  029ce	0b c8		 or	 ecx, eax
  029d0	03 55 ec	 add	 edx, DWORD PTR _T$[ebp+12]
  029d3	03 d1		 add	 edx, ecx
  029d5	89 55 ec	 mov	 DWORD PTR _T$[ebp+12], edx
  029d8	b9 20 00 00 00	 mov	 ecx, 32			; 00000020H
  029dd	83 e9 02	 sub	 ecx, 2
  029e0	8b 55 cc	 mov	 edx, DWORD PTR _W$[ebp+44]
  029e3	d3 e2		 shl	 edx, cl
  029e5	8b 45 cc	 mov	 eax, DWORD PTR _W$[ebp+44]
  029e8	c1 e8 02	 shr	 eax, 2
  029eb	0b c2		 or	 eax, edx
  029ed	33 45 cc	 xor	 eax, DWORD PTR _W$[ebp+44]
  029f0	89 85 78 fc ff
	ff		 mov	 DWORD PTR $T35782[ebp], eax
  029f6	b9 20 00 00 00	 mov	 ecx, 32			; 00000020H
  029fb	83 e9 0b	 sub	 ecx, 11			; 0000000bH
  029fe	8b 55 d8	 mov	 edx, DWORD PTR _W$[ebp+56]
  02a01	d3 e2		 shl	 edx, cl
  02a03	8b 45 d8	 mov	 eax, DWORD PTR _W$[ebp+56]
  02a06	c1 e8 0b	 shr	 eax, 11			; 0000000bH
  02a09	0b c2		 or	 eax, edx
  02a0b	33 45 d8	 xor	 eax, DWORD PTR _W$[ebp+56]
  02a0e	89 85 74 fc ff
	ff		 mov	 DWORD PTR $T35789[ebp], eax
  02a14	8b 55 cc	 mov	 edx, DWORD PTR _W$[ebp+44]
  02a17	c1 ea 0a	 shr	 edx, 10			; 0000000aH
  02a1a	b9 20 00 00 00	 mov	 ecx, 32			; 00000020H
  02a1f	83 e9 11	 sub	 ecx, 17			; 00000011H
  02a22	8b 85 78 fc ff
	ff		 mov	 eax, DWORD PTR $T35782[ebp]
  02a28	d3 e0		 shl	 eax, cl
  02a2a	8b b5 78 fc ff
	ff		 mov	 esi, DWORD PTR $T35782[ebp]
  02a30	c1 ee 11	 shr	 esi, 17			; 00000011H
  02a33	0b f0		 or	 esi, eax
  02a35	33 f2		 xor	 esi, edx
  02a37	03 75 b8	 add	 esi, DWORD PTR _W$[ebp+24]
  02a3a	8b 55 d8	 mov	 edx, DWORD PTR _W$[ebp+56]
  02a3d	c1 ea 03	 shr	 edx, 3
  02a40	b9 20 00 00 00	 mov	 ecx, 32			; 00000020H
  02a45	83 e9 07	 sub	 ecx, 7
  02a48	8b 85 74 fc ff
	ff		 mov	 eax, DWORD PTR $T35789[ebp]
  02a4e	d3 e0		 shl	 eax, cl
  02a50	8b 8d 74 fc ff
	ff		 mov	 ecx, DWORD PTR $T35789[ebp]
  02a56	c1 e9 07	 shr	 ecx, 7
  02a59	0b c8		 or	 ecx, eax
  02a5b	33 ca		 xor	 ecx, edx
  02a5d	03 4d d4	 add	 ecx, DWORD PTR _W$[ebp+52]
  02a60	03 ce		 add	 ecx, esi
  02a62	89 4d d4	 mov	 DWORD PTR _W$[ebp+52], ecx
  02a65	8b 55 fc	 mov	 edx, DWORD PTR _T$[ebp+28]
  02a68	c1 ea 0e	 shr	 edx, 14			; 0000000eH
  02a6b	b9 20 00 00 00	 mov	 ecx, 32			; 00000020H
  02a70	83 e9 0e	 sub	 ecx, 14			; 0000000eH
  02a73	8b 45 fc	 mov	 eax, DWORD PTR _T$[ebp+28]
  02a76	d3 e0		 shl	 eax, cl
  02a78	0b d0		 or	 edx, eax
  02a7a	89 95 70 fc ff
	ff		 mov	 DWORD PTR $T35793[ebp], edx
  02a80	8b 4d fc	 mov	 ecx, DWORD PTR _T$[ebp+28]
  02a83	33 8d 70 fc ff
	ff		 xor	 ecx, DWORD PTR $T35793[ebp]
  02a89	89 8d 6c fc ff
	ff		 mov	 DWORD PTR $T35797[ebp], ecx
  02a8f	b9 20 00 00 00	 mov	 ecx, 32			; 00000020H
  02a94	83 e9 05	 sub	 ecx, 5
  02a97	8b 95 6c fc ff
	ff		 mov	 edx, DWORD PTR $T35797[ebp]
  02a9d	d3 e2		 shl	 edx, cl
  02a9f	8b 85 6c fc ff
	ff		 mov	 eax, DWORD PTR $T35797[ebp]
  02aa5	c1 e8 05	 shr	 eax, 5
  02aa8	0b c2		 or	 eax, edx
  02aaa	33 45 fc	 xor	 eax, DWORD PTR _T$[ebp+28]
  02aad	89 85 68 fc ff
	ff		 mov	 DWORD PTR $T35801[ebp], eax
  02ab3	8b 55 e0	 mov	 edx, DWORD PTR _T$[ebp]
  02ab6	33 55 e4	 xor	 edx, DWORD PTR _T$[ebp+4]
  02ab9	23 55 fc	 and	 edx, DWORD PTR _T$[ebp+28]
  02abc	33 55 e4	 xor	 edx, DWORD PTR _T$[ebp+4]
  02abf	b9 20 00 00 00	 mov	 ecx, 32			; 00000020H
  02ac4	83 e9 06	 sub	 ecx, 6
  02ac7	8b 85 68 fc ff
	ff		 mov	 eax, DWORD PTR $T35801[ebp]
  02acd	d3 e0		 shl	 eax, cl
  02acf	8b 8d 68 fc ff
	ff		 mov	 ecx, DWORD PTR $T35801[ebp]
  02ad5	c1 e9 06	 shr	 ecx, 6
  02ad8	0b c8		 or	 ecx, eax
  02ada	03 ca		 add	 ecx, edx
  02adc	8b 55 9c	 mov	 edx, DWORD PTR _j$32344[ebp]
  02adf	03 0c 95 34 00
	00 00		 add	 ecx, DWORD PTR _SHA256_K[edx*4+52]
  02ae6	03 4d d4	 add	 ecx, DWORD PTR _W$[ebp+52]
  02ae9	03 4d e8	 add	 ecx, DWORD PTR _T$[ebp+8]
  02aec	89 4d e8	 mov	 DWORD PTR _T$[ebp+8], ecx
  02aef	8b 45 f8	 mov	 eax, DWORD PTR _T$[ebp+24]
  02af2	03 45 e8	 add	 eax, DWORD PTR _T$[ebp+8]
  02af5	89 45 f8	 mov	 DWORD PTR _T$[ebp+24], eax
  02af8	8b 55 ec	 mov	 edx, DWORD PTR _T$[ebp+12]
  02afb	c1 ea 09	 shr	 edx, 9
  02afe	b9 20 00 00 00	 mov	 ecx, 32			; 00000020H
  02b03	83 e9 09	 sub	 ecx, 9
  02b06	8b 45 ec	 mov	 eax, DWORD PTR _T$[ebp+12]
  02b09	d3 e0		 shl	 eax, cl
  02b0b	0b d0		 or	 edx, eax
  02b0d	89 95 64 fc ff
	ff		 mov	 DWORD PTR $T35805[ebp], edx
  02b13	8b 4d ec	 mov	 ecx, DWORD PTR _T$[ebp+12]
  02b16	33 8d 64 fc ff
	ff		 xor	 ecx, DWORD PTR $T35805[ebp]
  02b1c	89 8d 60 fc ff
	ff		 mov	 DWORD PTR $T35809[ebp], ecx
  02b22	b9 20 00 00 00	 mov	 ecx, 32			; 00000020H
  02b27	83 e9 0b	 sub	 ecx, 11			; 0000000bH
  02b2a	8b 95 60 fc ff
	ff		 mov	 edx, DWORD PTR $T35809[ebp]
  02b30	d3 e2		 shl	 edx, cl
  02b32	8b 85 60 fc ff
	ff		 mov	 eax, DWORD PTR $T35809[ebp]
  02b38	c1 e8 0b	 shr	 eax, 11			; 0000000bH
  02b3b	0b c2		 or	 eax, edx
  02b3d	33 45 ec	 xor	 eax, DWORD PTR _T$[ebp+12]
  02b40	89 85 5c fc ff
	ff		 mov	 DWORD PTR $T35813[ebp], eax
  02b46	8b 55 f0	 mov	 edx, DWORD PTR _T$[ebp+16]
  02b49	33 55 f4	 xor	 edx, DWORD PTR _T$[ebp+20]
  02b4c	23 55 ec	 and	 edx, DWORD PTR _T$[ebp+12]
  02b4f	8b 45 f0	 mov	 eax, DWORD PTR _T$[ebp+16]
  02b52	23 45 f4	 and	 eax, DWORD PTR _T$[ebp+20]
  02b55	03 d0		 add	 edx, eax
  02b57	b9 20 00 00 00	 mov	 ecx, 32			; 00000020H
  02b5c	83 e9 02	 sub	 ecx, 2
  02b5f	8b 85 5c fc ff
	ff		 mov	 eax, DWORD PTR $T35813[ebp]
  02b65	d3 e0		 shl	 eax, cl
  02b67	8b 8d 5c fc ff
	ff		 mov	 ecx, DWORD PTR $T35813[ebp]
  02b6d	c1 e9 02	 shr	 ecx, 2
  02b70	0b c8		 or	 ecx, eax
  02b72	03 55 e8	 add	 edx, DWORD PTR _T$[ebp+8]
  02b75	03 d1		 add	 edx, ecx
  02b77	89 55 e8	 mov	 DWORD PTR _T$[ebp+8], edx
  02b7a	b9 20 00 00 00	 mov	 ecx, 32			; 00000020H
  02b7f	83 e9 02	 sub	 ecx, 2
  02b82	8b 55 d0	 mov	 edx, DWORD PTR _W$[ebp+48]
  02b85	d3 e2		 shl	 edx, cl
  02b87	8b 45 d0	 mov	 eax, DWORD PTR _W$[ebp+48]
  02b8a	c1 e8 02	 shr	 eax, 2
  02b8d	0b c2		 or	 eax, edx
  02b8f	33 45 d0	 xor	 eax, DWORD PTR _W$[ebp+48]
  02b92	89 85 58 fc ff
	ff		 mov	 DWORD PTR $T35820[ebp], eax
  02b98	b9 20 00 00 00	 mov	 ecx, 32			; 00000020H
  02b9d	83 e9 0b	 sub	 ecx, 11			; 0000000bH
  02ba0	8b 55 dc	 mov	 edx, DWORD PTR _W$[ebp+60]
  02ba3	d3 e2		 shl	 edx, cl
  02ba5	8b 45 dc	 mov	 eax, DWORD PTR _W$[ebp+60]
  02ba8	c1 e8 0b	 shr	 eax, 11			; 0000000bH
  02bab	0b c2		 or	 eax, edx
  02bad	33 45 dc	 xor	 eax, DWORD PTR _W$[ebp+60]
  02bb0	89 85 54 fc ff
	ff		 mov	 DWORD PTR $T35827[ebp], eax
  02bb6	8b 55 d0	 mov	 edx, DWORD PTR _W$[ebp+48]
  02bb9	c1 ea 0a	 shr	 edx, 10			; 0000000aH
  02bbc	b9 20 00 00 00	 mov	 ecx, 32			; 00000020H
  02bc1	83 e9 11	 sub	 ecx, 17			; 00000011H
  02bc4	8b 85 58 fc ff
	ff		 mov	 eax, DWORD PTR $T35820[ebp]
  02bca	d3 e0		 shl	 eax, cl
  02bcc	8b b5 58 fc ff
	ff		 mov	 esi, DWORD PTR $T35820[ebp]
  02bd2	c1 ee 11	 shr	 esi, 17			; 00000011H
  02bd5	0b f0		 or	 esi, eax
  02bd7	33 f2		 xor	 esi, edx
  02bd9	03 75 bc	 add	 esi, DWORD PTR _W$[ebp+28]
  02bdc	8b 55 dc	 mov	 edx, DWORD PTR _W$[ebp+60]
  02bdf	c1 ea 03	 shr	 edx, 3
  02be2	b9 20 00 00 00	 mov	 ecx, 32			; 00000020H
  02be7	83 e9 07	 sub	 ecx, 7
  02bea	8b 85 54 fc ff
	ff		 mov	 eax, DWORD PTR $T35827[ebp]
  02bf0	d3 e0		 shl	 eax, cl
  02bf2	8b 8d 54 fc ff
	ff		 mov	 ecx, DWORD PTR $T35827[ebp]
  02bf8	c1 e9 07	 shr	 ecx, 7
  02bfb	0b c8		 or	 ecx, eax
  02bfd	33 ca		 xor	 ecx, edx
  02bff	03 4d d8	 add	 ecx, DWORD PTR _W$[ebp+56]
  02c02	03 ce		 add	 ecx, esi
  02c04	89 4d d8	 mov	 DWORD PTR _W$[ebp+56], ecx
  02c07	8b 55 f8	 mov	 edx, DWORD PTR _T$[ebp+24]
  02c0a	c1 ea 0e	 shr	 edx, 14			; 0000000eH
  02c0d	b9 20 00 00 00	 mov	 ecx, 32			; 00000020H
  02c12	83 e9 0e	 sub	 ecx, 14			; 0000000eH
  02c15	8b 45 f8	 mov	 eax, DWORD PTR _T$[ebp+24]
  02c18	d3 e0		 shl	 eax, cl
  02c1a	0b d0		 or	 edx, eax
  02c1c	89 95 50 fc ff
	ff		 mov	 DWORD PTR $T35831[ebp], edx
  02c22	8b 4d f8	 mov	 ecx, DWORD PTR _T$[ebp+24]
  02c25	33 8d 50 fc ff
	ff		 xor	 ecx, DWORD PTR $T35831[ebp]
  02c2b	89 8d 4c fc ff
	ff		 mov	 DWORD PTR $T35835[ebp], ecx
  02c31	b9 20 00 00 00	 mov	 ecx, 32			; 00000020H
  02c36	83 e9 05	 sub	 ecx, 5
  02c39	8b 95 4c fc ff
	ff		 mov	 edx, DWORD PTR $T35835[ebp]
  02c3f	d3 e2		 shl	 edx, cl
  02c41	8b 85 4c fc ff
	ff		 mov	 eax, DWORD PTR $T35835[ebp]
  02c47	c1 e8 05	 shr	 eax, 5
  02c4a	0b c2		 or	 eax, edx
  02c4c	33 45 f8	 xor	 eax, DWORD PTR _T$[ebp+24]
  02c4f	89 85 48 fc ff
	ff		 mov	 DWORD PTR $T35839[ebp], eax
  02c55	8b 55 fc	 mov	 edx, DWORD PTR _T$[ebp+28]
  02c58	33 55 e0	 xor	 edx, DWORD PTR _T$[ebp]
  02c5b	23 55 f8	 and	 edx, DWORD PTR _T$[ebp+24]
  02c5e	33 55 e0	 xor	 edx, DWORD PTR _T$[ebp]
  02c61	b9 20 00 00 00	 mov	 ecx, 32			; 00000020H
  02c66	83 e9 06	 sub	 ecx, 6
  02c69	8b 85 48 fc ff
	ff		 mov	 eax, DWORD PTR $T35839[ebp]
  02c6f	d3 e0		 shl	 eax, cl
  02c71	8b 8d 48 fc ff
	ff		 mov	 ecx, DWORD PTR $T35839[ebp]
  02c77	c1 e9 06	 shr	 ecx, 6
  02c7a	0b c8		 or	 ecx, eax
  02c7c	03 ca		 add	 ecx, edx
  02c7e	8b 55 9c	 mov	 edx, DWORD PTR _j$32344[ebp]
  02c81	03 0c 95 38 00
	00 00		 add	 ecx, DWORD PTR _SHA256_K[edx*4+56]
  02c88	03 4d d8	 add	 ecx, DWORD PTR _W$[ebp+56]
  02c8b	03 4d e4	 add	 ecx, DWORD PTR _T$[ebp+4]
  02c8e	89 4d e4	 mov	 DWORD PTR _T$[ebp+4], ecx
  02c91	8b 45 f4	 mov	 eax, DWORD PTR _T$[ebp+20]
  02c94	03 45 e4	 add	 eax, DWORD PTR _T$[ebp+4]
  02c97	89 45 f4	 mov	 DWORD PTR _T$[ebp+20], eax
  02c9a	8b 55 e8	 mov	 edx, DWORD PTR _T$[ebp+8]
  02c9d	c1 ea 09	 shr	 edx, 9
  02ca0	b9 20 00 00 00	 mov	 ecx, 32			; 00000020H
  02ca5	83 e9 09	 sub	 ecx, 9
  02ca8	8b 45 e8	 mov	 eax, DWORD PTR _T$[ebp+8]
  02cab	d3 e0		 shl	 eax, cl
  02cad	0b d0		 or	 edx, eax
  02caf	89 95 44 fc ff
	ff		 mov	 DWORD PTR $T35843[ebp], edx
  02cb5	8b 4d e8	 mov	 ecx, DWORD PTR _T$[ebp+8]
  02cb8	33 8d 44 fc ff
	ff		 xor	 ecx, DWORD PTR $T35843[ebp]
  02cbe	89 8d 40 fc ff
	ff		 mov	 DWORD PTR $T35847[ebp], ecx
  02cc4	b9 20 00 00 00	 mov	 ecx, 32			; 00000020H
  02cc9	83 e9 0b	 sub	 ecx, 11			; 0000000bH
  02ccc	8b 95 40 fc ff
	ff		 mov	 edx, DWORD PTR $T35847[ebp]
  02cd2	d3 e2		 shl	 edx, cl
  02cd4	8b 85 40 fc ff
	ff		 mov	 eax, DWORD PTR $T35847[ebp]
  02cda	c1 e8 0b	 shr	 eax, 11			; 0000000bH
  02cdd	0b c2		 or	 eax, edx
  02cdf	33 45 e8	 xor	 eax, DWORD PTR _T$[ebp+8]
  02ce2	89 85 3c fc ff
	ff		 mov	 DWORD PTR $T35851[ebp], eax
  02ce8	8b 55 ec	 mov	 edx, DWORD PTR _T$[ebp+12]
  02ceb	33 55 f0	 xor	 edx, DWORD PTR _T$[ebp+16]
  02cee	23 55 e8	 and	 edx, DWORD PTR _T$[ebp+8]
  02cf1	8b 45 ec	 mov	 eax, DWORD PTR _T$[ebp+12]
  02cf4	23 45 f0	 and	 eax, DWORD PTR _T$[ebp+16]
  02cf7	03 d0		 add	 edx, eax
  02cf9	b9 20 00 00 00	 mov	 ecx, 32			; 00000020H
  02cfe	83 e9 02	 sub	 ecx, 2
  02d01	8b 85 3c fc ff
	ff		 mov	 eax, DWORD PTR $T35851[ebp]
  02d07	d3 e0		 shl	 eax, cl
  02d09	8b 8d 3c fc ff
	ff		 mov	 ecx, DWORD PTR $T35851[ebp]
  02d0f	c1 e9 02	 shr	 ecx, 2
  02d12	0b c8		 or	 ecx, eax
  02d14	03 55 e4	 add	 edx, DWORD PTR _T$[ebp+4]
  02d17	03 d1		 add	 edx, ecx
  02d19	89 55 e4	 mov	 DWORD PTR _T$[ebp+4], edx
  02d1c	b9 20 00 00 00	 mov	 ecx, 32			; 00000020H
  02d21	83 e9 02	 sub	 ecx, 2
  02d24	8b 55 d4	 mov	 edx, DWORD PTR _W$[ebp+52]
  02d27	d3 e2		 shl	 edx, cl
  02d29	8b 45 d4	 mov	 eax, DWORD PTR _W$[ebp+52]
  02d2c	c1 e8 02	 shr	 eax, 2
  02d2f	0b c2		 or	 eax, edx
  02d31	33 45 d4	 xor	 eax, DWORD PTR _W$[ebp+52]
  02d34	89 85 38 fc ff
	ff		 mov	 DWORD PTR $T35858[ebp], eax
  02d3a	b9 20 00 00 00	 mov	 ecx, 32			; 00000020H
  02d3f	83 e9 0b	 sub	 ecx, 11			; 0000000bH
  02d42	8b 55 a0	 mov	 edx, DWORD PTR _W$[ebp]
  02d45	d3 e2		 shl	 edx, cl
  02d47	8b 45 a0	 mov	 eax, DWORD PTR _W$[ebp]
  02d4a	c1 e8 0b	 shr	 eax, 11			; 0000000bH
  02d4d	0b c2		 or	 eax, edx
  02d4f	33 45 a0	 xor	 eax, DWORD PTR _W$[ebp]
  02d52	89 85 34 fc ff
	ff		 mov	 DWORD PTR $T35865[ebp], eax
  02d58	8b 55 d4	 mov	 edx, DWORD PTR _W$[ebp+52]
  02d5b	c1 ea 0a	 shr	 edx, 10			; 0000000aH
  02d5e	b9 20 00 00 00	 mov	 ecx, 32			; 00000020H
  02d63	83 e9 11	 sub	 ecx, 17			; 00000011H
  02d66	8b 85 38 fc ff
	ff		 mov	 eax, DWORD PTR $T35858[ebp]
  02d6c	d3 e0		 shl	 eax, cl
  02d6e	8b b5 38 fc ff
	ff		 mov	 esi, DWORD PTR $T35858[ebp]
  02d74	c1 ee 11	 shr	 esi, 17			; 00000011H
  02d77	0b f0		 or	 esi, eax
  02d79	33 f2		 xor	 esi, edx
  02d7b	03 75 c0	 add	 esi, DWORD PTR _W$[ebp+32]
  02d7e	8b 55 a0	 mov	 edx, DWORD PTR _W$[ebp]
  02d81	c1 ea 03	 shr	 edx, 3
  02d84	b9 20 00 00 00	 mov	 ecx, 32			; 00000020H
  02d89	83 e9 07	 sub	 ecx, 7
  02d8c	8b 85 34 fc ff
	ff		 mov	 eax, DWORD PTR $T35865[ebp]
  02d92	d3 e0		 shl	 eax, cl
  02d94	8b 8d 34 fc ff
	ff		 mov	 ecx, DWORD PTR $T35865[ebp]
  02d9a	c1 e9 07	 shr	 ecx, 7
  02d9d	0b c8		 or	 ecx, eax
  02d9f	33 ca		 xor	 ecx, edx
  02da1	03 4d dc	 add	 ecx, DWORD PTR _W$[ebp+60]
  02da4	03 ce		 add	 ecx, esi
  02da6	89 4d dc	 mov	 DWORD PTR _W$[ebp+60], ecx
  02da9	8b 55 f4	 mov	 edx, DWORD PTR _T$[ebp+20]
  02dac	c1 ea 0e	 shr	 edx, 14			; 0000000eH
  02daf	b9 20 00 00 00	 mov	 ecx, 32			; 00000020H
  02db4	83 e9 0e	 sub	 ecx, 14			; 0000000eH
  02db7	8b 45 f4	 mov	 eax, DWORD PTR _T$[ebp+20]
  02dba	d3 e0		 shl	 eax, cl
  02dbc	0b d0		 or	 edx, eax
  02dbe	89 95 30 fc ff
	ff		 mov	 DWORD PTR $T35869[ebp], edx
  02dc4	8b 4d f4	 mov	 ecx, DWORD PTR _T$[ebp+20]
  02dc7	33 8d 30 fc ff
	ff		 xor	 ecx, DWORD PTR $T35869[ebp]
  02dcd	89 8d 2c fc ff
	ff		 mov	 DWORD PTR $T35873[ebp], ecx
  02dd3	b9 20 00 00 00	 mov	 ecx, 32			; 00000020H
  02dd8	83 e9 05	 sub	 ecx, 5
  02ddb	8b 95 2c fc ff
	ff		 mov	 edx, DWORD PTR $T35873[ebp]
  02de1	d3 e2		 shl	 edx, cl
  02de3	8b 85 2c fc ff
	ff		 mov	 eax, DWORD PTR $T35873[ebp]
  02de9	c1 e8 05	 shr	 eax, 5
  02dec	0b c2		 or	 eax, edx
  02dee	33 45 f4	 xor	 eax, DWORD PTR _T$[ebp+20]
  02df1	89 85 28 fc ff
	ff		 mov	 DWORD PTR $T35877[ebp], eax
  02df7	8b 55 f8	 mov	 edx, DWORD PTR _T$[ebp+24]
  02dfa	33 55 fc	 xor	 edx, DWORD PTR _T$[ebp+28]
  02dfd	23 55 f4	 and	 edx, DWORD PTR _T$[ebp+20]
  02e00	33 55 fc	 xor	 edx, DWORD PTR _T$[ebp+28]
  02e03	b9 20 00 00 00	 mov	 ecx, 32			; 00000020H
  02e08	83 e9 06	 sub	 ecx, 6
  02e0b	8b 85 28 fc ff
	ff		 mov	 eax, DWORD PTR $T35877[ebp]
  02e11	d3 e0		 shl	 eax, cl
  02e13	8b 8d 28 fc ff
	ff		 mov	 ecx, DWORD PTR $T35877[ebp]
  02e19	c1 e9 06	 shr	 ecx, 6
  02e1c	0b c8		 or	 ecx, eax
  02e1e	03 ca		 add	 ecx, edx
  02e20	8b 55 9c	 mov	 edx, DWORD PTR _j$32344[ebp]
  02e23	03 0c 95 3c 00
	00 00		 add	 ecx, DWORD PTR _SHA256_K[edx*4+60]
  02e2a	03 4d dc	 add	 ecx, DWORD PTR _W$[ebp+60]
  02e2d	03 4d e0	 add	 ecx, DWORD PTR _T$[ebp]
  02e30	89 4d e0	 mov	 DWORD PTR _T$[ebp], ecx
  02e33	8b 45 f0	 mov	 eax, DWORD PTR _T$[ebp+16]
  02e36	03 45 e0	 add	 eax, DWORD PTR _T$[ebp]
  02e39	89 45 f0	 mov	 DWORD PTR _T$[ebp+16], eax
  02e3c	8b 55 e4	 mov	 edx, DWORD PTR _T$[ebp+4]
  02e3f	c1 ea 09	 shr	 edx, 9
  02e42	b9 20 00 00 00	 mov	 ecx, 32			; 00000020H
  02e47	83 e9 09	 sub	 ecx, 9
  02e4a	8b 45 e4	 mov	 eax, DWORD PTR _T$[ebp+4]
  02e4d	d3 e0		 shl	 eax, cl
  02e4f	0b d0		 or	 edx, eax
  02e51	89 95 24 fc ff
	ff		 mov	 DWORD PTR $T35881[ebp], edx
  02e57	8b 4d e4	 mov	 ecx, DWORD PTR _T$[ebp+4]
  02e5a	33 8d 24 fc ff
	ff		 xor	 ecx, DWORD PTR $T35881[ebp]
  02e60	89 8d 20 fc ff
	ff		 mov	 DWORD PTR $T35885[ebp], ecx
  02e66	b9 20 00 00 00	 mov	 ecx, 32			; 00000020H
  02e6b	83 e9 0b	 sub	 ecx, 11			; 0000000bH
  02e6e	8b 95 20 fc ff
	ff		 mov	 edx, DWORD PTR $T35885[ebp]
  02e74	d3 e2		 shl	 edx, cl
  02e76	8b 85 20 fc ff
	ff		 mov	 eax, DWORD PTR $T35885[ebp]
  02e7c	c1 e8 0b	 shr	 eax, 11			; 0000000bH
  02e7f	0b c2		 or	 eax, edx
  02e81	33 45 e4	 xor	 eax, DWORD PTR _T$[ebp+4]
  02e84	89 85 1c fc ff
	ff		 mov	 DWORD PTR $T35889[ebp], eax
  02e8a	8b 55 e8	 mov	 edx, DWORD PTR _T$[ebp+8]
  02e8d	33 55 ec	 xor	 edx, DWORD PTR _T$[ebp+12]
  02e90	23 55 e4	 and	 edx, DWORD PTR _T$[ebp+4]
  02e93	8b 45 e8	 mov	 eax, DWORD PTR _T$[ebp+8]
  02e96	23 45 ec	 and	 eax, DWORD PTR _T$[ebp+12]
  02e99	03 d0		 add	 edx, eax
  02e9b	b9 20 00 00 00	 mov	 ecx, 32			; 00000020H
  02ea0	83 e9 02	 sub	 ecx, 2
  02ea3	8b 85 1c fc ff
	ff		 mov	 eax, DWORD PTR $T35889[ebp]
  02ea9	d3 e0		 shl	 eax, cl
  02eab	8b 8d 1c fc ff
	ff		 mov	 ecx, DWORD PTR $T35889[ebp]
  02eb1	c1 e9 02	 shr	 ecx, 2
  02eb4	0b c8		 or	 ecx, eax
  02eb6	03 55 e0	 add	 edx, DWORD PTR _T$[ebp]
  02eb9	03 d1		 add	 edx, ecx
  02ebb	89 55 e0	 mov	 DWORD PTR _T$[ebp], edx

; 106  : 	}

  02ebe	e9 c8 e5 ff ff	 jmp	 $LN2@transform
$LN1@transform:

; 107  :   }
; 108  : 
; 109  : 	// Add the working vars back into state[].
; 110  : 	state[0] += a(0);

  02ec3	8b 55 08	 mov	 edx, DWORD PTR _state$[ebp]
  02ec6	8b 02		 mov	 eax, DWORD PTR [edx]
  02ec8	03 45 e0	 add	 eax, DWORD PTR _T$[ebp]
  02ecb	8b 4d 08	 mov	 ecx, DWORD PTR _state$[ebp]
  02ece	89 01		 mov	 DWORD PTR [ecx], eax

; 111  : 	state[1] += b(0);

  02ed0	8b 55 08	 mov	 edx, DWORD PTR _state$[ebp]
  02ed3	8b 42 04	 mov	 eax, DWORD PTR [edx+4]
  02ed6	03 45 e4	 add	 eax, DWORD PTR _T$[ebp+4]
  02ed9	8b 4d 08	 mov	 ecx, DWORD PTR _state$[ebp]
  02edc	89 41 04	 mov	 DWORD PTR [ecx+4], eax

; 112  : 	state[2] += c(0);

  02edf	8b 55 08	 mov	 edx, DWORD PTR _state$[ebp]
  02ee2	8b 42 08	 mov	 eax, DWORD PTR [edx+8]
  02ee5	03 45 e8	 add	 eax, DWORD PTR _T$[ebp+8]
  02ee8	8b 4d 08	 mov	 ecx, DWORD PTR _state$[ebp]
  02eeb	89 41 08	 mov	 DWORD PTR [ecx+8], eax

; 113  : 	state[3] += d(0);

  02eee	8b 55 08	 mov	 edx, DWORD PTR _state$[ebp]
  02ef1	8b 42 0c	 mov	 eax, DWORD PTR [edx+12]
  02ef4	03 45 ec	 add	 eax, DWORD PTR _T$[ebp+12]
  02ef7	8b 4d 08	 mov	 ecx, DWORD PTR _state$[ebp]
  02efa	89 41 0c	 mov	 DWORD PTR [ecx+12], eax

; 114  : 	state[4] += e(0);

  02efd	8b 55 08	 mov	 edx, DWORD PTR _state$[ebp]
  02f00	8b 42 10	 mov	 eax, DWORD PTR [edx+16]
  02f03	03 45 f0	 add	 eax, DWORD PTR _T$[ebp+16]
  02f06	8b 4d 08	 mov	 ecx, DWORD PTR _state$[ebp]
  02f09	89 41 10	 mov	 DWORD PTR [ecx+16], eax

; 115  : 	state[5] += f(0);

  02f0c	8b 55 08	 mov	 edx, DWORD PTR _state$[ebp]
  02f0f	8b 42 14	 mov	 eax, DWORD PTR [edx+20]
  02f12	03 45 f4	 add	 eax, DWORD PTR _T$[ebp+20]
  02f15	8b 4d 08	 mov	 ecx, DWORD PTR _state$[ebp]
  02f18	89 41 14	 mov	 DWORD PTR [ecx+20], eax

; 116  : 	state[6] += g(0);

  02f1b	8b 55 08	 mov	 edx, DWORD PTR _state$[ebp]
  02f1e	8b 42 18	 mov	 eax, DWORD PTR [edx+24]
  02f21	03 45 f8	 add	 eax, DWORD PTR _T$[ebp+24]
  02f24	8b 4d 08	 mov	 ecx, DWORD PTR _state$[ebp]
  02f27	89 41 18	 mov	 DWORD PTR [ecx+24], eax

; 117  : 	state[7] += h(0);

  02f2a	8b 55 08	 mov	 edx, DWORD PTR _state$[ebp]
  02f2d	8b 42 1c	 mov	 eax, DWORD PTR [edx+28]
  02f30	03 45 fc	 add	 eax, DWORD PTR _T$[ebp+28]
  02f33	8b 4d 08	 mov	 ecx, DWORD PTR _state$[ebp]
  02f36	89 41 1c	 mov	 DWORD PTR [ecx+28], eax

; 118  : }

  02f39	5e		 pop	 esi
  02f3a	8b e5		 mov	 esp, ebp
  02f3c	5d		 pop	 ebp
  02f3d	c3		 ret	 0
_transform ENDP
; Function compile flags: /Odtp
;	COMDAT _process
_TEXT	SEGMENT
_check$ = 8						; size = 4
_process PROC						; COMDAT

; 123  : {

  00000	55		 push	 ebp
  00001	8b ec		 mov	 ebp, esp

; 124  : 	transform(check->state.sha256.state, check->buffer.u32);

  00003	8b 45 08	 mov	 eax, DWORD PTR _check$[ebp]
  00006	50		 push	 eax
  00007	8b 4d 08	 mov	 ecx, DWORD PTR _check$[ebp]
  0000a	83 c1 40	 add	 ecx, 64			; 00000040H
  0000d	51		 push	 ecx
  0000e	e8 00 00 00 00	 call	 _transform
  00013	83 c4 08	 add	 esp, 8

; 125  : 	return;
; 126  : }

  00016	5d		 pop	 ebp
  00017	c3		 ret	 0
_process ENDP
PUBLIC	_lzma_sha256_finish
; Function compile flags: /Odtp
;	COMDAT _lzma_sha256_finish
_TEXT	SEGMENT
_i$32387 = -8						; size = 4
_pos$ = -4						; size = 4
_check$ = 8						; size = 4
_lzma_sha256_finish PROC				; COMDAT

; 173  : {

  00000	55		 push	 ebp
  00001	8b ec		 mov	 ebp, esp
  00003	83 ec 08	 sub	 esp, 8
  00006	56		 push	 esi
  00007	57		 push	 edi

; 174  : 	// Add padding as described in RFC 3174 (it describes SHA-1 but
; 175  : 	// the same padding style is used for SHA-256 too).
; 176  : 	size_t pos = check->state.sha256.size & 0x3F;

  00008	8b 45 08	 mov	 eax, DWORD PTR _check$[ebp]
  0000b	8b 48 60	 mov	 ecx, DWORD PTR [eax+96]
  0000e	83 e1 3f	 and	 ecx, 63			; 0000003fH
  00011	8b 50 64	 mov	 edx, DWORD PTR [eax+100]
  00014	83 e2 00	 and	 edx, 0
  00017	89 4d fc	 mov	 DWORD PTR _pos$[ebp], ecx

; 177  : 	check->buffer.u8[pos++] = 0x80;

  0001a	8b 45 08	 mov	 eax, DWORD PTR _check$[ebp]
  0001d	03 45 fc	 add	 eax, DWORD PTR _pos$[ebp]
  00020	c6 00 80	 mov	 BYTE PTR [eax], 128	; 00000080H
  00023	8b 4d fc	 mov	 ecx, DWORD PTR _pos$[ebp]
  00026	83 c1 01	 add	 ecx, 1
  00029	89 4d fc	 mov	 DWORD PTR _pos$[ebp], ecx
$LN6@lzma_sha25:

; 178  : 
; 179  : 	while (pos != 64 - 8) {

  0002c	83 7d fc 38	 cmp	 DWORD PTR _pos$[ebp], 56 ; 00000038H
  00030	74 2d		 je	 SHORT $LN5@lzma_sha25

; 180  : 		if (pos == 64) {

  00032	83 7d fc 40	 cmp	 DWORD PTR _pos$[ebp], 64 ; 00000040H
  00036	75 13		 jne	 SHORT $LN4@lzma_sha25

; 181  : 			process(check);

  00038	8b 55 08	 mov	 edx, DWORD PTR _check$[ebp]
  0003b	52		 push	 edx
  0003c	e8 00 00 00 00	 call	 _process
  00041	83 c4 04	 add	 esp, 4

; 182  : 			pos = 0;

  00044	c7 45 fc 00 00
	00 00		 mov	 DWORD PTR _pos$[ebp], 0
$LN4@lzma_sha25:

; 183  : 		}
; 184  : 
; 185  : 		check->buffer.u8[pos++] = 0x00;

  0004b	8b 45 08	 mov	 eax, DWORD PTR _check$[ebp]
  0004e	03 45 fc	 add	 eax, DWORD PTR _pos$[ebp]
  00051	c6 00 00	 mov	 BYTE PTR [eax], 0
  00054	8b 4d fc	 mov	 ecx, DWORD PTR _pos$[ebp]
  00057	83 c1 01	 add	 ecx, 1
  0005a	89 4d fc	 mov	 DWORD PTR _pos$[ebp], ecx

; 186  : 	}

  0005d	eb cd		 jmp	 SHORT $LN6@lzma_sha25
$LN5@lzma_sha25:

; 187  : 
; 188  : 	// Convert the message size from bytes to bits.
; 189  : 	check->state.sha256.size *= 8;

  0005f	8b 55 08	 mov	 edx, DWORD PTR _check$[ebp]
  00062	6a 00		 push	 0
  00064	6a 08		 push	 8
  00066	8b 42 64	 mov	 eax, DWORD PTR [edx+100]
  00069	50		 push	 eax
  0006a	8b 4a 60	 mov	 ecx, DWORD PTR [edx+96]
  0006d	51		 push	 ecx
  0006e	e8 00 00 00 00	 call	 __allmul
  00073	8b 4d 08	 mov	 ecx, DWORD PTR _check$[ebp]
  00076	89 41 60	 mov	 DWORD PTR [ecx+96], eax
  00079	89 51 64	 mov	 DWORD PTR [ecx+100], edx

; 190  : 
; 191  : 	check->buffer.u64[(64 - 8) / 8] = conv64be(check->state.sha256.size);

  0007c	8b 55 08	 mov	 edx, DWORD PTR _check$[ebp]
  0007f	8b 42 60	 mov	 eax, DWORD PTR [edx+96]
  00082	8b 52 64	 mov	 edx, DWORD PTR [edx+100]
  00085	b1 38		 mov	 cl, 56			; 00000038H
  00087	e8 00 00 00 00	 call	 __allshl
  0008c	8b f0		 mov	 esi, eax
  0008e	8b fa		 mov	 edi, edx
  00090	8b 4d 08	 mov	 ecx, DWORD PTR _check$[ebp]
  00093	8b 41 60	 mov	 eax, DWORD PTR [ecx+96]
  00096	8b 51 64	 mov	 edx, DWORD PTR [ecx+100]
  00099	b1 28		 mov	 cl, 40			; 00000028H
  0009b	e8 00 00 00 00	 call	 __allshl
  000a0	83 e0 00	 and	 eax, 0
  000a3	81 e2 00 00 ff
	00		 and	 edx, 16711680		; 00ff0000H
  000a9	0b f0		 or	 esi, eax
  000ab	0b fa		 or	 edi, edx
  000ad	8b 55 08	 mov	 edx, DWORD PTR _check$[ebp]
  000b0	8b 42 60	 mov	 eax, DWORD PTR [edx+96]
  000b3	8b 52 64	 mov	 edx, DWORD PTR [edx+100]
  000b6	b1 18		 mov	 cl, 24			; 00000018H
  000b8	e8 00 00 00 00	 call	 __allshl
  000bd	83 e0 00	 and	 eax, 0
  000c0	81 e2 00 ff 00
	00		 and	 edx, 65280		; 0000ff00H
  000c6	0b f0		 or	 esi, eax
  000c8	0b fa		 or	 edi, edx
  000ca	8b 4d 08	 mov	 ecx, DWORD PTR _check$[ebp]
  000cd	8b 41 60	 mov	 eax, DWORD PTR [ecx+96]
  000d0	8b 51 64	 mov	 edx, DWORD PTR [ecx+100]
  000d3	b1 08		 mov	 cl, 8
  000d5	e8 00 00 00 00	 call	 __allshl
  000da	83 e0 00	 and	 eax, 0
  000dd	81 e2 ff 00 00
	00		 and	 edx, 255		; 000000ffH
  000e3	0b f0		 or	 esi, eax
  000e5	0b fa		 or	 edi, edx
  000e7	8b 55 08	 mov	 edx, DWORD PTR _check$[ebp]
  000ea	8b 42 60	 mov	 eax, DWORD PTR [edx+96]
  000ed	8b 52 64	 mov	 edx, DWORD PTR [edx+100]
  000f0	b1 08		 mov	 cl, 8
  000f2	e8 00 00 00 00	 call	 __aullshr
  000f7	25 00 00 00 ff	 and	 eax, -16777216		; ff000000H
  000fc	83 e2 00	 and	 edx, 0
  000ff	0b f0		 or	 esi, eax
  00101	0b fa		 or	 edi, edx
  00103	8b 4d 08	 mov	 ecx, DWORD PTR _check$[ebp]
  00106	8b 41 60	 mov	 eax, DWORD PTR [ecx+96]
  00109	8b 51 64	 mov	 edx, DWORD PTR [ecx+100]
  0010c	b1 18		 mov	 cl, 24			; 00000018H
  0010e	e8 00 00 00 00	 call	 __aullshr
  00113	25 00 00 ff 00	 and	 eax, 16711680		; 00ff0000H
  00118	83 e2 00	 and	 edx, 0
  0011b	0b f0		 or	 esi, eax
  0011d	0b fa		 or	 edi, edx
  0011f	8b 55 08	 mov	 edx, DWORD PTR _check$[ebp]
  00122	8b 42 60	 mov	 eax, DWORD PTR [edx+96]
  00125	8b 52 64	 mov	 edx, DWORD PTR [edx+100]
  00128	b1 28		 mov	 cl, 40			; 00000028H
  0012a	e8 00 00 00 00	 call	 __aullshr
  0012f	25 00 ff 00 00	 and	 eax, 65280		; 0000ff00H
  00134	83 e2 00	 and	 edx, 0
  00137	0b f0		 or	 esi, eax
  00139	0b fa		 or	 edi, edx
  0013b	8b 4d 08	 mov	 ecx, DWORD PTR _check$[ebp]
  0013e	8b 41 60	 mov	 eax, DWORD PTR [ecx+96]
  00141	8b 51 64	 mov	 edx, DWORD PTR [ecx+100]
  00144	b1 38		 mov	 cl, 56			; 00000038H
  00146	e8 00 00 00 00	 call	 __aullshr
  0014b	0b f0		 or	 esi, eax
  0014d	0b fa		 or	 edi, edx
  0014f	8b 55 08	 mov	 edx, DWORD PTR _check$[ebp]
  00152	89 72 38	 mov	 DWORD PTR [edx+56], esi
  00155	89 7a 3c	 mov	 DWORD PTR [edx+60], edi

; 192  : 
; 193  : 	process(check);

  00158	8b 45 08	 mov	 eax, DWORD PTR _check$[ebp]
  0015b	50		 push	 eax
  0015c	e8 00 00 00 00	 call	 _process
  00161	83 c4 04	 add	 esp, 4

; 194  : 
; 195  :   { size_t i;
; 196  : 
; 197  : 	for (i = 0; i < 8; ++i)

  00164	c7 45 f8 00 00
	00 00		 mov	 DWORD PTR _i$32387[ebp], 0
  0016b	eb 09		 jmp	 SHORT $LN3@lzma_sha25
$LN2@lzma_sha25:
  0016d	8b 4d f8	 mov	 ecx, DWORD PTR _i$32387[ebp]
  00170	83 c1 01	 add	 ecx, 1
  00173	89 4d f8	 mov	 DWORD PTR _i$32387[ebp], ecx
$LN3@lzma_sha25:
  00176	83 7d f8 08	 cmp	 DWORD PTR _i$32387[ebp], 8
  0017a	73 50		 jae	 SHORT $LN7@lzma_sha25

; 198  : 		check->buffer.u32[i] = conv32be(check->state.sha256.state[i]);

  0017c	8b 55 f8	 mov	 edx, DWORD PTR _i$32387[ebp]
  0017f	8b 45 08	 mov	 eax, DWORD PTR _check$[ebp]
  00182	8b 4c 90 40	 mov	 ecx, DWORD PTR [eax+edx*4+64]
  00186	c1 e1 18	 shl	 ecx, 24			; 00000018H
  00189	8b 55 f8	 mov	 edx, DWORD PTR _i$32387[ebp]
  0018c	8b 45 08	 mov	 eax, DWORD PTR _check$[ebp]
  0018f	8b 54 90 40	 mov	 edx, DWORD PTR [eax+edx*4+64]
  00193	c1 e2 08	 shl	 edx, 8
  00196	81 e2 00 00 ff
	00		 and	 edx, 16711680		; 00ff0000H
  0019c	0b ca		 or	 ecx, edx
  0019e	8b 45 f8	 mov	 eax, DWORD PTR _i$32387[ebp]
  001a1	8b 55 08	 mov	 edx, DWORD PTR _check$[ebp]
  001a4	8b 44 82 40	 mov	 eax, DWORD PTR [edx+eax*4+64]
  001a8	c1 e8 08	 shr	 eax, 8
  001ab	25 00 ff 00 00	 and	 eax, 65280		; 0000ff00H
  001b0	0b c8		 or	 ecx, eax
  001b2	8b 55 f8	 mov	 edx, DWORD PTR _i$32387[ebp]
  001b5	8b 45 08	 mov	 eax, DWORD PTR _check$[ebp]
  001b8	8b 54 90 40	 mov	 edx, DWORD PTR [eax+edx*4+64]
  001bc	c1 ea 18	 shr	 edx, 24			; 00000018H
  001bf	0b ca		 or	 ecx, edx
  001c1	8b 45 f8	 mov	 eax, DWORD PTR _i$32387[ebp]
  001c4	8b 55 08	 mov	 edx, DWORD PTR _check$[ebp]
  001c7	89 0c 82	 mov	 DWORD PTR [edx+eax*4], ecx
  001ca	eb a1		 jmp	 SHORT $LN2@lzma_sha25
$LN7@lzma_sha25:

; 199  :   }
; 200  : 
; 201  : 	return;
; 202  : }

  001cc	5f		 pop	 edi
  001cd	5e		 pop	 esi
  001ce	8b e5		 mov	 esp, ebp
  001d0	5d		 pop	 ebp
  001d1	c3		 ret	 0
_lzma_sha256_finish ENDP
_TEXT	ENDS
PUBLIC	_lzma_sha256_update
; Function compile flags: /Odtp
;	COMDAT _lzma_sha256_update
_TEXT	SEGMENT
tv146 = -16						; size = 8
_copy_start$32367 = -8					; size = 4
_copy_size$32368 = -4					; size = 4
_buf$ = 8						; size = 4
_size$ = 12						; size = 4
_check$ = 16						; size = 4
_lzma_sha256_update PROC				; COMDAT

; 146  : {

  00000	55		 push	 ebp
  00001	8b ec		 mov	 ebp, esp
  00003	83 ec 10	 sub	 esp, 16			; 00000010H
$LN4@lzma_sha25@2:

; 147  : 	// Copy the input data into a properly aligned temporary buffer.
; 148  : 	// This way we can be called with arbitrarily sized buffers
; 149  : 	// (no need to be multiple of 64 bytes), and the code works also
; 150  : 	// on architectures that don't allow unaligned memory access.
; 151  : 	while (size > 0) {

  00006	83 7d 0c 00	 cmp	 DWORD PTR _size$[ebp], 0
  0000a	0f 86 9b 00 00
	00		 jbe	 $LN5@lzma_sha25@2

; 152  : 		const size_t copy_start = check->state.sha256.size & 0x3F;

  00010	8b 45 10	 mov	 eax, DWORD PTR _check$[ebp]
  00013	8b 48 60	 mov	 ecx, DWORD PTR [eax+96]
  00016	83 e1 3f	 and	 ecx, 63			; 0000003fH
  00019	8b 50 64	 mov	 edx, DWORD PTR [eax+100]
  0001c	83 e2 00	 and	 edx, 0
  0001f	89 4d f8	 mov	 DWORD PTR _copy_start$32367[ebp], ecx

; 153  : 		size_t copy_size = 64 - copy_start;

  00022	b8 40 00 00 00	 mov	 eax, 64			; 00000040H
  00027	2b 45 f8	 sub	 eax, DWORD PTR _copy_start$32367[ebp]
  0002a	89 45 fc	 mov	 DWORD PTR _copy_size$32368[ebp], eax

; 154  : 		if (copy_size > size)

  0002d	8b 4d fc	 mov	 ecx, DWORD PTR _copy_size$32368[ebp]
  00030	3b 4d 0c	 cmp	 ecx, DWORD PTR _size$[ebp]
  00033	76 06		 jbe	 SHORT $LN2@lzma_sha25@2

; 155  : 			copy_size = size;

  00035	8b 55 0c	 mov	 edx, DWORD PTR _size$[ebp]
  00038	89 55 fc	 mov	 DWORD PTR _copy_size$32368[ebp], edx
$LN2@lzma_sha25@2:

; 156  : 
; 157  : 		memcpy(check->buffer.u8 + copy_start, buf, copy_size);

  0003b	8b 45 fc	 mov	 eax, DWORD PTR _copy_size$32368[ebp]
  0003e	50		 push	 eax
  0003f	8b 4d 08	 mov	 ecx, DWORD PTR _buf$[ebp]
  00042	51		 push	 ecx
  00043	8b 55 10	 mov	 edx, DWORD PTR _check$[ebp]
  00046	03 55 f8	 add	 edx, DWORD PTR _copy_start$32367[ebp]
  00049	52		 push	 edx
  0004a	e8 00 00 00 00	 call	 _memcpy
  0004f	83 c4 0c	 add	 esp, 12			; 0000000cH

; 158  : 
; 159  : 		buf += copy_size;

  00052	8b 45 08	 mov	 eax, DWORD PTR _buf$[ebp]
  00055	03 45 fc	 add	 eax, DWORD PTR _copy_size$32368[ebp]
  00058	89 45 08	 mov	 DWORD PTR _buf$[ebp], eax

; 160  : 		size -= copy_size;

  0005b	8b 4d 0c	 mov	 ecx, DWORD PTR _size$[ebp]
  0005e	2b 4d fc	 sub	 ecx, DWORD PTR _copy_size$32368[ebp]
  00061	89 4d 0c	 mov	 DWORD PTR _size$[ebp], ecx

; 161  : 		check->state.sha256.size += copy_size;

  00064	8b 55 fc	 mov	 edx, DWORD PTR _copy_size$32368[ebp]
  00067	33 c0		 xor	 eax, eax
  00069	8b 4d 10	 mov	 ecx, DWORD PTR _check$[ebp]
  0006c	03 51 60	 add	 edx, DWORD PTR [ecx+96]
  0006f	8b 49 64	 mov	 ecx, DWORD PTR [ecx+100]
  00072	13 c8		 adc	 ecx, eax
  00074	8b 45 10	 mov	 eax, DWORD PTR _check$[ebp]
  00077	89 50 60	 mov	 DWORD PTR [eax+96], edx
  0007a	89 48 64	 mov	 DWORD PTR [eax+100], ecx

; 162  : 
; 163  : 		if ((check->state.sha256.size & 0x3F) == 0)

  0007d	8b 4d 10	 mov	 ecx, DWORD PTR _check$[ebp]
  00080	8b 51 60	 mov	 edx, DWORD PTR [ecx+96]
  00083	83 e2 3f	 and	 edx, 63			; 0000003fH
  00086	8b 41 64	 mov	 eax, DWORD PTR [ecx+100]
  00089	83 e0 00	 and	 eax, 0
  0008c	89 55 f0	 mov	 DWORD PTR tv146[ebp], edx
  0008f	89 45 f4	 mov	 DWORD PTR tv146[ebp+4], eax
  00092	8b 4d f0	 mov	 ecx, DWORD PTR tv146[ebp]
  00095	0b 4d f4	 or	 ecx, DWORD PTR tv146[ebp+4]
  00098	75 0c		 jne	 SHORT $LN1@lzma_sha25@2

; 164  : 			process(check);

  0009a	8b 55 10	 mov	 edx, DWORD PTR _check$[ebp]
  0009d	52		 push	 edx
  0009e	e8 00 00 00 00	 call	 _process
  000a3	83 c4 04	 add	 esp, 4
$LN1@lzma_sha25@2:

; 165  : 	}

  000a6	e9 5b ff ff ff	 jmp	 $LN4@lzma_sha25@2
$LN5@lzma_sha25@2:

; 166  : 
; 167  : 	return;
; 168  : }

  000ab	8b e5		 mov	 esp, ebp
  000ad	5d		 pop	 ebp
  000ae	c3		 ret	 0
_lzma_sha256_update ENDP
END
